SF:/Users/davidirvine/Desktop/Devel/projects/x0x/src/api/mod.rs
FN:998,_RNCNvNtCsfB8W1BOG4Wp_3x0x3api11by_category0B5_
FN:991,_RNCNvNtCsfB8W1BOG4Wp_3x0x3api16find_by_cli_name0B5_
FN:1003,_RNvNtCsfB8W1BOG4Wp_3x0x3api10categories
FN:995,_RNvNtCsfB8W1BOG4Wp_3x0x3api11by_category
FN:990,_RNvNtCsfB8W1BOG4Wp_3x0x3api16find_by_cli_name
FN:22,_RNvXNtCsfB8W1BOG4Wp_3x0x3apiNtB2_6MethodNtNtCsl8K0bEFm1U0_4core3fmt7Display3fmt
FN:998,_RNCNvNtCs6t3ktUJwJ8n_3x0x3api11by_category0B5_
FN:991,_RNCNvNtCs6t3ktUJwJ8n_3x0x3api16find_by_cli_name0B5_
FN:1003,_RNvNtCs6t3ktUJwJ8n_3x0x3api10categories
FN:995,_RNvNtCs6t3ktUJwJ8n_3x0x3api11by_category
FN:990,_RNvNtCs6t3ktUJwJ8n_3x0x3api16find_by_cli_name
FN:22,_RNvXNtCs6t3ktUJwJ8n_3x0x3apiNtB2_6MethodNtNtCsl8K0bEFm1U0_4core3fmt7Display3fmt
FN:1107,_RNvNtNtCs6t3ktUJwJ8n_3x0x3api5testss_14method_display
FN:1045,_RNvNtNtCs6t3ktUJwJ8n_3x0x3api5testss_20cli_names_are_unique
FN:1018,_RNvNtNtCs6t3ktUJwJ8n_3x0x3api5testss_22endpoints_is_not_empty
FN:1053,_RNvNtNtCs6t3ktUJwJ8n_3x0x3api5testss_27paths_are_unique_per_method
FN:1125,_RNvNtNtCs6t3ktUJwJ8n_3x0x3api5testss_28categories_contains_expected
FN:1033,_RNvNtNtCs6t3ktUJwJ8n_3x0x3api5testss_28every_path_starts_with_slash
FN:1116,_RNvNtNtCs6t3ktUJwJ8n_3x0x3api5testss_31every_endpoint_has_valid_method
FN:1069,_RNvNtNtCs6t3ktUJwJ8n_3x0x3api5testss_31find_by_cli_name_finds_existing
FN:1081,_RNvNtNtCs6t3ktUJwJ8n_3x0x3api5testss_32by_category_returns_all_matching
FN:1023,_RNvNtNtCs6t3ktUJwJ8n_3x0x3api5testss_35every_endpoint_has_non_empty_fields
FN:1090,_RNvNtNtCs6t3ktUJwJ8n_3x0x3api5testss_37by_category_returns_empty_for_unknown
FN:1096,_RNvNtNtCs6t3ktUJwJ8n_3x0x3api5testss_38categories_returns_unique_sorted_order
FN:1076,_RNvNtNtCs6t3ktUJwJ8n_3x0x3api5testss_41find_by_cli_name_returns_none_for_unknown
FNDA:0,_RNCNvNtCsfB8W1BOG4Wp_3x0x3api11by_category0B5_
FNDA:0,_RNCNvNtCsfB8W1BOG4Wp_3x0x3api16find_by_cli_name0B5_
FNDA:0,_RNvNtCsfB8W1BOG4Wp_3x0x3api10categories
FNDA:0,_RNvNtCsfB8W1BOG4Wp_3x0x3api11by_category
FNDA:0,_RNvNtCsfB8W1BOG4Wp_3x0x3api16find_by_cli_name
FNDA:1217,_RNvXNtCsfB8W1BOG4Wp_3x0x3apiNtB2_6MethodNtNtCsl8K0bEFm1U0_4core3fmt7Display3fmt
FNDA:2600,_RNCNvNtCs6t3ktUJwJ8n_3x0x3api11by_category0B5_
FNDA:131,_RNCNvNtCs6t3ktUJwJ8n_3x0x3api16find_by_cli_name0B5_
FNDA:3,_RNvNtCs6t3ktUJwJ8n_3x0x3api10categories
FNDA:20,_RNvNtCs6t3ktUJwJ8n_3x0x3api11by_category
FNDA:2,_RNvNtCs6t3ktUJwJ8n_3x0x3api16find_by_cli_name
FNDA:265,_RNvXNtCs6t3ktUJwJ8n_3x0x3apiNtB2_6MethodNtNtCsl8K0bEFm1U0_4core3fmt7Display3fmt
FNDA:1,_RNvNtNtCs6t3ktUJwJ8n_3x0x3api5testss_14method_display
FNDA:1,_RNvNtNtCs6t3ktUJwJ8n_3x0x3api5testss_20cli_names_are_unique
FNDA:1,_RNvNtNtCs6t3ktUJwJ8n_3x0x3api5testss_22endpoints_is_not_empty
FNDA:1,_RNvNtNtCs6t3ktUJwJ8n_3x0x3api5testss_27paths_are_unique_per_method
FNDA:1,_RNvNtNtCs6t3ktUJwJ8n_3x0x3api5testss_28categories_contains_expected
FNDA:1,_RNvNtNtCs6t3ktUJwJ8n_3x0x3api5testss_28every_path_starts_with_slash
FNDA:1,_RNvNtNtCs6t3ktUJwJ8n_3x0x3api5testss_31every_endpoint_has_valid_method
FNDA:1,_RNvNtNtCs6t3ktUJwJ8n_3x0x3api5testss_31find_by_cli_name_finds_existing
FNDA:1,_RNvNtNtCs6t3ktUJwJ8n_3x0x3api5testss_32by_category_returns_all_matching
FNDA:1,_RNvNtNtCs6t3ktUJwJ8n_3x0x3api5testss_35every_endpoint_has_non_empty_fields
FNDA:1,_RNvNtNtCs6t3ktUJwJ8n_3x0x3api5testss_37by_category_returns_empty_for_unknown
FNDA:1,_RNvNtNtCs6t3ktUJwJ8n_3x0x3api5testss_38categories_returns_unique_sorted_order
FNDA:1,_RNvNtNtCs6t3ktUJwJ8n_3x0x3api5testss_41find_by_cli_name_returns_none_for_unknown
FNF:19
FNH:19
DA:22,1482
DA:23,1482
DA:24,687
DA:25,567
DA:26,25
DA:27,63
DA:28,140
DA:30,1482
DA:990,2
DA:991,131
DA:992,2
DA:995,20
DA:996,20
DA:997,20
DA:998,2600
DA:999,20
DA:1000,20
DA:1003,3
DA:1004,3
DA:1005,390
DA:1006,390
DA:1007,54
DA:1008,336
DA:1010,3
DA:1011,3
DA:1018,1
DA:1019,1
DA:1020,1
DA:1023,1
DA:1024,130
DA:1025,130
DA:1026,130
DA:1027,130
DA:1028,130
DA:1030,1
DA:1033,1
DA:1034,130
DA:1035,130
DA:1036,130
DA:1042,1
DA:1045,1
DA:1046,1
DA:1047,1
DA:1048,1
DA:1049,1
DA:1050,1
DA:1053,1
DA:1056,1
DA:1057,130
DA:1058,130
DA:1059,130
DA:1060,130
DA:1066,1
DA:1069,1
DA:1070,1
DA:1071,1
DA:1072,1
DA:1073,1
DA:1076,1
DA:1077,1
DA:1078,1
DA:1081,1
DA:1082,1
DA:1083,1
DA:1084,5
DA:1085,5
DA:1087,1
DA:1090,1
DA:1091,1
DA:1092,1
DA:1093,1
DA:1096,1
DA:1097,1
DA:1098,1
DA:1100,1
DA:1101,1
DA:1102,1
DA:1103,1
DA:1104,1
DA:1107,1
DA:1108,1
DA:1109,1
DA:1110,1
DA:1111,1
DA:1112,1
DA:1113,1
DA:1116,1
DA:1117,130
DA:1118,130
DA:1119,130
DA:1122,1
DA:1125,1
DA:1126,1
DA:1127,1
DA:1128,1
DA:1129,1
DA:1130,1
DA:1131,1
DA:1132,1
DA:1133,1
DA:1134,1
DA:1135,1
DA:1136,1
DA:1137,1
DA:1138,1
DA:1139,1
DA:1140,1
DA:1141,1
DA:1142,1
DA:1143,1
DA:1144,1
DA:1145,1
BRF:0
BRH:0
LF:114
LH:114
end_of_record
SF:/Users/davidirvine/Desktop/Devel/projects/x0x/src/bin/gui_coverage.rs
FN:111,_RNCNvCs1fLALcsOeY2_12gui_coverage12call_matches0B3_
FN:91,_RNCNvCs1fLALcsOeY2_12gui_coverage12registry_key0B3_
FN:146,_RNCNvCs1fLALcsOeY2_12gui_coverage17extract_gui_calls0B3_
FN:565,_RNCNvCs1fLALcsOeY2_12gui_coverage17print_json_report0B3_
FN:573,_RNCNvCs1fLALcsOeY2_12gui_coverage17print_json_reports_0B3_
FN:329,_RNCNvCs1fLALcsOeY2_12gui_coverage18normalise_gui_path0B3_
FN:409,_RNCNvCs1fLALcsOeY2_12gui_coverage4main0B3_
FN:438,_RNCNvCs1fLALcsOeY2_12gui_coverage4mains0_0B3_
FN:451,_RNCNvCs1fLALcsOeY2_12gui_coverage4mains1_0B3_
FN:423,_RNCNvCs1fLALcsOeY2_12gui_coverage4mains_0B3_
FN:56,_RNCNvMCs1fLALcsOeY2_12gui_coverageNtB4_4Args5parse0B4_
FN:378,_RNvCs1fLALcsOeY2_12gui_coverage10method_str
FN:76,_RNvCs1fLALcsOeY2_12gui_coverage10print_help
FN:102,_RNvCs1fLALcsOeY2_12gui_coverage12call_matches
FN:89,_RNvCs1fLALcsOeY2_12gui_coverage12registry_key
FN:156,_RNvCs1fLALcsOeY2_12gui_coverage13is_ident_char
FN:337,_RNvCs1fLALcsOeY2_12gui_coverage14extract_method
FN:362,_RNvCs1fLALcsOeY2_12gui_coverage14load_whitelist
FN:199,_RNvCs1fLALcsOeY2_12gui_coverage14parse_api_args
FN:291,_RNvCs1fLALcsOeY2_12gui_coverage17collapse_template
FN:124,_RNvCs1fLALcsOeY2_12gui_coverage17extract_gui_calls
FN:543,_RNvCs1fLALcsOeY2_12gui_coverage17print_json_report
FN:321,_RNvCs1fLALcsOeY2_12gui_coverage18normalise_gui_path
FN:491,_RNvCs1fLALcsOeY2_12gui_coverage18print_human_report
FN:209,_RNvCs1fLALcsOeY2_12gui_coverage20first_string_literal
FN:162,_RNvCs1fLALcsOeY2_12gui_coverage20take_balanced_parens
FN:388,_RNvCs1fLALcsOeY2_12gui_coverage4main
FN:264,_RNvCs1fLALcsOeY2_12gui_coverage7skip_ws
FN:592,_RNvCs1fLALcsOeY2_12gui_coverage8json_str
FN:271,_RNvCs1fLALcsOeY2_12gui_coverage9skip_expr
FN:33,_RNvMCs1fLALcsOeY2_12gui_coverageNtB2_4Args5parse
FNDA:0,_RNCNvCs1fLALcsOeY2_12gui_coverage12call_matches0B3_
FNDA:0,_RNCNvCs1fLALcsOeY2_12gui_coverage12registry_key0B3_
FNDA:0,_RNCNvCs1fLALcsOeY2_12gui_coverage17extract_gui_calls0B3_
FNDA:0,_RNCNvCs1fLALcsOeY2_12gui_coverage17print_json_report0B3_
FNDA:0,_RNCNvCs1fLALcsOeY2_12gui_coverage17print_json_reports_0B3_
FNDA:0,_RNCNvCs1fLALcsOeY2_12gui_coverage18normalise_gui_path0B3_
FNDA:0,_RNCNvCs1fLALcsOeY2_12gui_coverage4main0B3_
FNDA:0,_RNCNvCs1fLALcsOeY2_12gui_coverage4mains0_0B3_
FNDA:0,_RNCNvCs1fLALcsOeY2_12gui_coverage4mains1_0B3_
FNDA:0,_RNCNvCs1fLALcsOeY2_12gui_coverage4mains_0B3_
FNDA:0,_RNCNvMCs1fLALcsOeY2_12gui_coverageNtB4_4Args5parse0B4_
FNDA:0,_RNvCs1fLALcsOeY2_12gui_coverage10method_str
FNDA:0,_RNvCs1fLALcsOeY2_12gui_coverage10print_help
FNDA:0,_RNvCs1fLALcsOeY2_12gui_coverage12call_matches
FNDA:0,_RNvCs1fLALcsOeY2_12gui_coverage12registry_key
FNDA:0,_RNvCs1fLALcsOeY2_12gui_coverage13is_ident_char
FNDA:0,_RNvCs1fLALcsOeY2_12gui_coverage14extract_method
FNDA:0,_RNvCs1fLALcsOeY2_12gui_coverage14load_whitelist
FNDA:0,_RNvCs1fLALcsOeY2_12gui_coverage14parse_api_args
FNDA:0,_RNvCs1fLALcsOeY2_12gui_coverage17collapse_template
FNDA:0,_RNvCs1fLALcsOeY2_12gui_coverage17extract_gui_calls
FNDA:0,_RNvCs1fLALcsOeY2_12gui_coverage17print_json_report
FNDA:0,_RNvCs1fLALcsOeY2_12gui_coverage18normalise_gui_path
FNDA:0,_RNvCs1fLALcsOeY2_12gui_coverage18print_human_report
FNDA:0,_RNvCs1fLALcsOeY2_12gui_coverage20first_string_literal
FNDA:0,_RNvCs1fLALcsOeY2_12gui_coverage20take_balanced_parens
FNDA:0,_RNvCs1fLALcsOeY2_12gui_coverage4main
FNDA:0,_RNvCs1fLALcsOeY2_12gui_coverage7skip_ws
FNDA:0,_RNvCs1fLALcsOeY2_12gui_coverage8json_str
FNDA:0,_RNvCs1fLALcsOeY2_12gui_coverage9skip_expr
FNDA:0,_RNvMCs1fLALcsOeY2_12gui_coverageNtB2_4Args5parse
FNF:31
FNH:0
DA:33,0
DA:34,0
DA:35,0
DA:36,0
DA:37,0
DA:39,0
DA:40,0
DA:41,0
DA:42,0
DA:43,0
DA:45,0
DA:46,0
DA:47,0
DA:48,0
DA:51,0
DA:52,0
DA:53,0
DA:54,0
DA:55,0
DA:56,0
DA:58,0
DA:59,0
DA:60,0
DA:61,0
DA:63,0
DA:67,0
DA:68,0
DA:69,0
DA:70,0
DA:71,0
DA:72,0
DA:73,0
DA:76,0
DA:77,0
DA:78,0
DA:79,0
DA:80,0
DA:81,0
DA:82,0
DA:83,0
DA:84,0
DA:85,0
DA:86,0
DA:89,0
DA:90,0
DA:91,0
DA:92,0
DA:93,0
DA:94,0
DA:102,0
DA:103,0
DA:104,0
DA:105,0
DA:106,0
DA:107,0
DA:108,0
DA:109,0
DA:110,0
DA:111,0
DA:112,0
DA:113,0
DA:115,0
DA:117,0
DA:118,0
DA:124,0
DA:125,0
DA:126,0
DA:127,0
DA:128,0
DA:129,0
DA:130,0
DA:131,0
DA:132,0
DA:133,0
DA:134,0
DA:135,0
DA:136,0
DA:137,0
DA:138,0
DA:139,0
DA:140,0
DA:142,0
DA:143,0
DA:146,0
DA:147,0
DA:149,0
DA:150,0
DA:151,0
DA:153,0
DA:154,0
DA:156,0
DA:157,0
DA:158,0
DA:162,0
DA:163,0
DA:164,0
DA:165,0
DA:166,0
DA:167,0
DA:168,0
DA:169,0
DA:170,0
DA:171,0
DA:172,0
DA:173,0
DA:174,0
DA:175,0
DA:176,0
DA:177,0
DA:178,0
DA:179,0
DA:180,0
DA:181,0
DA:182,0
DA:183,0
DA:184,0
DA:186,0
DA:187,0
DA:188,0
DA:189,0
DA:190,0
DA:192,0
DA:195,0
DA:196,0
DA:199,0
DA:200,0
DA:201,0
DA:202,0
DA:203,0
DA:204,0
DA:209,0
DA:210,0
DA:211,0
DA:212,0
DA:213,0
DA:214,0
DA:215,0
DA:216,0
DA:217,0
DA:218,0
DA:220,0
DA:221,0
DA:222,0
DA:223,0
DA:224,0
DA:226,0
DA:227,0
DA:228,0
DA:229,0
DA:230,0
DA:231,0
DA:232,0
DA:233,0
DA:234,0
DA:236,0
DA:237,0
DA:238,0
DA:239,0
DA:240,0
DA:242,0
DA:243,0
DA:244,0
DA:245,0
DA:247,0
DA:248,0
DA:249,0
DA:250,0
DA:251,0
DA:252,0
DA:253,0
DA:254,0
DA:255,0
DA:257,0
DA:258,0
DA:260,0
DA:262,0
DA:264,0
DA:265,0
DA:266,0
DA:267,0
DA:268,0
DA:269,0
DA:271,0
DA:272,0
DA:273,0
DA:274,0
DA:275,0
DA:277,0
DA:278,0
DA:279,0
DA:280,0
DA:282,0
DA:283,0
DA:285,0
DA:287,0
DA:288,0
DA:291,0
DA:292,0
DA:293,0
DA:294,0
DA:295,0
DA:296,0
DA:297,0
DA:298,0
DA:299,0
DA:300,0
DA:301,0
DA:302,0
DA:303,0
DA:305,0
DA:307,0
DA:308,0
DA:309,0
DA:310,0
DA:311,0
DA:313,0
DA:314,0
DA:321,0
DA:322,0
DA:323,0
DA:324,0
DA:325,0
DA:326,0
DA:327,0
DA:329,0
DA:330,0
DA:331,0
DA:332,0
DA:333,0
DA:337,0
DA:338,0
DA:339,0
DA:340,0
DA:341,0
DA:342,0
DA:343,0
DA:344,0
DA:345,0
DA:346,0
DA:347,0
DA:348,0
DA:349,0
DA:350,0
DA:351,0
DA:352,0
DA:353,0
DA:356,0
DA:357,0
DA:358,0
DA:359,0
DA:360,0
DA:362,0
DA:363,0
DA:364,0
DA:365,0
DA:366,0
DA:368,0
DA:369,0
DA:370,0
DA:371,0
DA:372,0
DA:373,0
DA:375,0
DA:376,0
DA:378,0
DA:379,0
DA:380,0
DA:381,0
DA:382,0
DA:383,0
DA:384,0
DA:386,0
DA:388,0
DA:389,0
DA:390,0
DA:391,0
DA:392,0
DA:393,0
DA:397,0
DA:398,0
DA:399,0
DA:400,0
DA:401,0
DA:405,0
DA:407,0
DA:408,0
DA:409,0
DA:410,0
DA:411,0
DA:412,0
DA:413,0
DA:414,0
DA:415,0
DA:417,0
DA:418,0
DA:420,0
DA:421,0
DA:422,0
DA:423,0
DA:424,0
DA:425,0
DA:426,0
DA:427,0
DA:428,0
DA:429,0
DA:430,0
DA:431,0
DA:435,0
DA:436,0
DA:437,0
DA:438,0
DA:439,0
DA:440,0
DA:441,0
DA:442,0
DA:443,0
DA:444,0
DA:446,0
DA:449,0
DA:450,0
DA:451,0
DA:452,0
DA:453,0
DA:455,0
DA:457,0
DA:458,0
DA:459,0
DA:460,0
DA:461,0
DA:462,0
DA:463,0
DA:464,0
DA:465,0
DA:466,0
DA:467,0
DA:468,0
DA:469,0
DA:470,0
DA:471,0
DA:472,0
DA:473,0
DA:474,0
DA:475,0
DA:476,0
DA:477,0
DA:478,0
DA:479,0
DA:480,0
DA:481,0
DA:483,0
DA:484,0
DA:486,0
DA:488,0
DA:491,0
DA:492,0
DA:493,0
DA:494,0
DA:495,0
DA:496,0
DA:497,0
DA:498,0
DA:499,0
DA:500,0
DA:501,0
DA:502,0
DA:503,0
DA:504,0
DA:505,0
DA:506,0
DA:507,0
DA:508,0
DA:509,0
DA:511,0
DA:512,0
DA:513,0
DA:514,0
DA:515,0
DA:516,0
DA:517,0
DA:519,0
DA:520,0
DA:521,0
DA:522,0
DA:523,0
DA:524,0
DA:525,0
DA:527,0
DA:528,0
DA:529,0
DA:530,0
DA:531,0
DA:532,0
DA:533,0
DA:535,0
DA:536,0
DA:537,0
DA:538,0
DA:539,0
DA:540,0
DA:543,0
DA:544,0
DA:545,0
DA:546,0
DA:547,0
DA:548,0
DA:549,0
DA:550,0
DA:551,0
DA:552,0
DA:553,0
DA:554,0
DA:555,0
DA:556,0
DA:557,0
DA:558,0
DA:559,0
DA:560,0
DA:561,0
DA:563,0
DA:564,0
DA:565,0
DA:566,0
DA:567,0
DA:569,0
DA:571,0
DA:572,0
DA:573,0
DA:574,0
DA:575,0
DA:577,0
DA:578,0
DA:579,0
DA:580,0
DA:581,0
DA:582,0
DA:583,0
DA:584,0
DA:585,0
DA:586,0
DA:588,0
DA:589,0
DA:590,0
DA:592,0
DA:593,0
DA:594,0
DA:595,0
DA:596,0
DA:597,0
DA:598,0
DA:599,0
DA:600,0
DA:601,0
DA:604,0
DA:605,0
DA:606,0
BRF:0
BRH:0
LF:466
LH:0
end_of_record
SF:/Users/davidirvine/Desktop/Devel/projects/x0x/src/bin/x0x-keygen.rs
FN:256,_RNvCsekceFLpehK1_10x0x_keygen17generate_manifest
FN:105,_RNvCsekceFLpehK1_10x0x_keygen4main
FN:232,_RNCNvCsekceFLpehK1_10x0x_keygen4main0B3_
FNDA:0,_RNvCsekceFLpehK1_10x0x_keygen17generate_manifest
FNDA:0,_RNvCsekceFLpehK1_10x0x_keygen4main
FNDA:0,_RNCNvCsekceFLpehK1_10x0x_keygen4main0B3_
FNF:3
FNH:0
DA:105,0
DA:106,0
DA:108,0
DA:109,0
DA:110,0
DA:111,0
DA:114,0
DA:118,0
DA:122,0
DA:123,0
DA:125,0
DA:126,0
DA:127,0
DA:128,0
DA:130,0
DA:134,0
DA:135,0
DA:136,0
DA:137,0
DA:139,0
DA:140,0
DA:141,0
DA:143,0
DA:144,0
DA:146,0
DA:147,0
DA:149,0
DA:150,0
DA:151,0
DA:155,0
DA:156,0
DA:157,0
DA:158,0
DA:160,0
DA:161,0
DA:162,0
DA:163,0
DA:164,0
DA:166,0
DA:167,0
DA:169,0
DA:170,0
DA:171,0
DA:172,0
DA:173,0
DA:176,0
DA:177,0
DA:178,0
DA:185,0
DA:186,0
DA:187,0
DA:188,0
DA:189,0
DA:194,0
DA:195,0
DA:196,0
DA:197,0
DA:198,0
DA:199,0
DA:200,0
DA:204,0
DA:205,0
DA:206,0
DA:207,0
DA:208,0
DA:210,0
DA:212,0
DA:213,0
DA:214,0
DA:215,0
DA:216,0
DA:217,0
DA:218,0
DA:219,0
DA:220,0
DA:222,0
DA:223,0
DA:225,0
DA:227,0
DA:229,0
DA:231,0
DA:232,0
DA:233,0
DA:234,0
DA:235,0
DA:236,0
DA:237,0
DA:239,0
DA:243,0
DA:244,0
DA:256,0
DA:257,0
DA:258,0
DA:259,0
DA:260,0
DA:261,0
DA:262,0
DA:263,0
DA:264,0
DA:265,0
DA:267,0
DA:268,0
DA:269,0
DA:270,0
DA:271,0
DA:272,0
DA:273,0
DA:274,0
DA:276,0
DA:277,0
DA:279,0
DA:280,0
DA:281,0
DA:283,0
DA:284,0
DA:285,0
DA:286,0
DA:287,0
DA:288,0
DA:290,0
DA:292,0
DA:296,0
DA:297,0
DA:298,0
DA:301,0
DA:302,0
DA:303,0
DA:305,0
DA:306,0
DA:307,0
DA:308,0
DA:310,0
DA:311,0
DA:312,0
DA:313,0
DA:314,0
DA:315,0
DA:316,0
DA:317,0
DA:319,0
DA:322,0
DA:323,0
DA:324,0
DA:325,0
DA:326,0
DA:327,0
DA:330,0
DA:331,0
DA:332,0
DA:333,0
DA:335,0
DA:336,0
DA:337,0
DA:338,0
DA:339,0
DA:341,0
DA:342,0
BRF:0
BRH:0
LF:158
LH:0
end_of_record
SF:/Users/davidirvine/Desktop/Devel/projects/x0x/src/bin/x0x-user-keygen.rs
FN:5,_RNvCs5TxQAWhy4q8_15x0x_user_keygen4main
FN:12,_RNCNCNvCs5TxQAWhy4q8_15x0x_user_keygen4main00B5_
FN:16,_RNCNCNvCs5TxQAWhy4q8_15x0x_user_keygen4main0s_0B5_
FN:5,_RNCNvCs5TxQAWhy4q8_15x0x_user_keygen4main0B3_
FN:12,_RNCNCNvCsgGFAEixiBR6_15x0x_user_keygen4main00B5_
FN:16,_RNCNCNvCsgGFAEixiBR6_15x0x_user_keygen4main0s_0B5_
FN:5,_RNCNvCsgGFAEixiBR6_15x0x_user_keygen4main0B3_
FN:5,_RNvCsgGFAEixiBR6_15x0x_user_keygen4main
FNDA:0,_RNvCs5TxQAWhy4q8_15x0x_user_keygen4main
FNDA:0,_RNCNCNvCs5TxQAWhy4q8_15x0x_user_keygen4main00B5_
FNDA:0,_RNCNCNvCs5TxQAWhy4q8_15x0x_user_keygen4main0s_0B5_
FNDA:0,_RNCNvCs5TxQAWhy4q8_15x0x_user_keygen4main0B3_
FNDA:0,_RNCNCNvCsgGFAEixiBR6_15x0x_user_keygen4main00B5_
FNDA:0,_RNCNCNvCsgGFAEixiBR6_15x0x_user_keygen4main0s_0B5_
FNDA:0,_RNCNvCsgGFAEixiBR6_15x0x_user_keygen4main0B3_
FNDA:0,_RNvCsgGFAEixiBR6_15x0x_user_keygen4main
FNF:4
FNH:0
DA:5,0
DA:6,0
DA:7,0
DA:8,0
DA:9,0
DA:11,0
DA:12,0
DA:14,0
DA:15,0
DA:16,0
DA:18,0
DA:19,0
DA:20,0
BRF:0
BRH:0
LF:17
LH:0
end_of_record
SF:/Users/davidirvine/Desktop/Devel/projects/x0x/src/bin/x0x.rs
FN:1566,_RNvCs5QAFX38X3cc_3x0x18print_command_tree
FN:1029,_RNvCs5QAFX38X3cc_3x0x3run
FN:1003,_RNvCs5QAFX38X3cc_3x0x4main
FN:1769,_RNvCs5QAFX38X3cc_3x0x5purge
FN:1697,_RNvCs5QAFX38X3cc_3x0x9uninstall
FN:1453,_RNCNCNvCs5QAFX38X3cc_3x0x3run00B5_
FN:1780,_RNCNCNvCs5QAFX38X3cc_3x0x5purge00B5_
FN:1812,_RNCNCNvCs5QAFX38X3cc_3x0x5purge0s0_0B5_
FN:1790,_RNCNCNvCs5QAFX38X3cc_3x0x5purge0s_0B5_
FN:1706,_RNCNCNvCs5QAFX38X3cc_3x0x9uninstall00B5_
FN:1721,_RNCNCNvCs5QAFX38X3cc_3x0x9uninstall0s0_0B5_
FN:1717,_RNCNCNvCs5QAFX38X3cc_3x0x9uninstall0s_0B5_
FN:1034,_RNCNvCs5QAFX38X3cc_3x0x3run0B3_
FN:1003,_RNCNvCs5QAFX38X3cc_3x0x4main0B3_
FN:1769,_RNCNvCs5QAFX38X3cc_3x0x5purge0B3_
FN:1697,_RNCNvCs5QAFX38X3cc_3x0x9uninstall0B3_
FNDA:0,_RNvCs5QAFX38X3cc_3x0x18print_command_tree
FNDA:2,_RNvCs5QAFX38X3cc_3x0x3run
FNDA:133,_RNvCs5QAFX38X3cc_3x0x4main
FNDA:0,_RNvCs5QAFX38X3cc_3x0x5purge
FNDA:0,_RNvCs5QAFX38X3cc_3x0x9uninstall
FNDA:0,_RNCNCNvCs5QAFX38X3cc_3x0x3run00B5_
FNDA:0,_RNCNCNvCs5QAFX38X3cc_3x0x5purge00B5_
FNDA:0,_RNCNCNvCs5QAFX38X3cc_3x0x5purge0s0_0B5_
FNDA:0,_RNCNCNvCs5QAFX38X3cc_3x0x5purge0s_0B5_
FNDA:0,_RNCNCNvCs5QAFX38X3cc_3x0x9uninstall00B5_
FNDA:0,_RNCNCNvCs5QAFX38X3cc_3x0x9uninstall0s0_0B5_
FNDA:0,_RNCNCNvCs5QAFX38X3cc_3x0x9uninstall0s_0B5_
FNDA:2,_RNCNvCs5QAFX38X3cc_3x0x3run0B3_
FNDA:133,_RNCNvCs5QAFX38X3cc_3x0x4main0B3_
FNDA:0,_RNCNvCs5QAFX38X3cc_3x0x5purge0B3_
FNDA:0,_RNCNvCs5QAFX38X3cc_3x0x9uninstall0B3_
FNF:16
FNH:4
DA:1003,133
DA:1004,133
DA:1006,133
DA:1007,131
DA:1009,2
DA:1012,133
DA:1014,133
DA:1015,133
DA:1016,133
DA:1017,133
DA:1018,133
DA:1019,133
DA:1020,133
DA:1021,133
DA:1022,133
DA:1023,133
DA:1024,133
DA:1025,133
DA:1026,133
DA:1027,133
DA:1029,2
DA:1030,2
DA:1031,2
DA:1032,2
DA:1033,2
DA:1034,2
DA:1036,2
DA:1037,0
DA:1038,0
DA:1039,0
DA:1040,0
DA:1041,0
DA:1042,0
DA:1045,0
DA:1047,0
DA:1049,0
DA:1051,0
DA:1052,0
DA:1053,0
DA:1055,0
DA:1056,0
DA:1057,0
DA:1059,0
DA:1062,2
DA:1065,2
DA:1068,2
DA:1071,0
DA:1072,0
DA:1073,0
DA:1075,0
DA:1078,0
DA:1100,0
DA:1101,0
DA:1102,0
DA:1103,0
DA:1105,0
DA:1106,0
DA:1107,0
DA:1108,0
DA:1109,0
DA:1111,0
DA:1112,0
DA:1113,0
DA:1114,0
DA:1115,0
DA:1116,0
DA:1120,0
DA:1121,0
DA:1122,0
DA:1123,0
DA:1124,0
DA:1125,0
DA:1126,0
DA:1127,0
DA:1130,0
DA:1131,0
DA:1132,0
DA:1133,0
DA:1134,0
DA:1135,0
DA:1137,0
DA:1138,0
DA:1139,0
DA:1141,0
DA:1143,0
DA:1144,0
DA:1145,0
DA:1146,0
DA:1147,0
DA:1149,0
DA:1151,0
DA:1153,0
DA:1154,0
DA:1155,0
DA:1156,0
DA:1157,0
DA:1159,0
DA:1160,0
DA:1161,0
DA:1162,0
DA:1163,0
DA:1164,0
DA:1166,0
DA:1167,0
DA:1169,0
DA:1170,0
DA:1172,0
DA:1173,0
DA:1175,0
DA:1176,0
DA:1178,0
DA:1179,0
DA:1182,0
DA:1183,0
DA:1184,0
DA:1186,0
DA:1187,0
DA:1188,0
DA:1189,0
DA:1191,0
DA:1192,0
DA:1193,0
DA:1195,0
DA:1196,0
DA:1197,0
DA:1198,0
DA:1199,0
DA:1200,0
DA:1201,0
DA:1203,0
DA:1204,0
DA:1206,0
DA:1207,0
DA:1209,0
DA:1210,0
DA:1213,0
DA:1214,0
DA:1215,0
DA:1217,0
DA:1218,0
DA:1220,0
DA:1221,0
DA:1222,0
DA:1224,0
DA:1226,0
DA:1227,0
DA:1228,0
DA:1229,0
DA:1231,0
DA:1232,0
DA:1233,0
DA:1235,0
DA:1236,0
DA:1237,0
DA:1239,0
DA:1240,0
DA:1241,0
DA:1243,0
DA:1244,0
DA:1245,0
DA:1248,0
DA:1249,0
DA:1250,0
DA:1252,0
DA:1253,0
DA:1255,0
DA:1256,0
DA:1257,0
DA:1259,0
DA:1260,0
DA:1261,0
DA:1262,0
DA:1263,0
DA:1265,0
DA:1266,0
DA:1267,0
DA:1268,0
DA:1269,0
DA:1271,0
DA:1272,0
DA:1273,0
DA:1275,0
DA:1276,0
DA:1278,0
DA:1281,0
DA:1282,0
DA:1284,0
DA:1285,0
DA:1286,0
DA:1287,0
DA:1288,0
DA:1289,0
DA:1291,0
DA:1292,0
DA:1293,0
DA:1294,0
DA:1295,0
DA:1297,0
DA:1298,0
DA:1299,0
DA:1301,0
DA:1302,0
DA:1304,0
DA:1305,0
DA:1308,0
DA:1309,0
DA:1310,0
DA:1311,0
DA:1312,0
DA:1313,0
DA:1316,2
DA:1317,0
DA:1318,0
DA:1320,0
DA:1321,0
DA:1322,0
DA:1323,0
DA:1325,0
DA:1326,0
DA:1327,0
DA:1328,0
DA:1329,0
DA:1330,0
DA:1331,0
DA:1332,0
DA:1334,0
DA:1335,0
DA:1336,0
DA:1339,0
DA:1340,0
DA:1341,0
DA:1343,0
DA:1344,0
DA:1346,0
DA:1347,0
DA:1349,0
DA:1350,0
DA:1353,0
DA:1354,0
DA:1355,0
DA:1356,0
DA:1357,0
DA:1359,0
DA:1361,1
DA:1362,1
DA:1363,1
DA:1365,1
DA:1366,1
DA:1369,1
DA:1370,1
DA:1371,1
DA:1372,1
DA:1373,1
DA:1374,1
DA:1375,1
DA:1377,1
DA:1378,1
DA:1379,1
DA:1380,1
DA:1381,1
DA:1382,1
DA:1383,1
DA:1384,1
DA:1385,1
DA:1386,1
DA:1387,1
DA:1390,0
DA:1391,0
DA:1392,0
DA:1393,0
DA:1394,0
DA:1395,0
DA:1397,0
DA:1398,0
DA:1400,0
DA:1401,0
DA:1403,0
DA:1404,0
DA:1407,0
DA:1408,0
DA:1409,0
DA:1411,0
DA:1412,0
DA:1413,0
DA:1415,0
DA:1416,0
DA:1417,0
DA:1418,0
DA:1419,0
DA:1421,0
DA:1423,0
DA:1425,0
DA:1426,0
DA:1428,0
DA:1429,0
DA:1431,0
DA:1432,0
DA:1433,0
DA:1436,0
DA:1437,0
DA:1438,0
DA:1439,0
DA:1440,0
DA:1441,0
DA:1443,0
DA:1444,0
DA:1445,0
DA:1447,0
DA:1448,0
DA:1450,0
DA:1451,0
DA:1452,0
DA:1453,0
DA:1455,0
DA:1457,0
DA:1460,0
DA:1461,0
DA:1462,0
DA:1463,0
DA:1465,0
DA:1466,0
DA:1467,0
DA:1468,0
DA:1469,0
DA:1470,0
DA:1471,0
DA:1472,0
DA:1475,0
DA:1476,0
DA:1477,0
DA:1478,0
DA:1479,0
DA:1482,0
DA:1483,0
DA:1484,0
DA:1485,0
DA:1486,0
DA:1488,0
DA:1489,0
DA:1491,0
DA:1492,0
DA:1493,0
DA:1494,0
DA:1496,0
DA:1497,0
DA:1499,0
DA:1500,0
DA:1502,0
DA:1503,0
DA:1506,0
DA:1507,0
DA:1508,0
DA:1509,0
DA:1510,0
DA:1512,0
DA:1514,0
DA:1515,0
DA:1516,0
DA:1517,0
DA:1518,0
DA:1519,0
DA:1521,0
DA:1522,0
DA:1525,0
DA:1526,0
DA:1527,0
DA:1528,0
DA:1530,0
DA:1531,0
DA:1532,0
DA:1533,0
DA:1536,0
DA:1537,0
DA:1539,0
DA:1540,0
DA:1542,0
DA:1543,0
DA:1544,0
DA:1546,0
DA:1547,0
DA:1550,0
DA:1551,0
DA:1552,0
DA:1560,0
DA:1562,2
DA:1566,0
DA:1567,0
DA:1568,0
DA:1569,0
DA:1570,0
DA:1571,0
DA:1572,0
DA:1573,0
DA:1574,0
DA:1575,0
DA:1576,0
DA:1577,0
DA:1578,0
DA:1579,0
DA:1580,0
DA:1581,0
DA:1582,0
DA:1583,0
DA:1584,0
DA:1585,0
DA:1586,0
DA:1587,0
DA:1588,0
DA:1589,0
DA:1590,0
DA:1591,0
DA:1592,0
DA:1593,0
DA:1594,0
DA:1595,0
DA:1596,0
DA:1597,0
DA:1598,0
DA:1599,0
DA:1600,0
DA:1601,0
DA:1602,0
DA:1603,0
DA:1604,0
DA:1605,0
DA:1606,0
DA:1607,0
DA:1608,0
DA:1609,0
DA:1610,0
DA:1611,0
DA:1612,0
DA:1613,0
DA:1614,0
DA:1615,0
DA:1616,0
DA:1617,0
DA:1618,0
DA:1619,0
DA:1620,0
DA:1621,0
DA:1622,0
DA:1623,0
DA:1624,0
DA:1625,0
DA:1626,0
DA:1627,0
DA:1628,0
DA:1629,0
DA:1630,0
DA:1631,0
DA:1632,0
DA:1633,0
DA:1634,0
DA:1635,0
DA:1636,0
DA:1637,0
DA:1638,0
DA:1639,0
DA:1640,0
DA:1641,0
DA:1642,0
DA:1643,0
DA:1644,0
DA:1645,0
DA:1646,0
DA:1647,0
DA:1648,0
DA:1649,0
DA:1650,0
DA:1651,0
DA:1652,0
DA:1653,0
DA:1654,0
DA:1655,0
DA:1656,0
DA:1657,0
DA:1658,0
DA:1659,0
DA:1660,0
DA:1661,0
DA:1662,0
DA:1663,0
DA:1664,0
DA:1665,0
DA:1666,0
DA:1667,0
DA:1668,0
DA:1669,0
DA:1670,0
DA:1671,0
DA:1672,0
DA:1673,0
DA:1674,0
DA:1675,0
DA:1676,0
DA:1677,0
DA:1678,0
DA:1679,0
DA:1680,0
DA:1681,0
DA:1682,0
DA:1683,0
DA:1684,0
DA:1685,0
DA:1686,0
DA:1687,0
DA:1688,0
DA:1689,0
DA:1690,0
DA:1691,0
DA:1692,0
DA:1693,0
DA:1697,0
DA:1698,0
DA:1699,0
DA:1700,0
DA:1701,0
DA:1702,0
DA:1705,0
DA:1706,0
DA:1708,0
DA:1709,0
DA:1710,0
DA:1711,0
DA:1712,0
DA:1713,0
DA:1714,0
DA:1717,0
DA:1718,0
DA:1719,0
DA:1720,0
DA:1721,0
DA:1722,0
DA:1723,0
DA:1724,0
DA:1725,0
DA:1727,0
DA:1728,0
DA:1729,0
DA:1730,0
DA:1731,0
DA:1732,0
DA:1733,0
DA:1734,0
DA:1737,0
DA:1738,0
DA:1739,0
DA:1740,0
DA:1741,0
DA:1744,0
DA:1745,0
DA:1746,0
DA:1747,0
DA:1748,0
DA:1751,0
DA:1752,0
DA:1753,0
DA:1754,0
DA:1755,0
DA:1756,0
DA:1758,0
DA:1759,0
DA:1761,0
DA:1762,0
DA:1763,0
DA:1764,0
DA:1765,0
DA:1769,0
DA:1770,0
DA:1771,0
DA:1772,0
DA:1773,0
DA:1774,0
DA:1775,0
DA:1777,0
DA:1780,0
DA:1781,0
DA:1782,0
DA:1783,0
DA:1784,0
DA:1785,0
DA:1786,0
DA:1787,0
DA:1788,0
DA:1790,0
DA:1791,0
DA:1792,0
DA:1793,0
DA:1794,0
DA:1795,0
DA:1796,0
DA:1797,0
DA:1798,0
DA:1800,0
DA:1801,0
DA:1802,0
DA:1803,0
DA:1804,0
DA:1805,0
DA:1806,0
DA:1807,0
DA:1809,0
DA:1811,0
DA:1812,0
DA:1813,0
DA:1814,0
DA:1815,0
DA:1816,0
DA:1817,0
DA:1818,0
DA:1820,0
DA:1821,0
DA:1822,0
DA:1823,0
DA:1824,0
DA:1827,0
DA:1828,0
DA:1829,0
DA:1830,0
DA:1831,0
DA:1832,0
DA:1833,0
DA:1834,0
DA:1835,0
DA:1836,0
DA:1839,0
DA:1840,0
DA:1841,0
DA:1842,0
DA:1843,0
DA:1844,0
DA:1845,0
DA:1846,0
DA:1847,0
DA:1850,0
DA:1851,0
DA:1852,0
DA:1854,0
DA:1855,0
DA:1856,0
DA:1857,0
DA:1858,0
DA:1859,0
DA:1860,0
DA:1862,0
DA:1865,0
DA:1868,0
DA:1870,0
DA:1871,0
DA:1872,0
DA:1873,0
DA:1874,0
DA:1875,0
DA:1876,0
DA:1879,0
DA:1880,0
DA:1881,0
DA:1882,0
DA:1883,0
DA:1884,0
DA:1886,0
DA:1887,0
DA:1888,0
DA:1889,0
DA:1890,0
DA:1892,0
DA:1893,0
DA:1894,0
DA:1895,0
DA:1896,0
DA:1898,0
DA:1902,0
DA:1903,0
DA:1904,0
DA:1905,0
DA:1906,0
DA:1907,0
DA:1908,0
DA:1909,0
DA:1911,0
DA:1912,0
DA:1913,0
DA:1914,0
DA:1915,0
BRF:0
BRH:0
LF:705
LH:63
end_of_record
SF:/Users/davidirvine/Desktop/Devel/projects/x0x/src/bin/x0xd.rs
FN:75,_RINvCsgotNrKHkAGC_4x0xd19parse_optional_jsonNtB2_19CreateInviteRequestEB2_
FN:75,_RINvCsgotNrKHkAGC_4x0xd19parse_optional_jsonNtB2_23AnnounceIdentityRequestEB2_
FN:6258,_RINvCsgotNrKHkAGC_4x0xd29apply_stateful_event_to_groupNCNCNvB2_32apply_named_group_metadata_event0s0_0EB2_
FN:6258,_RINvCsgotNrKHkAGC_4x0xd29apply_stateful_event_to_groupNCNCNvB2_32apply_named_group_metadata_event0s1_0EB2_
FN:6258,_RINvCsgotNrKHkAGC_4x0xd29apply_stateful_event_to_groupNCNCNvB2_32apply_named_group_metadata_event0s2_0EB2_
FN:6258,_RINvCsgotNrKHkAGC_4x0xd29apply_stateful_event_to_groupNCNCNvB2_32apply_named_group_metadata_event0s4_0EB2_
FN:6258,_RINvCsgotNrKHkAGC_4x0xd29apply_stateful_event_to_groupNCNCNvB2_32apply_named_group_metadata_event0s6_0EB2_
FN:6258,_RINvCsgotNrKHkAGC_4x0xd29apply_stateful_event_to_groupNCNCNvB2_32apply_named_group_metadata_event0s8_0EB2_
FN:6258,_RINvCsgotNrKHkAGC_4x0xd29apply_stateful_event_to_groupNCNCNvB2_32apply_named_group_metadata_event0s_0EB2_
FN:6258,_RINvCsgotNrKHkAGC_4x0xd29apply_stateful_event_to_groupNCNCNvB2_32apply_named_group_metadata_event0sa_0EB2_
FN:6258,_RINvCsgotNrKHkAGC_4x0xd29apply_stateful_event_to_groupNCNCNvB2_32apply_named_group_metadata_event0sc_0EB2_
FN:6258,_RINvCsgotNrKHkAGC_4x0xd29apply_stateful_event_to_groupNCNCNvB2_32apply_named_group_metadata_event0se_0EB2_
FN:6258,_RINvCsgotNrKHkAGC_4x0xd29apply_stateful_event_to_groupNCNCNvB2_32apply_named_group_metadata_event0sf_0EB2_
FN:6258,_RINvCsgotNrKHkAGC_4x0xd29apply_stateful_event_to_groupNCNCNvB2_32apply_named_group_metadata_event0sh_0EB2_
FN:12538,_RINvCsgotNrKHkAGC_4x0xd32augment_pubsub_stage_diagnosticsNtCs1A7Ozfhzzdv_20saorsa_gossip_pubsub24PubSubStageStatsSnapshotEB2_
FN:84,_RNCINvCsgotNrKHkAGC_4x0xd19parse_optional_jsonNtB4_19CreateInviteRequestE0B4_
FN:97,_RNCINvCsgotNrKHkAGC_4x0xd19parse_optional_jsonNtB4_19CreateInviteRequestEs0_0B4_
FN:85,_RNCINvCsgotNrKHkAGC_4x0xd19parse_optional_jsonNtB4_19CreateInviteRequestEs_0B4_
FN:84,_RNCINvCsgotNrKHkAGC_4x0xd19parse_optional_jsonNtB4_23AnnounceIdentityRequestE0B4_
FN:97,_RNCINvCsgotNrKHkAGC_4x0xd19parse_optional_jsonNtB4_23AnnounceIdentityRequestEs0_0B4_
FN:85,_RNCINvCsgotNrKHkAGC_4x0xd19parse_optional_jsonNtB4_23AnnounceIdentityRequestEs_0B4_
FN:12551,_RNCINvCsgotNrKHkAGC_4x0xd32augment_pubsub_stage_diagnosticsNtCs1A7Ozfhzzdv_20saorsa_gossip_pubsub24PubSubStageStatsSnapshotE0B4_
FN:12588,_RNCINvCsgotNrKHkAGC_4x0xd32augment_pubsub_stage_diagnosticsNtCs1A7Ozfhzzdv_20saorsa_gossip_pubsub24PubSubStageStatsSnapshotEs0_0B4_
FN:12651,_RNCINvCsgotNrKHkAGC_4x0xd32augment_pubsub_stage_diagnosticsNtCs1A7Ozfhzzdv_20saorsa_gossip_pubsub24PubSubStageStatsSnapshotEs1_0B4_
FN:12616,_RNCINvCsgotNrKHkAGC_4x0xd32augment_pubsub_stage_diagnosticsNtCs1A7Ozfhzzdv_20saorsa_gossip_pubsub24PubSubStageStatsSnapshotEs2_0B4_
FN:12620,_RNCINvCsgotNrKHkAGC_4x0xd32augment_pubsub_stage_diagnosticsNtCs1A7Ozfhzzdv_20saorsa_gossip_pubsub24PubSubStageStatsSnapshotEs3_0B4_
FN:12624,_RNCINvCsgotNrKHkAGC_4x0xd32augment_pubsub_stage_diagnosticsNtCs1A7Ozfhzzdv_20saorsa_gossip_pubsub24PubSubStageStatsSnapshotEs4_0B4_
FN:12628,_RNCINvCsgotNrKHkAGC_4x0xd32augment_pubsub_stage_diagnosticsNtCs1A7Ozfhzzdv_20saorsa_gossip_pubsub24PubSubStageStatsSnapshotEs5_0B4_
FN:12575,_RNCINvCsgotNrKHkAGC_4x0xd32augment_pubsub_stage_diagnosticsNtCs1A7Ozfhzzdv_20saorsa_gossip_pubsub24PubSubStageStatsSnapshotEs_0B4_
FN:7939,_RNCNCNCNCNvCsgotNrKHkAGC_4x0xd21ingest_public_message0000B9_
FN:10817,_RNCNCNCNvCsgotNrKHkAGC_4x0xd10list_tasks000B7_
FN:2666,_RNCNCNCNvCsgotNrKHkAGC_4x0xd10run_doctor0s1_00B7_
FN:3593,_RNCNCNCNvCsgotNrKHkAGC_4x0xd12introduction000B7_
FN:9913,_RNCNCNCNvCsgotNrKHkAGC_4x0xd15discover_groups0s_00B7_
FN:4315,_RNCNCNCNvCsgotNrKHkAGC_4x0xd15presence_events00s_0B7_
FN:5880,_RNCNCNCNvCsgotNrKHkAGC_4x0xd15respond_to_pull000B7_
FN:12084,_RNCNCNCNvCsgotNrKHkAGC_4x0xd16list_revocations000B7_
FN:11649,_RNCNCNCNvCsgotNrKHkAGC_4x0xd17direct_events_sse0s_0s1_0B7_
FN:13453,_RNCNCNCNvCsgotNrKHkAGC_4x0xd17handle_ws_command000B7_
FN:13981,_RNCNCNCNvCsgotNrKHkAGC_4x0xd18stream_file_chunks000B7_
FN:13182,_RNCNCNCNvCsgotNrKHkAGC_4x0xd19peer_events_handler00s_0B7_
FN:9632,_RNCNCNCNvCsgotNrKHkAGC_4x0xd20approve_join_request000B7_
FN:13313,_RNCNCNCNvCsgotNrKHkAGC_4x0xd20handle_ws_connection0s_00B7_
FN:7936,_RNCNCNCNvCsgotNrKHkAGC_4x0xd21ingest_public_message000B7_
FN:6759,_RNCNCNCNvCsgotNrKHkAGC_4x0xd32apply_named_group_metadata_event0sa_00B7_
FN:6763,_RNCNCNCNvCsgotNrKHkAGC_4x0xd32apply_named_group_metadata_event0sa_0s_0B7_
FN:1568,_RNCNCNCNvCsgotNrKHkAGC_4x0xd4main0sf_00B7_
FN:1571,_RNCNCNCNvCsgotNrKHkAGC_4x0xd4main0sf_0s_0B7_
FN:1983,_RNCNCNCNvCsgotNrKHkAGC_4x0xd4main0so_00B7_
FN:4029,_RNCNCNCNvCsgotNrKHkAGC_4x0xd9subscribe00s0_0B7_
FN:4027,_RNCNCNCNvCsgotNrKHkAGC_4x0xd9subscribe00s_0B7_
FN:3492,_RNCNCNvCsgotNrKHkAGC_4x0xd10agent_info00B5_
FN:11994,_RNCNCNvCsgotNrKHkAGC_4x0xd10find_agent00B5_
FN:10813,_RNCNCNvCsgotNrKHkAGC_4x0xd10list_tasks00B5_
FN:2645,_RNCNCNvCsgotNrKHkAGC_4x0xd10run_doctor00B5_
FN:2650,_RNCNCNvCsgotNrKHkAGC_4x0xd10run_doctor0s0_0B5_
FN:2666,_RNCNCNvCsgotNrKHkAGC_4x0xd10run_doctor0s1_0B5_
FN:2690,_RNCNCNvCsgotNrKHkAGC_4x0xd10run_doctor0s2_0B5_
FN:2711,_RNCNCNvCsgotNrKHkAGC_4x0xd10run_doctor0s3_0B5_
FN:2712,_RNCNCNvCsgotNrKHkAGC_4x0xd10run_doctor0s4_0B5_
FN:2728,_RNCNCNvCsgotNrKHkAGC_4x0xd10run_doctor0s5_0B5_
FN:2646,_RNCNCNvCsgotNrKHkAGC_4x0xd10run_doctor0s_0B5_
FN:13208,_RNCNCNvCsgotNrKHkAGC_4x0xd10ws_handler00B5_
FN:4808,_RNCNCNvCsgotNrKHkAGC_4x0xd11add_contact00B5_
FN:4967,_RNCNCNvCsgotNrKHkAGC_4x0xd11add_machine00B5_
FN:4973,_RNCNCNvCsgotNrKHkAGC_4x0xd11add_machine0s0_0B5_
FN:13641,_RNCNCNvCsgotNrKHkAGC_4x0xd11load_config00B5_
FN:13642,_RNCNCNvCsgotNrKHkAGC_4x0xd11load_config0s_0B5_
FN:13224,_RNCNCNvCsgotNrKHkAGC_4x0xd11ws_sessions00B5_
FN:13237,_RNCNCNvCsgotNrKHkAGC_4x0xd11ws_sessions0s_0B5_
FN:3590,_RNCNCNvCsgotNrKHkAGC_4x0xd12introduction00B5_
FN:3637,_RNCNCNvCsgotNrKHkAGC_4x0xd12introduction0s0_0B5_
FN:3638,_RNCNCNvCsgotNrKHkAGC_4x0xd12introduction0s1_0B5_
FN:3645,_RNCNCNvCsgotNrKHkAGC_4x0xd12introduction0s2_0B5_
FN:3656,_RNCNCNvCsgotNrKHkAGC_4x0xd12introduction0s3_0B5_
FN:3657,_RNCNCNvCsgotNrKHkAGC_4x0xd12introduction0s4_0B5_
FN:3664,_RNCNCNvCsgotNrKHkAGC_4x0xd12introduction0s5_0B5_
FN:3627,_RNCNCNvCsgotNrKHkAGC_4x0xd12introduction0s_0B5_
FN:11031,_RNCNCNvCsgotNrKHkAGC_4x0xd12list_kv_keys00B5_
FN:11080,_RNCNCNvCsgotNrKHkAGC_4x0xd12put_kv_value00B5_
FN:11776,_RNCNCNvCsgotNrKHkAGC_4x0xd13get_mls_group00B5_
FN:4771,_RNCNCNvCsgotNrKHkAGC_4x0xd13list_contacts00B5_
FN:4897,_RNCNCNvCsgotNrKHkAGC_4x0xd13list_machines00B5_
FN:3765,_RNCNCNvCsgotNrKHkAGC_4x0xd14get_agent_card00B5_
FN:3777,_RNCNCNvCsgotNrKHkAGC_4x0xd14get_agent_card0s0_0B5_
FN:3776,_RNCNCNvCsgotNrKHkAGC_4x0xd14get_agent_card0s_0B5_
FN:2173,_RNCNCNvCsgotNrKHkAGC_4x0xd14list_instances00B5_
FN:10966,_RNCNCNvCsgotNrKHkAGC_4x0xd14list_kv_stores00B5_
FN:3414,_RNCNCNvCsgotNrKHkAGC_4x0xd14network_status00B5_
FN:9866,_RNCNCNvCsgotNrKHkAGC_4x0xd15discover_groups00B5_
FN:9911,_RNCNCNvCsgotNrKHkAGC_4x0xd15discover_groups0s_0B5_
FN:11745,_RNCNCNvCsgotNrKHkAGC_4x0xd15list_mls_groups00B5_
FN:10767,_RNCNCNvCsgotNrKHkAGC_4x0xd15list_task_lists00B5_
FN:5877,_RNCNCNvCsgotNrKHkAGC_4x0xd15respond_to_pull00B5_
FN:5805,_RNCNCNvCsgotNrKHkAGC_4x0xd15subscribe_shard00B5_
FN:9272,_RNCNCNvCsgotNrKHkAGC_4x0xd16ban_group_member00B5_
FN:11710,_RNCNCNvCsgotNrKHkAGC_4x0xd16create_mls_group00B5_
FN:4472,_RNCNCNvCsgotNrKHkAGC_4x0xd16discovered_agent00B5_
FN:12079,_RNCNCNvCsgotNrKHkAGC_4x0xd16list_revocations00B5_
FN:8727,_RNCNCNvCsgotNrKHkAGC_4x0xd16seal_group_state00B5_
FN:2372,_RNCNCNvCsgotNrKHkAGC_4x0xd17file_send_handler00B5_
FN:2377,_RNCNCNvCsgotNrKHkAGC_4x0xd17file_send_handler0s0_0B5_
FN:2378,_RNCNCNvCsgotNrKHkAGC_4x0xd17file_send_handler0s1_0B5_
FN:2379,_RNCNCNvCsgotNrKHkAGC_4x0xd17file_send_handler0s2_0B5_
FN:2375,_RNCNCNvCsgotNrKHkAGC_4x0xd17file_send_handler0s_0B5_
FN:13447,_RNCNCNvCsgotNrKHkAGC_4x0xd17handle_ws_command00B5_
FN:13476,_RNCNCNvCsgotNrKHkAGC_4x0xd17handle_ws_command0s0_0B5_
FN:13459,_RNCNCNvCsgotNrKHkAGC_4x0xd17handle_ws_command0s_0B5_
FN:3865,_RNCNCNvCsgotNrKHkAGC_4x0xd17import_agent_card00B5_
FN:3889,_RNCNCNvCsgotNrKHkAGC_4x0xd17import_agent_card0s0_0B5_
FN:3884,_RNCNCNvCsgotNrKHkAGC_4x0xd17import_agent_card0s_0B5_
FN:10152,_RNCNCNvCsgotNrKHkAGC_4x0xd17import_group_card00B5_
FN:10263,_RNCNCNvCsgotNrKHkAGC_4x0xd17import_group_card0s0_0B5_
FN:10251,_RNCNCNvCsgotNrKHkAGC_4x0xd17import_group_card0s_0B5_
FN:7556,_RNCNCNvCsgotNrKHkAGC_4x0xd17list_named_groups00B5_
FN:2346,_RNCNCNvCsgotNrKHkAGC_4x0xd17send_file_message00B5_
FN:2351,_RNCNCNvCsgotNrKHkAGC_4x0xd17send_file_message0s_0B5_
FN:13216,_RNCNCNvCsgotNrKHkAGC_4x0xd17ws_direct_handler00B5_
FN:12038,_RNCNCNvCsgotNrKHkAGC_4x0xd18agent_reachability00B5_
FN:7482,_RNCNCNvCsgotNrKHkAGC_4x0xd18create_named_group00B5_
FN:7523,_RNCNCNvCsgotNrKHkAGC_4x0xd18create_named_group0s0_0B5_
FN:7508,_RNCNCNvCsgotNrKHkAGC_4x0xd18create_named_group0s_0B5_
FN:11604,_RNCNCNvCsgotNrKHkAGC_4x0xd18direct_connections00B5_
FN:13944,_RNCNCNvCsgotNrKHkAGC_4x0xd18handle_file_accept00B5_
FN:9442,_RNCNCNvCsgotNrKHkAGC_4x0xd18list_join_requests0s_0B5_
FN:13978,_RNCNCNvCsgotNrKHkAGC_4x0xd18stream_file_chunks00B5_
FN:9182,_RNCNCNvCsgotNrKHkAGC_4x0xd18update_member_role00B5_
FN:8137,_RNCNCNvCsgotNrKHkAGC_4x0xd19create_group_invite00B5_
FN:9492,_RNCNCNvCsgotNrKHkAGC_4x0xd19create_join_request0s_0B5_
FN:2582,_RNCNCNvCsgotNrKHkAGC_4x0xd19file_reject_handler00B5_
FN:2583,_RNCNCNvCsgotNrKHkAGC_4x0xd19file_reject_handler0s_0B5_
FN:13119,_RNCNCNvCsgotNrKHkAGC_4x0xd19peer_health_handler00B5_
FN:13123,_RNCNCNvCsgotNrKHkAGC_4x0xd19peer_health_handler0s0_0B5_
FN:13124,_RNCNCNvCsgotNrKHkAGC_4x0xd19peer_health_handler0s1_0B5_
FN:13122,_RNCNCNvCsgotNrKHkAGC_4x0xd19peer_health_handler0s_0B5_
FN:9628,_RNCNCNvCsgotNrKHkAGC_4x0xd20approve_join_request00B5_
FN:7915,_RNCNCNvCsgotNrKHkAGC_4x0xd20cache_public_message00B5_
FN:13287,_RNCNCNvCsgotNrKHkAGC_4x0xd20handle_ws_connection00B5_
FN:13327,_RNCNCNvCsgotNrKHkAGC_4x0xd20handle_ws_connection0s0_0B5_
FN:13305,_RNCNCNvCsgotNrKHkAGC_4x0xd20handle_ws_connection0s_0B5_
FN:4725,_RNCNCNvCsgotNrKHkAGC_4x0xd21agent_user_id_handler00B5_
FN:12508,_RNCNCNvCsgotNrKHkAGC_4x0xd21bootstrap_cache_stats00B5_
FN:7935,_RNCNCNvCsgotNrKHkAGC_4x0xd21ingest_public_message00B5_
FN:7942,_RNCNCNvCsgotNrKHkAGC_4x0xd21ingest_public_message0s_0B5_
FN:8250,_RNCNCNvCsgotNrKHkAGC_4x0xd21join_group_via_invite00B5_
FN:8373,_RNCNCNvCsgotNrKHkAGC_4x0xd21join_group_via_invite0s0_0B5_
FN:8389,_RNCNCNvCsgotNrKHkAGC_4x0xd21join_group_via_invite0s1_0B5_
FN:8346,_RNCNCNvCsgotNrKHkAGC_4x0xd21join_group_via_invite0s_0B5_
FN:14305,_RNCNCNvCsgotNrKHkAGC_4x0xd23apply_ready_file_chunks00B5_
FN:14341,_RNCNCNvCsgotNrKHkAGC_4x0xd23apply_ready_file_chunks0s0_0B5_
FN:14355,_RNCNCNvCsgotNrKHkAGC_4x0xd23apply_ready_file_chunks0s1_0B5_
FN:14374,_RNCNCNvCsgotNrKHkAGC_4x0xd23apply_ready_file_chunks0s2_0B5_
FN:14315,_RNCNCNvCsgotNrKHkAGC_4x0xd23apply_ready_file_chunks0s_0B5_
FN:2359,_RNCNCNvCsgotNrKHkAGC_4x0xd23send_file_chunk_message00B5_
FN:2364,_RNCNCNvCsgotNrKHkAGC_4x0xd23send_file_chunk_message0s_0B5_
FN:12742,_RNCNCNvCsgotNrKHkAGC_4x0xd24connectivity_diagnostics00B5_
FN:12749,_RNCNCNvCsgotNrKHkAGC_4x0xd24connectivity_diagnostics0s0_0B5_
FN:12821,_RNCNCNvCsgotNrKHkAGC_4x0xd24connectivity_diagnostics0s1_0B5_
FN:12828,_RNCNCNvCsgotNrKHkAGC_4x0xd24connectivity_diagnostics0s2_0B5_
FN:12745,_RNCNCNvCsgotNrKHkAGC_4x0xd24connectivity_diagnostics0s_0B5_
FN:3178,_RNCNCNvCsgotNrKHkAGC_4x0xd24run_fallback_github_poll00B5_
FN:2849,_RNCNCNvCsgotNrKHkAGC_4x0xd24run_startup_update_check00B5_
FN:2855,_RNCNCNvCsgotNrKHkAGC_4x0xd24run_startup_update_check0s_0B5_
FN:5439,_RNCNCNvCsgotNrKHkAGC_4x0xd25named_group_member_valuess0_00B5_
FN:7744,_RNCNCNvCsgotNrKHkAGC_4x0xd25send_group_public_message00B5_
FN:14446,_RNCNCNvCsgotNrKHkAGC_4x0xd26finalize_received_transfer00B5_
FN:14451,_RNCNCNvCsgotNrKHkAGC_4x0xd26finalize_received_transfer0s0_0B5_
FN:14452,_RNCNCNvCsgotNrKHkAGC_4x0xd26finalize_received_transfer0s1_0B5_
FN:14447,_RNCNCNvCsgotNrKHkAGC_4x0xd26finalize_received_transfer0s_0B5_
FN:6029,_RNCNCNvCsgotNrKHkAGC_4x0xd27spawn_directory_resubscribe00B5_
FN:509,_RNCNCNvCsgotNrKHkAGC_4x0xd28enforce_group_card_cache_caps_00B5_
FN:511,_RNCNCNvCsgotNrKHkAGC_4x0xd28enforce_group_card_cache_caps_0s0_0B5_
FN:510,_RNCNCNvCsgotNrKHkAGC_4x0xd28enforce_group_card_cache_caps_0s_0B5_
FN:7375,_RNCNCNvCsgotNrKHkAGC_4x0xd28ensure_named_group_listeners00B5_
FN:8064,_RNCNCNvCsgotNrKHkAGC_4x0xd29spawn_public_message_listener00B5_
FN:5633,_RNCNCNvCsgotNrKHkAGC_4x0xd31spawn_global_discovery_listener00B5_
FN:6366,_RNCNCNvCsgotNrKHkAGC_4x0xd32apply_named_group_metadata_event00B5_
FN:6451,_RNCNCNvCsgotNrKHkAGC_4x0xd32apply_named_group_metadata_event0s0_0B5_
FN:6506,_RNCNCNvCsgotNrKHkAGC_4x0xd32apply_named_group_metadata_event0s1_0B5_
FN:6546,_RNCNCNvCsgotNrKHkAGC_4x0xd32apply_named_group_metadata_event0s2_0B5_
FN:6581,_RNCNCNvCsgotNrKHkAGC_4x0xd32apply_named_group_metadata_event0s3_0B5_
FN:6611,_RNCNCNvCsgotNrKHkAGC_4x0xd32apply_named_group_metadata_event0s4_0B5_
FN:6636,_RNCNCNvCsgotNrKHkAGC_4x0xd32apply_named_group_metadata_event0s5_0B5_
FN:6648,_RNCNCNvCsgotNrKHkAGC_4x0xd32apply_named_group_metadata_event0s6_0B5_
FN:6681,_RNCNCNvCsgotNrKHkAGC_4x0xd32apply_named_group_metadata_event0s7_0B5_
FN:6690,_RNCNCNvCsgotNrKHkAGC_4x0xd32apply_named_group_metadata_event0s8_0B5_
FN:6730,_RNCNCNvCsgotNrKHkAGC_4x0xd32apply_named_group_metadata_event0s9_0B5_
FN:6398,_RNCNCNvCsgotNrKHkAGC_4x0xd32apply_named_group_metadata_event0s_0B5_
FN:6742,_RNCNCNvCsgotNrKHkAGC_4x0xd32apply_named_group_metadata_event0sa_0B5_
FN:6797,_RNCNCNvCsgotNrKHkAGC_4x0xd32apply_named_group_metadata_event0sb_0B5_
FN:6818,_RNCNCNvCsgotNrKHkAGC_4x0xd32apply_named_group_metadata_event0sc_0B5_
FN:6853,_RNCNCNvCsgotNrKHkAGC_4x0xd32apply_named_group_metadata_event0sd_0B5_
FN:6868,_RNCNCNvCsgotNrKHkAGC_4x0xd32apply_named_group_metadata_event0se_0B5_
FN:6906,_RNCNCNvCsgotNrKHkAGC_4x0xd32apply_named_group_metadata_event0sf_0B5_
FN:6951,_RNCNCNvCsgotNrKHkAGC_4x0xd32apply_named_group_metadata_event0sg_0B5_
FN:6960,_RNCNCNvCsgotNrKHkAGC_4x0xd32apply_named_group_metadata_event0sh_0B5_
FN:7000,_RNCNCNvCsgotNrKHkAGC_4x0xd32apply_named_group_metadata_event0si_0B5_
FN:7202,_RNCNCNvCsgotNrKHkAGC_4x0xd32apply_named_group_metadata_event0sj_0B5_
FN:6108,_RNCNCNvCsgotNrKHkAGC_4x0xd33spawn_listed_to_contacts_listener00B5_
FN:7314,_RNCNCNvCsgotNrKHkAGC_4x0xd36ensure_named_group_metadata_listener00B5_
FN:7329,_RNCNCNvCsgotNrKHkAGC_4x0xd36ensure_named_group_metadata_listener0s_0B5_
FN:7995,_RNCNCNvCsgotNrKHkAGC_4x0xd36spawn_global_public_message_listener00B5_
FN:1062,_RNCNCNvCsgotNrKHkAGC_4x0xd4main00B5_
FN:1075,_RNCNCNvCsgotNrKHkAGC_4x0xd4main0s0_0B5_
FN:1096,_RNCNCNvCsgotNrKHkAGC_4x0xd4main0s1_0B5_
FN:1106,_RNCNCNvCsgotNrKHkAGC_4x0xd4main0s2_0B5_
FN:1124,_RNCNCNvCsgotNrKHkAGC_4x0xd4main0s3_0B5_
FN:1139,_RNCNCNvCsgotNrKHkAGC_4x0xd4main0s4_0B5_
FN:1152,_RNCNCNvCsgotNrKHkAGC_4x0xd4main0s5_0B5_
FN:1177,_RNCNCNvCsgotNrKHkAGC_4x0xd4main0s6_0B5_
FN:1178,_RNCNCNvCsgotNrKHkAGC_4x0xd4main0s7_0B5_
FN:1188,_RNCNCNvCsgotNrKHkAGC_4x0xd4main0s8_0B5_
FN:1196,_RNCNCNvCsgotNrKHkAGC_4x0xd4main0s9_0B5_
FN:1071,_RNCNCNvCsgotNrKHkAGC_4x0xd4main0s_0B5_
FN:1197,_RNCNCNvCsgotNrKHkAGC_4x0xd4main0sa_0B5_
FN:1227,_RNCNCNvCsgotNrKHkAGC_4x0xd4main0sb_0B5_
FN:1464,_RNCNCNvCsgotNrKHkAGC_4x0xd4main0sc_0B5_
FN:1547,_RNCNCNvCsgotNrKHkAGC_4x0xd4main0sd_0B5_
FN:1550,_RNCNCNvCsgotNrKHkAGC_4x0xd4main0se_0B5_
FN:1556,_RNCNCNvCsgotNrKHkAGC_4x0xd4main0sf_0B5_
FN:1593,_RNCNCNvCsgotNrKHkAGC_4x0xd4main0sg_0B5_
FN:1629,_RNCNCNvCsgotNrKHkAGC_4x0xd4main0sh_0B5_
FN:1649,_RNCNCNvCsgotNrKHkAGC_4x0xd4main0si_0B5_
FN:1668,_RNCNCNvCsgotNrKHkAGC_4x0xd4main0sj_0B5_
FN:1684,_RNCNCNvCsgotNrKHkAGC_4x0xd4main0sk_0B5_
FN:1707,_RNCNCNvCsgotNrKHkAGC_4x0xd4main0sl_0B5_
FN:1744,_RNCNCNvCsgotNrKHkAGC_4x0xd4main0sm_0B5_
FN:1956,_RNCNCNvCsgotNrKHkAGC_4x0xd4main0sn_0B5_
FN:1981,_RNCNCNvCsgotNrKHkAGC_4x0xd4main0so_0B5_
FN:3945,_RNCNCNvCsgotNrKHkAGC_4x0xd5peers00B5_
FN:3291,_RNCNCNvCsgotNrKHkAGC_4x0xd6health00B5_
FN:3321,_RNCNCNvCsgotNrKHkAGC_4x0xd6status00B5_
FN:11342,_RNCNCNvCsgotNrKHkAGC_4x0xd8exec_run00B5_
FN:11343,_RNCNCNvCsgotNrKHkAGC_4x0xd8exec_run0s_0B5_
FN:4120,_RNCNCNvCsgotNrKHkAGC_4x0xd8presence00B5_
FN:4013,_RNCNCNvCsgotNrKHkAGC_4x0xd9subscribe00B5_
FN:3485,_RNCNvCsgotNrKHkAGC_4x0xd10agent_info0B3_
FN:4083,_RNCNvCsgotNrKHkAGC_4x0xd10events_sse0B3_
FN:11981,_RNCNvCsgotNrKHkAGC_4x0xd10find_agent0B3_
FN:10799,_RNCNvCsgotNrKHkAGC_4x0xd10list_tasks0B3_
FN:2641,_RNCNvCsgotNrKHkAGC_4x0xd10run_doctor0B3_
FN:13207,_RNCNvCsgotNrKHkAGC_4x0xd10ws_handler0B3_
FN:4785,_RNCNvCsgotNrKHkAGC_4x0xd11add_contact0B3_
FN:4917,_RNCNvCsgotNrKHkAGC_4x0xd11add_machine0B3_
FN:11434,_RNCNvCsgotNrKHkAGC_4x0xd11direct_send0B3_
FN:11386,_RNCNvCsgotNrKHkAGC_4x0xd11exec_cancel0B3_
FN:8822,_RNCNvCsgotNrKHkAGC_4x0xd11leave_group0B3_
FN:13638,_RNCNvCsgotNrKHkAGC_4x0xd11load_config0B3_
FN:11936,_RNCNvCsgotNrKHkAGC_4x0xd11mls_decrypt0B3_
FN:11893,_RNCNvCsgotNrKHkAGC_4x0xd11mls_encrypt0B3_
FN:12099,_RNCNvCsgotNrKHkAGC_4x0xd11pin_machine0B3_
FN:5067,_RNCNvCsgotNrKHkAGC_4x0xd11quick_trust0B3_
FN:4068,_RNCNvCsgotNrKHkAGC_4x0xd11unsubscribe0B3_
FN:10867,_RNCNvCsgotNrKHkAGC_4x0xd11update_task0B3_
FN:13220,_RNCNvCsgotNrKHkAGC_4x0xd11ws_sessions0B3_
FN:11102,_RNCNvCsgotNrKHkAGC_4x0xd12get_kv_value0B3_
FN:13682,_RNCNvCsgotNrKHkAGC_4x0xd12init_logging0B3_
FN:13714,_RNCNvCsgotNrKHkAGC_4x0xd12init_loggings_0B3_
FN:3519,_RNCNvCsgotNrKHkAGC_4x0xd12introduction0B3_
FN:11018,_RNCNvCsgotNrKHkAGC_4x0xd12list_kv_keys0B3_
FN:11058,_RNCNvCsgotNrKHkAGC_4x0xd12put_kv_value0B3_
FN:12372,_RNCNvCsgotNrKHkAGC_4x0xd13apply_upgrade0B3_
FN:12311,_RNCNvCsgotNrKHkAGC_4x0xd13check_upgrade0B3_
FN:11170,_RNCNvCsgotNrKHkAGC_4x0xd13connect_agent0B3_
FN:11421,_RNCNvCsgotNrKHkAGC_4x0xd13exec_sessions0B3_
FN:11764,_RNCNvCsgotNrKHkAGC_4x0xd13get_mls_group0B3_
FN:10998,_RNCNvCsgotNrKHkAGC_4x0xd13join_kv_store0B3_
FN:4765,_RNCNvCsgotNrKHkAGC_4x0xd13list_contacts0B3_
FN:4880,_RNCNvCsgotNrKHkAGC_4x0xd13list_machines0B3_
FN:13000,_RNCNvCsgotNrKHkAGC_4x0xd13parse_peer_id0B3_
FN:4217,_RNCNvCsgotNrKHkAGC_4x0xd13presence_find0B3_
FN:4184,_RNCNvCsgotNrKHkAGC_4x0xd13presence_foaf0B3_
FN:12138,_RNCNvCsgotNrKHkAGC_4x0xd13unpin_machine0B3_
FN:11795,_RNCNvCsgotNrKHkAGC_4x0xd14add_mls_member0B3_
FN:5041,_RNCNvCsgotNrKHkAGC_4x0xd14delete_contact0B3_
FN:4990,_RNCNvCsgotNrKHkAGC_4x0xd14delete_machine0B3_
FN:12979,_RNCNvCsgotNrKHkAGC_4x0xd14dm_diagnostics0B3_
FN:12177,_RNCNvCsgotNrKHkAGC_4x0xd14evaluate_trust0B3_
FN:3754,_RNCNvCsgotNrKHkAGC_4x0xd14get_agent_card0B3_
FN:10084,_RNCNvCsgotNrKHkAGC_4x0xd14get_group_card0B3_
FN:2142,_RNCNvCsgotNrKHkAGC_4x0xd14list_instances0B3_
FN:10961,_RNCNvCsgotNrKHkAGC_4x0xd14list_kv_stores0B3_
FN:3390,_RNCNvCsgotNrKHkAGC_4x0xd14network_status0B3_
FN:12057,_RNCNvCsgotNrKHkAGC_4x0xd14revoke_contact0B3_
FN:14281,_RNCNvCsgotNrKHkAGC_4x0xd14send_chunk_ack0B3_
FN:4834,_RNCNvCsgotNrKHkAGC_4x0xd14update_contact0B3_
FN:12884,_RNCNvCsgotNrKHkAGC_4x0xd15ack_diagnostics0B3_
FN:2035,_RNCNvCsgotNrKHkAGC_4x0xd15auth_middleware0B3_
FN:11238,_RNCNvCsgotNrKHkAGC_4x0xd15connect_machine0B3_
FN:10977,_RNCNvCsgotNrKHkAGC_4x0xd15create_kv_store0B3_
FN:11144,_RNCNvCsgotNrKHkAGC_4x0xd15delete_kv_value0B3_
FN:9864,_RNCNvCsgotNrKHkAGC_4x0xd15discover_groups0B3_
FN:8670,_RNCNvCsgotNrKHkAGC_4x0xd15get_group_state0B3_
FN:7575,_RNCNvCsgotNrKHkAGC_4x0xd15get_named_group0B3_
FN:11741,_RNCNvCsgotNrKHkAGC_4x0xd15list_mls_groups0B3_
FN:10762,_RNCNvCsgotNrKHkAGC_4x0xd15list_task_lists0B3_
FN:13619,_RNCNvCsgotNrKHkAGC_4x0xd15make_mls_cipher0B3_
FN:4295,_RNCNvCsgotNrKHkAGC_4x0xd15presence_events0B3_
FN:4156,_RNCNvCsgotNrKHkAGC_4x0xd15presence_online0B3_
FN:4260,_RNCNvCsgotNrKHkAGC_4x0xd15presence_status0B3_
FN:5868,_RNCNvCsgotNrKHkAGC_4x0xd15respond_to_pull0B3_
FN:13586,_RNCNvCsgotNrKHkAGC_4x0xd15save_mls_groups0B3_
FN:5786,_RNCNvCsgotNrKHkAGC_4x0xd15subscribe_shard0B3_
FN:9232,_RNCNvCsgotNrKHkAGC_4x0xd16ban_group_member0B3_
FN:11682,_RNCNvCsgotNrKHkAGC_4x0xd16create_mls_group0B3_
FN:10778,_RNCNvCsgotNrKHkAGC_4x0xd16create_task_list0B3_
FN:241,_RNCNvCsgotNrKHkAGC_4x0xd16default_data_dir0B3_
FN:242,_RNCNvCsgotNrKHkAGC_4x0xd16default_data_dirs_0B3_
FN:4441,_RNCNvCsgotNrKHkAGC_4x0xd16discovered_agent0B3_
FN:11426,_RNCNvCsgotNrKHkAGC_4x0xd16exec_diagnostics0B3_
FN:12288,_RNCNvCsgotNrKHkAGC_4x0xd16get_constitution0B3_
FN:12074,_RNCNvCsgotNrKHkAGC_4x0xd16list_revocations0B3_
FN:8715,_RNCNvCsgotNrKHkAGC_4x0xd16seal_group_state0B3_
FN:249,_RNCNvCsgotNrKHkAGC_4x0xd16shared_cache_dir0B3_
FN:250,_RNCNvCsgotNrKHkAGC_4x0xd16shared_cache_dirs_0B3_
FN:2203,_RNCNvCsgotNrKHkAGC_4x0xd16shutdown_handler0B3_
FN:3681,_RNCNvCsgotNrKHkAGC_4x0xd17announce_identity0B3_
FN:11620,_RNCNvCsgotNrKHkAGC_4x0xd17direct_events_sse0B3_
FN:4404,_RNCNvCsgotNrKHkAGC_4x0xd17discovered_agents0B3_
FN:5846,_RNCNvCsgotNrKHkAGC_4x0xd17emit_shard_digest0B3_
FN:2371,_RNCNvCsgotNrKHkAGC_4x0xd17file_send_handler0B3_
FN:14167,_RNCNvCsgotNrKHkAGC_4x0xd17handle_file_chunk0B3_
FN:13821,_RNCNvCsgotNrKHkAGC_4x0xd17handle_file_offer0B3_
FN:13411,_RNCNvCsgotNrKHkAGC_4x0xd17handle_ws_command0B3_
FN:3822,_RNCNvCsgotNrKHkAGC_4x0xd17import_agent_card0B3_
FN:10128,_RNCNvCsgotNrKHkAGC_4x0xd17import_group_card0B3_
FN:7552,_RNCNvCsgotNrKHkAGC_4x0xd17list_named_groups0B3_
FN:11844,_RNCNvCsgotNrKHkAGC_4x0xd17remove_mls_member0B3_
FN:13591,_RNCNvCsgotNrKHkAGC_4x0xd17save_named_groups0B3_
FN:2345,_RNCNvCsgotNrKHkAGC_4x0xd17send_file_message0B3_
FN:5834,_RNCNvCsgotNrKHkAGC_4x0xd17unsubscribe_shard0B3_
FN:13215,_RNCNvCsgotNrKHkAGC_4x0xd17ws_direct_handler0B3_
FN:12018,_RNCNvCsgotNrKHkAGC_4x0xd18agent_reachability0B3_
FN:12231,_RNCNvCsgotNrKHkAGC_4x0xd18create_mls_welcome0B3_
FN:7392,_RNCNvCsgotNrKHkAGC_4x0xd18create_named_group0B3_
FN:11595,_RNCNvCsgotNrKHkAGC_4x0xd18direct_connections0B3_
FN:4545,_RNCNvCsgotNrKHkAGC_4x0xd18discovered_machine0B3_
FN:12912,_RNCNvCsgotNrKHkAGC_4x0xd18gossip_diagnostics0B3_
FN:12945,_RNCNvCsgotNrKHkAGC_4x0xd18groups_diagnostics0B3_
FN:13892,_RNCNvCsgotNrKHkAGC_4x0xd18handle_file_accept0B3_
FN:14134,_RNCNvCsgotNrKHkAGC_4x0xd18handle_file_reject0B3_
FN:9426,_RNCNvCsgotNrKHkAGC_4x0xd18list_join_requests0B3_
FN:4738,_RNCNvCsgotNrKHkAGC_4x0xd18parse_agent_id_hex0B3_
FN:13039,_RNCNvCsgotNrKHkAGC_4x0xd18probe_peer_handler0B3_
FN:13964,_RNCNvCsgotNrKHkAGC_4x0xd18stream_file_chunks0B3_
FN:9369,_RNCNvCsgotNrKHkAGC_4x0xd18unban_group_member0B3_
FN:9132,_RNCNvCsgotNrKHkAGC_4x0xd18update_member_role0B3_
FN:8970,_RNCNvCsgotNrKHkAGC_4x0xd18update_named_group0B3_
FN:12533,_RNCNvCsgotNrKHkAGC_4x0xd18value_string_field0B3_
FN:12534,_RNCNvCsgotNrKHkAGC_4x0xd18value_string_fields_0B3_
FN:9796,_RNCNvCsgotNrKHkAGC_4x0xd19cancel_join_request0B3_
FN:8104,_RNCNvCsgotNrKHkAGC_4x0xd19create_group_invite0B3_
FN:9455,_RNCNvCsgotNrKHkAGC_4x0xd19create_join_request0B3_
FN:4518,_RNCNvCsgotNrKHkAGC_4x0xd19discovered_machines0B3_
FN:2503,_RNCNvCsgotNrKHkAGC_4x0xd19file_accept_handler0B3_
FN:2579,_RNCNvCsgotNrKHkAGC_4x0xd19file_reject_handler0B3_
FN:13787,_RNCNvCsgotNrKHkAGC_4x0xd19handle_file_message0B3_
FN:13153,_RNCNvCsgotNrKHkAGC_4x0xd19peer_events_handler0B3_
FN:13097,_RNCNvCsgotNrKHkAGC_4x0xd19peer_health_handler0B3_
FN:9728,_RNCNvCsgotNrKHkAGC_4x0xd19reject_join_request0B3_
FN:10570,_RNCNvCsgotNrKHkAGC_4x0xd19secure_group_reseal0B3_
FN:9038,_RNCNvCsgotNrKHkAGC_4x0xd19update_group_policy0B3_
FN:14101,_RNCNvCsgotNrKHkAGC_4x0xd19wait_for_final_acks0B3_
FN:9561,_RNCNvCsgotNrKHkAGC_4x0xd20approve_join_request0B3_
FN:7909,_RNCNvCsgotNrKHkAGC_4x0xd20cache_public_message0B3_
FN:14504,_RNCNvCsgotNrKHkAGC_4x0xd20handle_file_complete0B3_
FN:13255,_RNCNvCsgotNrKHkAGC_4x0xd20handle_ws_connection0B3_
FN:4752,_RNCNvCsgotNrKHkAGC_4x0xd20parse_machine_id_hex0B3_
FN:5384,_RNCNvCsgotNrKHkAGC_4x0xd20publish_secure_share0B3_
FN:10423,_RNCNvCsgotNrKHkAGC_4x0xd20secure_group_decrypt0B3_
FN:10319,_RNCNvCsgotNrKHkAGC_4x0xd20secure_group_encrypt0B3_
FN:8764,_RNCNvCsgotNrKHkAGC_4x0xd20withdraw_group_state0B3_
FN:4724,_RNCNvCsgotNrKHkAGC_4x0xd21agent_user_id_handler0B3_
FN:12501,_RNCNvCsgotNrKHkAGC_4x0xd21bootstrap_cache_stats0B3_
FN:13607,_RNCNvCsgotNrKHkAGC_4x0xd21decode_base64_payload0B3_
FN:12297,_RNCNvCsgotNrKHkAGC_4x0xd21get_constitution_json0B3_
FN:7928,_RNCNvCsgotNrKHkAGC_4x0xd21ingest_public_message0B3_
FN:8175,_RNCNvCsgotNrKHkAGC_4x0xd21join_group_via_invite0B3_
FN:2310,_RNCNvCsgotNrKHkAGC_4x0xd21wait_for_chunk_window0B3_
FN:8447,_RNCNvCsgotNrKHkAGC_4x0xd22add_named_group_member0B3_
FN:4643,_RNCNvCsgotNrKHkAGC_4x0xd22agents_by_user_handler0B3_
FN:9939,_RNCNvCsgotNrKHkAGC_4x0xd22discover_groups_nearby0B3_
FN:4358,_RNCNvCsgotNrKHkAGC_4x0xd22discovered_agent_entry0B3_
FN:4359,_RNCNvCsgotNrKHkAGC_4x0xd22discovered_agent_entrys_0B3_
FN:2472,_RNCNvCsgotNrKHkAGC_4x0xd22file_transfers_handler0B3_
FN:8422,_RNCNvCsgotNrKHkAGC_4x0xd22set_group_display_name0B3_
FN:2132,_RNCNvCsgotNrKHkAGC_4x0xd22validate_instance_name0B3_
FN:2133,_RNCNvCsgotNrKHkAGC_4x0xd22validate_instance_names_0B3_
FN:14296,_RNCNvCsgotNrKHkAGC_4x0xd23apply_ready_file_chunks0B3_
FN:14157,_RNCNvCsgotNrKHkAGC_4x0xd23cleanup_failed_transfer0B3_
FN:220,_RNCNvCsgotNrKHkAGC_4x0xd23default_bootstrap_peers0B3_
FN:7610,_RNCNvCsgotNrKHkAGC_4x0xd23get_named_group_members0B3_
FN:2358,_RNCNvCsgotNrKHkAGC_4x0xd23send_file_chunk_message0B3_
FN:3233,_RNCNvCsgotNrKHkAGC_4x0xd23update_skill_if_changed0B3_
FN:12709,_RNCNvCsgotNrKHkAGC_4x0xd24connectivity_diagnostics0B3_
FN:4371,_RNCNvCsgotNrKHkAGC_4x0xd24discovered_machine_entry0B3_
FN:4387,_RNCNvCsgotNrKHkAGC_4x0xd24discovered_machine_entrys0_0B3_
FN:4382,_RNCNvCsgotNrKHkAGC_4x0xd24discovered_machine_entrys_0B3_
FN:5911,_RNCNvCsgotNrKHkAGC_4x0xd24handle_directory_message0B3_
FN:4685,_RNCNvCsgotNrKHkAGC_4x0xd24machines_by_user_handler0B3_
FN:3123,_RNCNvCsgotNrKHkAGC_4x0xd24run_fallback_github_poll0B3_
FN:2847,_RNCNvCsgotNrKHkAGC_4x0xd24run_startup_update_check0B3_
FN:13386,_RNCNvCsgotNrKHkAGC_4x0xd25cleanup_ws_topic_if_empty0B3_
FN:7845,_RNCNvCsgotNrKHkAGC_4x0xd25get_group_public_messages0B3_
FN:4608,_RNCNvCsgotNrKHkAGC_4x0xd25machine_for_agent_handler0B3_
FN:5429,_RNCNvCsgotNrKHkAGC_4x0xd25named_group_member_values0B3_
FN:5434,_RNCNvCsgotNrKHkAGC_4x0xd25named_group_member_valuess0_0B3_
FN:5431,_RNCNvCsgotNrKHkAGC_4x0xd25named_group_member_valuess_0B3_
FN:486,_RNCNvCsgotNrKHkAGC_4x0xd25prune_expired_group_cards0B3_
FN:8557,_RNCNvCsgotNrKHkAGC_4x0xd25remove_named_group_member0B3_
FN:7669,_RNCNvCsgotNrKHkAGC_4x0xd25send_group_public_message0B3_
FN:2910,_RNCNvCsgotNrKHkAGC_4x0xd26broadcast_current_manifest0B3_
FN:14403,_RNCNvCsgotNrKHkAGC_4x0xd26finalize_received_transfer0B3_
FN:2085,_RNCNvCsgotNrKHkAGC_4x0xd26load_or_generate_api_token0B3_
FN:2956,_RNCNvCsgotNrKHkAGC_4x0xd26run_gossip_update_listener0B3_
FN:6015,_RNCNvCsgotNrKHkAGC_4x0xd27spawn_directory_resubscribe0B3_
FN:497,_RNCNvCsgotNrKHkAGC_4x0xd28enforce_group_card_cache_cap0B3_
FN:506,_RNCNvCsgotNrKHkAGC_4x0xd28enforce_group_card_cache_caps_0B3_
FN:7371,_RNCNvCsgotNrKHkAGC_4x0xd28ensure_named_group_listeners0B3_
FN:2485,_RNCNvCsgotNrKHkAGC_4x0xd28file_transfer_status_handler0B3_
FN:9962,_RNCNvCsgotNrKHkAGC_4x0xd28list_discovery_subscriptions0B3_
FN:5732,_RNCNvCsgotNrKHkAGC_4x0xd28load_directory_subscriptions0B3_
FN:5763,_RNCNvCsgotNrKHkAGC_4x0xd28save_directory_subscriptions0B3_
FN:9990,_RNCNvCsgotNrKHkAGC_4x0xd29create_discovery_subscription0B3_
FN:10057,_RNCNvCsgotNrKHkAGC_4x0xd29delete_discovery_subscription0B3_
FN:8045,_RNCNvCsgotNrKHkAGC_4x0xd29spawn_public_message_listener0B3_
FN:5492,_RNCNvCsgotNrKHkAGC_4x0xd30publish_group_card_with_reseal0B3_
FN:5483,_RNCNvCsgotNrKHkAGC_4x0xd31publish_group_card_to_discovery0B3_
FN:6051,_RNCNvCsgotNrKHkAGC_4x0xd31publish_listed_to_contacts_card0B3_
FN:12486,_RNCNvCsgotNrKHkAGC_4x0xd31schedule_restart_after_response0B3_
FN:5620,_RNCNvCsgotNrKHkAGC_4x0xd31spawn_global_discovery_listener0B3_
FN:6337,_RNCNvCsgotNrKHkAGC_4x0xd32apply_named_group_metadata_event0B3_
FN:10693,_RNCNvCsgotNrKHkAGC_4x0xd32secure_open_envelope_adversarial0B3_
FN:6105,_RNCNvCsgotNrKHkAGC_4x0xd33spawn_listed_to_contacts_listener0B3_
FN:6240,_RNCNvCsgotNrKHkAGC_4x0xd34publish_named_group_metadata_event0B3_
FN:6285,_RNCNvCsgotNrKHkAGC_4x0xd34refresh_group_card_cache_from_info0B3_
FN:6251,_RNCNvCsgotNrKHkAGC_4x0xd34stop_named_group_metadata_listener0B3_
FN:7302,_RNCNvCsgotNrKHkAGC_4x0xd36ensure_named_group_metadata_listener0B3_
FN:7993,_RNCNvCsgotNrKHkAGC_4x0xd36spawn_global_public_message_listener0B3_
FN:5500,_RNCNvCsgotNrKHkAGC_4x0xd37publish_group_card_to_discovery_inner0B3_
FN:591,_RNCNvCsgotNrKHkAGC_4x0xd40apply_withdrawn_group_card_to_group_info0B3_
FN:602,_RNCNvCsgotNrKHkAGC_4x0xd40apply_withdrawn_group_card_to_group_infos_0B3_
FN:6308,_RNCNvCsgotNrKHkAGC_4x0xd43maybe_publish_group_card_after_state_change0B3_
FN:1057,_RNCNvCsgotNrKHkAGC_4x0xd4main0B3_
FN:3939,_RNCNvCsgotNrKHkAGC_4x0xd5peers0B3_
FN:3290,_RNCNvCsgotNrKHkAGC_4x0xd6health0B3_
FN:3305,_RNCNvCsgotNrKHkAGC_4x0xd6status0B3_
FN:3964,_RNCNvCsgotNrKHkAGC_4x0xd7publish0B3_
FN:10838,_RNCNvCsgotNrKHkAGC_4x0xd8add_task0B3_
FN:11303,_RNCNvCsgotNrKHkAGC_4x0xd8exec_run0B3_
FN:4117,_RNCNvCsgotNrKHkAGC_4x0xd8presence0B3_
FN:10928,_RNCNvCsgotNrKHkAGC_4x0xd9serve_gui0B3_
FN:4004,_RNCNvCsgotNrKHkAGC_4x0xd9subscribe0B3_
FN:2791,_RNCNvMs1_CsgotNrKHkAGC_4x0xdNtB7_29SelfPublishedReleaseManifests5prune0B7_
FN:354,_RNCNvXs_CsgotNrKHkAGC_4x0xdNtB6_12DaemonConfigNtNtCsl8K0bEFm1U0_4core7default7Default7default0B6_
FN:5458,_RNCNCNvCsgotNrKHkAGC_4x0xd29named_group_member_values_alls_00B5_
FN:5450,_RNCNvCsgotNrKHkAGC_4x0xd29named_group_member_values_all0B3_
FN:5453,_RNCNvCsgotNrKHkAGC_4x0xd29named_group_member_values_alls_0B3_
FN:5448,_RNvCsgotNrKHkAGC_4x0xd29named_group_member_values_all
FN:3485,_RNvCsgotNrKHkAGC_4x0xd10agent_info
FN:4081,_RNvCsgotNrKHkAGC_4x0xd10events_sse
FN:11978,_RNvCsgotNrKHkAGC_4x0xd10find_agent
FN:10796,_RNvCsgotNrKHkAGC_4x0xd10list_tasks
FN:2641,_RNvCsgotNrKHkAGC_4x0xd10run_doctor
FN:13204,_RNvCsgotNrKHkAGC_4x0xd10ws_handler
FN:4782,_RNvCsgotNrKHkAGC_4x0xd11add_contact
FN:4913,_RNvCsgotNrKHkAGC_4x0xd11add_machine
FN:11431,_RNvCsgotNrKHkAGC_4x0xd11direct_send
FN:11383,_RNvCsgotNrKHkAGC_4x0xd11exec_cancel
FN:8819,_RNvCsgotNrKHkAGC_4x0xd11leave_group
FN:13638,_RNvCsgotNrKHkAGC_4x0xd11load_config
FN:11932,_RNvCsgotNrKHkAGC_4x0xd11mls_decrypt
FN:11889,_RNvCsgotNrKHkAGC_4x0xd11mls_encrypt
FN:12096,_RNvCsgotNrKHkAGC_4x0xd11pin_machine
FN:5064,_RNvCsgotNrKHkAGC_4x0xd11quick_trust
FN:4065,_RNvCsgotNrKHkAGC_4x0xd11unsubscribe
FN:10863,_RNvCsgotNrKHkAGC_4x0xd11update_task
FN:13220,_RNvCsgotNrKHkAGC_4x0xd11ws_sessions
FN:312,_RNvCsgotNrKHkAGC_4x0xd12default_true
FN:11099,_RNvCsgotNrKHkAGC_4x0xd12get_kv_value
FN:13653,_RNvCsgotNrKHkAGC_4x0xd12init_logging
FN:3516,_RNvCsgotNrKHkAGC_4x0xd12introduction
FN:11015,_RNvCsgotNrKHkAGC_4x0xd12list_kv_keys
FN:11054,_RNvCsgotNrKHkAGC_4x0xd12put_kv_value
FN:12372,_RNvCsgotNrKHkAGC_4x0xd13apply_upgrade
FN:12311,_RNvCsgotNrKHkAGC_4x0xd13check_upgrade
FN:11167,_RNvCsgotNrKHkAGC_4x0xd13connect_agent
FN:11421,_RNvCsgotNrKHkAGC_4x0xd13exec_sessions
FN:11761,_RNvCsgotNrKHkAGC_4x0xd13get_mls_group
FN:10995,_RNvCsgotNrKHkAGC_4x0xd13join_kv_store
FN:4765,_RNvCsgotNrKHkAGC_4x0xd13list_contacts
FN:4877,_RNvCsgotNrKHkAGC_4x0xd13list_machines
FN:12999,_RNvCsgotNrKHkAGC_4x0xd13parse_peer_id
FN:4213,_RNvCsgotNrKHkAGC_4x0xd13presence_find
FN:4181,_RNvCsgotNrKHkAGC_4x0xd13presence_foaf
FN:8952,_RNvCsgotNrKHkAGC_4x0xd13require_owner
FN:12135,_RNvCsgotNrKHkAGC_4x0xd13unpin_machine
FN:11791,_RNvCsgotNrKHkAGC_4x0xd14add_mls_member
FN:5142,_RNvCsgotNrKHkAGC_4x0xd14default_expiry
FN:5038,_RNvCsgotNrKHkAGC_4x0xd14delete_contact
FN:4987,_RNvCsgotNrKHkAGC_4x0xd14delete_machine
FN:12979,_RNvCsgotNrKHkAGC_4x0xd14dm_diagnostics
FN:12174,_RNvCsgotNrKHkAGC_4x0xd14evaluate_trust
FN:3751,_RNvCsgotNrKHkAGC_4x0xd14get_agent_card
FN:10081,_RNvCsgotNrKHkAGC_4x0xd14get_group_card
FN:2142,_RNvCsgotNrKHkAGC_4x0xd14list_instances
FN:10961,_RNvCsgotNrKHkAGC_4x0xd14list_kv_stores
FN:3390,_RNvCsgotNrKHkAGC_4x0xd14network_status
FN:8931,_RNvCsgotNrKHkAGC_4x0xd14now_millis_u64
FN:12053,_RNvCsgotNrKHkAGC_4x0xd14revoke_contact
FN:14281,_RNvCsgotNrKHkAGC_4x0xd14send_chunk_ack
FN:4830,_RNvCsgotNrKHkAGC_4x0xd14update_contact
FN:12884,_RNvCsgotNrKHkAGC_4x0xd15ack_diagnostics
FN:2031,_RNvCsgotNrKHkAGC_4x0xd15auth_middleware
FN:11235,_RNvCsgotNrKHkAGC_4x0xd15connect_machine
FN:10974,_RNvCsgotNrKHkAGC_4x0xd15create_kv_store
FN:11141,_RNvCsgotNrKHkAGC_4x0xd15delete_kv_value
FN:9861,_RNvCsgotNrKHkAGC_4x0xd15discover_groups
FN:8667,_RNvCsgotNrKHkAGC_4x0xd15get_group_state
FN:7572,_RNvCsgotNrKHkAGC_4x0xd15get_named_group
FN:11741,_RNvCsgotNrKHkAGC_4x0xd15list_mls_groups
FN:10762,_RNvCsgotNrKHkAGC_4x0xd15list_task_lists
FN:13616,_RNvCsgotNrKHkAGC_4x0xd15make_mls_cipher
FN:4293,_RNvCsgotNrKHkAGC_4x0xd15presence_events
FN:4156,_RNvCsgotNrKHkAGC_4x0xd15presence_online
FN:4257,_RNvCsgotNrKHkAGC_4x0xd15presence_status
FN:5863,_RNvCsgotNrKHkAGC_4x0xd15respond_to_pull
FN:13586,_RNvCsgotNrKHkAGC_4x0xd15save_mls_groups
FN:5786,_RNvCsgotNrKHkAGC_4x0xd15subscribe_shard
FN:9229,_RNvCsgotNrKHkAGC_4x0xd16ban_group_member
FN:11679,_RNvCsgotNrKHkAGC_4x0xd16create_mls_group
FN:10775,_RNvCsgotNrKHkAGC_4x0xd16create_task_list
FN:239,_RNvCsgotNrKHkAGC_4x0xd16default_data_dir
FN:4144,_RNvCsgotNrKHkAGC_4x0xd16default_foaf_ttl
FN:4437,_RNvCsgotNrKHkAGC_4x0xd16discovered_agent
FN:11426,_RNvCsgotNrKHkAGC_4x0xd16exec_diagnostics
FN:12288,_RNvCsgotNrKHkAGC_4x0xd16get_constitution
FN:12074,_RNvCsgotNrKHkAGC_4x0xd16list_revocations
FN:8712,_RNvCsgotNrKHkAGC_4x0xd16seal_group_state
FN:5357,_RNvCsgotNrKHkAGC_4x0xd16secure_share_aad
FN:247,_RNvCsgotNrKHkAGC_4x0xd16shared_cache_dir
FN:2203,_RNvCsgotNrKHkAGC_4x0xd16shutdown_handler
FN:3677,_RNvCsgotNrKHkAGC_4x0xd17announce_identity
FN:256,_RNvCsgotNrKHkAGC_4x0xd17default_log_level
FN:11618,_RNvCsgotNrKHkAGC_4x0xd17direct_events_sse
FN:4401,_RNvCsgotNrKHkAGC_4x0xd17discovered_agents
FN:5846,_RNvCsgotNrKHkAGC_4x0xd17emit_shard_digest
FN:2368,_RNvCsgotNrKHkAGC_4x0xd17file_send_handler
FN:2217,_RNvCsgotNrKHkAGC_4x0xd17file_transfer_now
FN:14167,_RNvCsgotNrKHkAGC_4x0xd17handle_file_chunk
FN:13821,_RNvCsgotNrKHkAGC_4x0xd17handle_file_offer
FN:13406,_RNvCsgotNrKHkAGC_4x0xd17handle_ws_command
FN:3819,_RNvCsgotNrKHkAGC_4x0xd17import_agent_card
FN:10125,_RNvCsgotNrKHkAGC_4x0xd17import_group_card
FN:7552,_RNvCsgotNrKHkAGC_4x0xd17list_named_groups
FN:11841,_RNvCsgotNrKHkAGC_4x0xd17remove_mls_member
FN:13591,_RNvCsgotNrKHkAGC_4x0xd17save_named_groups
FN:2341,_RNvCsgotNrKHkAGC_4x0xd17send_file_message
FN:5834,_RNvCsgotNrKHkAGC_4x0xd17unsubscribe_shard
FN:13212,_RNvCsgotNrKHkAGC_4x0xd17ws_direct_handler
FN:12015,_RNvCsgotNrKHkAGC_4x0xd18agent_reachability
FN:12227,_RNvCsgotNrKHkAGC_4x0xd18create_mls_welcome
FN:7389,_RNvCsgotNrKHkAGC_4x0xd18create_named_group
FN:260,_RNvCsgotNrKHkAGC_4x0xd18default_log_format
FN:11595,_RNvCsgotNrKHkAGC_4x0xd18direct_connections
FN:4541,_RNvCsgotNrKHkAGC_4x0xd18discovered_machine
FN:12912,_RNvCsgotNrKHkAGC_4x0xd18gossip_diagnostics
FN:12945,_RNvCsgotNrKHkAGC_4x0xd18groups_diagnostics
FN:13892,_RNvCsgotNrKHkAGC_4x0xd18handle_file_accept
FN:14129,_RNvCsgotNrKHkAGC_4x0xd18handle_file_reject
FN:9423,_RNvCsgotNrKHkAGC_4x0xd18list_join_requests
FN:4737,_RNvCsgotNrKHkAGC_4x0xd18parse_agent_id_hex
FN:13035,_RNvCsgotNrKHkAGC_4x0xd18probe_peer_handler
FN:13958,_RNvCsgotNrKHkAGC_4x0xd18stream_file_chunks
FN:9366,_RNvCsgotNrKHkAGC_4x0xd18unban_group_member
FN:9128,_RNvCsgotNrKHkAGC_4x0xd18update_member_role
FN:8966,_RNvCsgotNrKHkAGC_4x0xd18update_named_group
FN:12530,_RNvCsgotNrKHkAGC_4x0xd18value_string_field
FN:9793,_RNvCsgotNrKHkAGC_4x0xd19cancel_join_request
FN:8099,_RNvCsgotNrKHkAGC_4x0xd19create_group_invite
FN:9451,_RNvCsgotNrKHkAGC_4x0xd19create_join_request
FN:235,_RNvCsgotNrKHkAGC_4x0xd19default_api_address
FN:746,_RNvCsgotNrKHkAGC_4x0xd19default_trust_level
FN:324,_RNvCsgotNrKHkAGC_4x0xd19default_update_repo
FN:4515,_RNvCsgotNrKHkAGC_4x0xd19discovered_machines
FN:12526,_RNvCsgotNrKHkAGC_4x0xd19duration_millis_u64
FN:2500,_RNvCsgotNrKHkAGC_4x0xd19file_accept_handler
FN:2575,_RNvCsgotNrKHkAGC_4x0xd19file_reject_handler
FN:13783,_RNvCsgotNrKHkAGC_4x0xd19handle_file_message
FN:13153,_RNvCsgotNrKHkAGC_4x0xd19peer_events_handler
FN:13094,_RNvCsgotNrKHkAGC_4x0xd19peer_health_handler
FN:9725,_RNvCsgotNrKHkAGC_4x0xd19reject_join_request
FN:10566,_RNvCsgotNrKHkAGC_4x0xd19secure_group_reseal
FN:9034,_RNvCsgotNrKHkAGC_4x0xd19update_group_policy
FN:14098,_RNvCsgotNrKHkAGC_4x0xd19wait_for_final_acks
FN:9558,_RNvCsgotNrKHkAGC_4x0xd20approve_join_request
FN:7909,_RNvCsgotNrKHkAGC_4x0xd20cache_public_message
FN:228,_RNvCsgotNrKHkAGC_4x0xd20default_bind_address
FN:332,_RNvCsgotNrKHkAGC_4x0xd20default_identity_ttl
FN:3717,_RNvCsgotNrKHkAGC_4x0xd20default_import_trust
FN:14500,_RNvCsgotNrKHkAGC_4x0xd20handle_file_complete
FN:13251,_RNvCsgotNrKHkAGC_4x0xd20handle_ws_connection
FN:4751,_RNvCsgotNrKHkAGC_4x0xd20parse_machine_id_hex
FN:5375,_RNvCsgotNrKHkAGC_4x0xd20publish_secure_share
FN:10419,_RNvCsgotNrKHkAGC_4x0xd20secure_group_decrypt
FN:10315,_RNvCsgotNrKHkAGC_4x0xd20secure_group_encrypt
FN:8761,_RNvCsgotNrKHkAGC_4x0xd20withdraw_group_state
FN:4724,_RNvCsgotNrKHkAGC_4x0xd21agent_user_id_handler
FN:12501,_RNvCsgotNrKHkAGC_4x0xd21bootstrap_cache_stats
FN:13604,_RNvCsgotNrKHkAGC_4x0xd21decode_base64_payload
FN:12297,_RNvCsgotNrKHkAGC_4x0xd21get_constitution_json
FN:481,_RNvCsgotNrKHkAGC_4x0xd21group_card_is_expired
FN:7924,_RNvCsgotNrKHkAGC_4x0xd21ingest_public_message
FN:8172,_RNvCsgotNrKHkAGC_4x0xd21join_group_via_invite
FN:2310,_RNvCsgotNrKHkAGC_4x0xd21wait_for_chunk_window
FN:8443,_RNvCsgotNrKHkAGC_4x0xd22add_named_group_member
FN:4640,_RNvCsgotNrKHkAGC_4x0xd22agents_by_user_handler
FN:9939,_RNvCsgotNrKHkAGC_4x0xd22discover_groups_nearby
FN:4354,_RNvCsgotNrKHkAGC_4x0xd22discovered_agent_entry
FN:2472,_RNvCsgotNrKHkAGC_4x0xd22file_transfers_handler
FN:8939,_RNvCsgotNrKHkAGC_4x0xd22require_admin_or_above
FN:8418,_RNvCsgotNrKHkAGC_4x0xd22set_group_display_name
FN:2125,_RNvCsgotNrKHkAGC_4x0xd22validate_instance_name
FN:14291,_RNvCsgotNrKHkAGC_4x0xd23apply_ready_file_chunks
FN:14157,_RNvCsgotNrKHkAGC_4x0xd23cleanup_failed_transfer
FN:217,_RNvCsgotNrKHkAGC_4x0xd23default_bootstrap_peers
FN:4148,_RNvCsgotNrKHkAGC_4x0xd23default_foaf_timeout_ms
FN:7607,_RNvCsgotNrKHkAGC_4x0xd23get_named_group_members
FN:2354,_RNvCsgotNrKHkAGC_4x0xd23send_file_chunk_message
FN:3233,_RNvCsgotNrKHkAGC_4x0xd23update_skill_if_changed
FN:12709,_RNvCsgotNrKHkAGC_4x0xd24connectivity_diagnostics
FN:4365,_RNvCsgotNrKHkAGC_4x0xd24discovered_machine_entry
FN:472,_RNvCsgotNrKHkAGC_4x0xd24group_card_expiry_millis
FN:5906,_RNvCsgotNrKHkAGC_4x0xd24handle_directory_message
FN:4682,_RNvCsgotNrKHkAGC_4x0xd24machines_by_user_handler
FN:3117,_RNvCsgotNrKHkAGC_4x0xd24run_fallback_github_poll
FN:2844,_RNvCsgotNrKHkAGC_4x0xd24run_startup_update_check
FN:526,_RNvCsgotNrKHkAGC_4x0xd25cache_group_card_if_newer
FN:13386,_RNvCsgotNrKHkAGC_4x0xd25cleanup_ws_topic_if_empty
FN:2231,_RNvCsgotNrKHkAGC_4x0xd25file_transfer_send_config
FN:7842,_RNvCsgotNrKHkAGC_4x0xd25get_group_public_messages
FN:4605,_RNvCsgotNrKHkAGC_4x0xd25machine_for_agent_handler
FN:5423,_RNvCsgotNrKHkAGC_4x0xd25named_group_member_values
FN:485,_RNvCsgotNrKHkAGC_4x0xd25prune_expired_group_cards
FN:8554,_RNvCsgotNrKHkAGC_4x0xd25remove_named_group_member
FN:7665,_RNvCsgotNrKHkAGC_4x0xd25send_group_public_message
FN:2904,_RNvCsgotNrKHkAGC_4x0xd26broadcast_current_manifest
FN:328,_RNvCsgotNrKHkAGC_4x0xd26default_heartbeat_interval
FN:336,_RNvCsgotNrKHkAGC_4x0xd26default_rendezvous_enabled
FN:2224,_RNvCsgotNrKHkAGC_4x0xd26direct_message_send_config
FN:14399,_RNvCsgotNrKHkAGC_4x0xd26finalize_received_transfer
FN:2085,_RNvCsgotNrKHkAGC_4x0xd26load_or_generate_api_token
FN:2950,_RNvCsgotNrKHkAGC_4x0xd26run_gossip_update_listener
FN:6015,_RNvCsgotNrKHkAGC_4x0xd27spawn_directory_resubscribe
FN:224,_RNvCsgotNrKHkAGC_4x0xd28default_port_mapping_enabled
FN:489,_RNvCsgotNrKHkAGC_4x0xd28enforce_group_card_cache_cap
FN:7371,_RNvCsgotNrKHkAGC_4x0xd28ensure_named_group_listeners
FN:2482,_RNvCsgotNrKHkAGC_4x0xd28file_transfer_status_handler
FN:9962,_RNvCsgotNrKHkAGC_4x0xd28list_discovery_subscriptions
FN:5732,_RNvCsgotNrKHkAGC_4x0xd28load_directory_subscriptions
FN:5763,_RNvCsgotNrKHkAGC_4x0xd28save_directory_subscriptions
FN:6207,_RNvCsgotNrKHkAGC_4x0xd29canonical_member_joined_bytes
FN:9987,_RNvCsgotNrKHkAGC_4x0xd29create_discovery_subscription
FN:10054,_RNvCsgotNrKHkAGC_4x0xd29delete_discovery_subscription
FN:3738,_RNvCsgotNrKHkAGC_4x0xd29discover_local_card_addresses
FN:8045,_RNvCsgotNrKHkAGC_4x0xd29spawn_public_message_listener
FN:340,_RNvCsgotNrKHkAGC_4x0xd30default_rendezvous_validity_ms
FN:316,_RNvCsgotNrKHkAGC_4x0xd30default_rollout_window_minutes
FN:5489,_RNvCsgotNrKHkAGC_4x0xd30publish_group_card_with_reseal
FN:541,_RNvCsgotNrKHkAGC_4x0xd30remove_group_card_if_not_stale
FN:5483,_RNvCsgotNrKHkAGC_4x0xd31publish_group_card_to_discovery
FN:6051,_RNvCsgotNrKHkAGC_4x0xd31publish_listed_to_contacts_card
FN:2805,_RNvCsgotNrKHkAGC_4x0xd31release_manifest_payload_digest
FN:12485,_RNvCsgotNrKHkAGC_4x0xd31schedule_restart_after_response
FN:5620,_RNvCsgotNrKHkAGC_4x0xd31spawn_global_discovery_listener
FN:6332,_RNvCsgotNrKHkAGC_4x0xd32apply_named_group_metadata_event
FN:558,_RNvCsgotNrKHkAGC_4x0xd32group_card_supersedes_group_info
FN:518,_RNvCsgotNrKHkAGC_4x0xd32prune_and_bound_group_card_cache
FN:10690,_RNvCsgotNrKHkAGC_4x0xd32secure_open_envelope_adversarial
FN:6105,_RNvCsgotNrKHkAGC_4x0xd33spawn_listed_to_contacts_listener
FN:6236,_RNvCsgotNrKHkAGC_4x0xd34publish_named_group_metadata_event
FN:6281,_RNvCsgotNrKHkAGC_4x0xd34refresh_group_card_cache_from_info
FN:6251,_RNvCsgotNrKHkAGC_4x0xd34stop_named_group_metadata_listener
FN:2809,_RNvCsgotNrKHkAGC_4x0xd35decide_release_manifest_rebroadcast
FN:7302,_RNvCsgotNrKHkAGC_4x0xd36ensure_named_group_metadata_listener
FN:7993,_RNvCsgotNrKHkAGC_4x0xd36spawn_global_public_message_listener
FN:5496,_RNvCsgotNrKHkAGC_4x0xd37publish_group_card_to_discovery_inner
FN:320,_RNvCsgotNrKHkAGC_4x0xd39default_fallback_check_interval_minutes
FN:566,_RNvCsgotNrKHkAGC_4x0xd40apply_withdrawn_group_card_to_group_info
FN:6308,_RNvCsgotNrKHkAGC_4x0xd43maybe_publish_group_card_after_state_change
FN:1057,_RNvCsgotNrKHkAGC_4x0xd4main
FN:3939,_RNvCsgotNrKHkAGC_4x0xd5peers
FN:3290,_RNvCsgotNrKHkAGC_4x0xd6health
FN:3305,_RNvCsgotNrKHkAGC_4x0xd6status
FN:3961,_RNvCsgotNrKHkAGC_4x0xd7publish
FN:10834,_RNvCsgotNrKHkAGC_4x0xd8add_task
FN:11300,_RNvCsgotNrKHkAGC_4x0xd8exec_run
FN:4117,_RNvCsgotNrKHkAGC_4x0xd8presence
FN:10928,_RNvCsgotNrKHkAGC_4x0xd9serve_gui
FN:4001,_RNvCsgotNrKHkAGC_4x0xd9subscribe
FN:2283,_RNvMs0_CsgotNrKHkAGC_4x0xdNtB5_16FileChunkAckSlot10record_ack
FN:2276,_RNvMs0_CsgotNrKHkAGC_4x0xdNtB5_16FileChunkAckSlot3new
FN:2779,_RNvMs1_CsgotNrKHkAGC_4x0xdNtB5_29SelfPublishedReleaseManifests14record_payload
FN:2785,_RNvMs1_CsgotNrKHkAGC_4x0xdNtB5_29SelfPublishedReleaseManifests22contains_recent_digest
FN:2790,_RNvMs1_CsgotNrKHkAGC_4x0xdNtB5_29SelfPublishedReleaseManifests5prune
FN:6218,_RNvNvCsgotNrKHkAGC_4x0xd29canonical_member_joined_bytes7push_lp
FN:299,_RNvXCsgotNrKHkAGC_4x0xdNtB2_18DaemonUpdateConfigNtNtCsl8K0bEFm1U0_4core7default7Default7default
FN:5135,_RNvXs2_CsgotNrKHkAGC_4x0xdNtB5_19CreateInviteRequestNtNtCsl8K0bEFm1U0_4core7default7Default7default
FN:345,_RNvXs_CsgotNrKHkAGC_4x0xdNtB4_12DaemonConfigNtNtCsl8K0bEFm1U0_4core7default7Default7default
FNDA:0,_RINvCsgotNrKHkAGC_4x0xd19parse_optional_jsonNtB2_19CreateInviteRequestEB2_
FNDA:0,_RINvCsgotNrKHkAGC_4x0xd19parse_optional_jsonNtB2_23AnnounceIdentityRequestEB2_
FNDA:0,_RINvCsgotNrKHkAGC_4x0xd29apply_stateful_event_to_groupNCNCNvB2_32apply_named_group_metadata_event0s0_0EB2_
FNDA:0,_RINvCsgotNrKHkAGC_4x0xd29apply_stateful_event_to_groupNCNCNvB2_32apply_named_group_metadata_event0s1_0EB2_
FNDA:0,_RINvCsgotNrKHkAGC_4x0xd29apply_stateful_event_to_groupNCNCNvB2_32apply_named_group_metadata_event0s2_0EB2_
FNDA:0,_RINvCsgotNrKHkAGC_4x0xd29apply_stateful_event_to_groupNCNCNvB2_32apply_named_group_metadata_event0s4_0EB2_
FNDA:0,_RINvCsgotNrKHkAGC_4x0xd29apply_stateful_event_to_groupNCNCNvB2_32apply_named_group_metadata_event0s6_0EB2_
FNDA:0,_RINvCsgotNrKHkAGC_4x0xd29apply_stateful_event_to_groupNCNCNvB2_32apply_named_group_metadata_event0s8_0EB2_
FNDA:0,_RINvCsgotNrKHkAGC_4x0xd29apply_stateful_event_to_groupNCNCNvB2_32apply_named_group_metadata_event0s_0EB2_
FNDA:0,_RINvCsgotNrKHkAGC_4x0xd29apply_stateful_event_to_groupNCNCNvB2_32apply_named_group_metadata_event0sa_0EB2_
FNDA:0,_RINvCsgotNrKHkAGC_4x0xd29apply_stateful_event_to_groupNCNCNvB2_32apply_named_group_metadata_event0sc_0EB2_
FNDA:0,_RINvCsgotNrKHkAGC_4x0xd29apply_stateful_event_to_groupNCNCNvB2_32apply_named_group_metadata_event0se_0EB2_
FNDA:0,_RINvCsgotNrKHkAGC_4x0xd29apply_stateful_event_to_groupNCNCNvB2_32apply_named_group_metadata_event0sf_0EB2_
FNDA:0,_RINvCsgotNrKHkAGC_4x0xd29apply_stateful_event_to_groupNCNCNvB2_32apply_named_group_metadata_event0sh_0EB2_
FNDA:0,_RINvCsgotNrKHkAGC_4x0xd32augment_pubsub_stage_diagnosticsNtCs1A7Ozfhzzdv_20saorsa_gossip_pubsub24PubSubStageStatsSnapshotEB2_
FNDA:0,_RNCINvCsgotNrKHkAGC_4x0xd19parse_optional_jsonNtB4_19CreateInviteRequestE0B4_
FNDA:0,_RNCINvCsgotNrKHkAGC_4x0xd19parse_optional_jsonNtB4_19CreateInviteRequestEs0_0B4_
FNDA:0,_RNCINvCsgotNrKHkAGC_4x0xd19parse_optional_jsonNtB4_19CreateInviteRequestEs_0B4_
FNDA:0,_RNCINvCsgotNrKHkAGC_4x0xd19parse_optional_jsonNtB4_23AnnounceIdentityRequestE0B4_
FNDA:0,_RNCINvCsgotNrKHkAGC_4x0xd19parse_optional_jsonNtB4_23AnnounceIdentityRequestEs0_0B4_
FNDA:0,_RNCINvCsgotNrKHkAGC_4x0xd19parse_optional_jsonNtB4_23AnnounceIdentityRequestEs_0B4_
FNDA:0,_RNCINvCsgotNrKHkAGC_4x0xd32augment_pubsub_stage_diagnosticsNtCs1A7Ozfhzzdv_20saorsa_gossip_pubsub24PubSubStageStatsSnapshotE0B4_
FNDA:0,_RNCINvCsgotNrKHkAGC_4x0xd32augment_pubsub_stage_diagnosticsNtCs1A7Ozfhzzdv_20saorsa_gossip_pubsub24PubSubStageStatsSnapshotEs0_0B4_
FNDA:0,_RNCINvCsgotNrKHkAGC_4x0xd32augment_pubsub_stage_diagnosticsNtCs1A7Ozfhzzdv_20saorsa_gossip_pubsub24PubSubStageStatsSnapshotEs1_0B4_
FNDA:0,_RNCINvCsgotNrKHkAGC_4x0xd32augment_pubsub_stage_diagnosticsNtCs1A7Ozfhzzdv_20saorsa_gossip_pubsub24PubSubStageStatsSnapshotEs2_0B4_
FNDA:0,_RNCINvCsgotNrKHkAGC_4x0xd32augment_pubsub_stage_diagnosticsNtCs1A7Ozfhzzdv_20saorsa_gossip_pubsub24PubSubStageStatsSnapshotEs3_0B4_
FNDA:0,_RNCINvCsgotNrKHkAGC_4x0xd32augment_pubsub_stage_diagnosticsNtCs1A7Ozfhzzdv_20saorsa_gossip_pubsub24PubSubStageStatsSnapshotEs4_0B4_
FNDA:0,_RNCINvCsgotNrKHkAGC_4x0xd32augment_pubsub_stage_diagnosticsNtCs1A7Ozfhzzdv_20saorsa_gossip_pubsub24PubSubStageStatsSnapshotEs5_0B4_
FNDA:0,_RNCINvCsgotNrKHkAGC_4x0xd32augment_pubsub_stage_diagnosticsNtCs1A7Ozfhzzdv_20saorsa_gossip_pubsub24PubSubStageStatsSnapshotEs_0B4_
FNDA:0,_RNCNCNCNCNvCsgotNrKHkAGC_4x0xd21ingest_public_message0000B9_
FNDA:0,_RNCNCNCNvCsgotNrKHkAGC_4x0xd10list_tasks000B7_
FNDA:0,_RNCNCNCNvCsgotNrKHkAGC_4x0xd10run_doctor0s1_00B7_
FNDA:0,_RNCNCNCNvCsgotNrKHkAGC_4x0xd12introduction000B7_
FNDA:0,_RNCNCNCNvCsgotNrKHkAGC_4x0xd15discover_groups0s_00B7_
FNDA:0,_RNCNCNCNvCsgotNrKHkAGC_4x0xd15presence_events00s_0B7_
FNDA:0,_RNCNCNCNvCsgotNrKHkAGC_4x0xd15respond_to_pull000B7_
FNDA:0,_RNCNCNCNvCsgotNrKHkAGC_4x0xd16list_revocations000B7_
FNDA:0,_RNCNCNCNvCsgotNrKHkAGC_4x0xd17direct_events_sse0s_0s1_0B7_
FNDA:0,_RNCNCNCNvCsgotNrKHkAGC_4x0xd17handle_ws_command000B7_
FNDA:0,_RNCNCNCNvCsgotNrKHkAGC_4x0xd18stream_file_chunks000B7_
FNDA:0,_RNCNCNCNvCsgotNrKHkAGC_4x0xd19peer_events_handler00s_0B7_
FNDA:0,_RNCNCNCNvCsgotNrKHkAGC_4x0xd20approve_join_request000B7_
FNDA:0,_RNCNCNCNvCsgotNrKHkAGC_4x0xd20handle_ws_connection0s_00B7_
FNDA:0,_RNCNCNCNvCsgotNrKHkAGC_4x0xd21ingest_public_message000B7_
FNDA:0,_RNCNCNCNvCsgotNrKHkAGC_4x0xd32apply_named_group_metadata_event0sa_00B7_
FNDA:0,_RNCNCNCNvCsgotNrKHkAGC_4x0xd32apply_named_group_metadata_event0sa_0s_0B7_
FNDA:0,_RNCNCNCNvCsgotNrKHkAGC_4x0xd4main0sf_00B7_
FNDA:0,_RNCNCNCNvCsgotNrKHkAGC_4x0xd4main0sf_0s_0B7_
FNDA:0,_RNCNCNCNvCsgotNrKHkAGC_4x0xd4main0so_00B7_
FNDA:0,_RNCNCNCNvCsgotNrKHkAGC_4x0xd9subscribe00s0_0B7_
FNDA:0,_RNCNCNCNvCsgotNrKHkAGC_4x0xd9subscribe00s_0B7_
FNDA:0,_RNCNCNvCsgotNrKHkAGC_4x0xd10agent_info00B5_
FNDA:0,_RNCNCNvCsgotNrKHkAGC_4x0xd10find_agent00B5_
FNDA:0,_RNCNCNvCsgotNrKHkAGC_4x0xd10list_tasks00B5_
FNDA:0,_RNCNCNvCsgotNrKHkAGC_4x0xd10run_doctor00B5_
FNDA:0,_RNCNCNvCsgotNrKHkAGC_4x0xd10run_doctor0s0_0B5_
FNDA:0,_RNCNCNvCsgotNrKHkAGC_4x0xd10run_doctor0s1_0B5_
FNDA:0,_RNCNCNvCsgotNrKHkAGC_4x0xd10run_doctor0s2_0B5_
FNDA:0,_RNCNCNvCsgotNrKHkAGC_4x0xd10run_doctor0s3_0B5_
FNDA:0,_RNCNCNvCsgotNrKHkAGC_4x0xd10run_doctor0s4_0B5_
FNDA:0,_RNCNCNvCsgotNrKHkAGC_4x0xd10run_doctor0s5_0B5_
FNDA:0,_RNCNCNvCsgotNrKHkAGC_4x0xd10run_doctor0s_0B5_
FNDA:0,_RNCNCNvCsgotNrKHkAGC_4x0xd10ws_handler00B5_
FNDA:0,_RNCNCNvCsgotNrKHkAGC_4x0xd11add_contact00B5_
FNDA:0,_RNCNCNvCsgotNrKHkAGC_4x0xd11add_machine00B5_
FNDA:0,_RNCNCNvCsgotNrKHkAGC_4x0xd11add_machine0s0_0B5_
FNDA:0,_RNCNCNvCsgotNrKHkAGC_4x0xd11load_config00B5_
FNDA:0,_RNCNCNvCsgotNrKHkAGC_4x0xd11load_config0s_0B5_
FNDA:0,_RNCNCNvCsgotNrKHkAGC_4x0xd11ws_sessions00B5_
FNDA:0,_RNCNCNvCsgotNrKHkAGC_4x0xd11ws_sessions0s_0B5_
FNDA:0,_RNCNCNvCsgotNrKHkAGC_4x0xd12introduction00B5_
FNDA:0,_RNCNCNvCsgotNrKHkAGC_4x0xd12introduction0s0_0B5_
FNDA:0,_RNCNCNvCsgotNrKHkAGC_4x0xd12introduction0s1_0B5_
FNDA:0,_RNCNCNvCsgotNrKHkAGC_4x0xd12introduction0s2_0B5_
FNDA:0,_RNCNCNvCsgotNrKHkAGC_4x0xd12introduction0s3_0B5_
FNDA:0,_RNCNCNvCsgotNrKHkAGC_4x0xd12introduction0s4_0B5_
FNDA:0,_RNCNCNvCsgotNrKHkAGC_4x0xd12introduction0s5_0B5_
FNDA:0,_RNCNCNvCsgotNrKHkAGC_4x0xd12introduction0s_0B5_
FNDA:0,_RNCNCNvCsgotNrKHkAGC_4x0xd12list_kv_keys00B5_
FNDA:0,_RNCNCNvCsgotNrKHkAGC_4x0xd12put_kv_value00B5_
FNDA:0,_RNCNCNvCsgotNrKHkAGC_4x0xd13get_mls_group00B5_
FNDA:0,_RNCNCNvCsgotNrKHkAGC_4x0xd13list_contacts00B5_
FNDA:0,_RNCNCNvCsgotNrKHkAGC_4x0xd13list_machines00B5_
FNDA:0,_RNCNCNvCsgotNrKHkAGC_4x0xd14get_agent_card00B5_
FNDA:0,_RNCNCNvCsgotNrKHkAGC_4x0xd14get_agent_card0s0_0B5_
FNDA:0,_RNCNCNvCsgotNrKHkAGC_4x0xd14get_agent_card0s_0B5_
FNDA:0,_RNCNCNvCsgotNrKHkAGC_4x0xd14list_instances00B5_
FNDA:0,_RNCNCNvCsgotNrKHkAGC_4x0xd14list_kv_stores00B5_
FNDA:0,_RNCNCNvCsgotNrKHkAGC_4x0xd14network_status00B5_
FNDA:0,_RNCNCNvCsgotNrKHkAGC_4x0xd15discover_groups00B5_
FNDA:0,_RNCNCNvCsgotNrKHkAGC_4x0xd15discover_groups0s_0B5_
FNDA:0,_RNCNCNvCsgotNrKHkAGC_4x0xd15list_mls_groups00B5_
FNDA:0,_RNCNCNvCsgotNrKHkAGC_4x0xd15list_task_lists00B5_
FNDA:0,_RNCNCNvCsgotNrKHkAGC_4x0xd15respond_to_pull00B5_
FNDA:0,_RNCNCNvCsgotNrKHkAGC_4x0xd15subscribe_shard00B5_
FNDA:0,_RNCNCNvCsgotNrKHkAGC_4x0xd16ban_group_member00B5_
FNDA:0,_RNCNCNvCsgotNrKHkAGC_4x0xd16create_mls_group00B5_
FNDA:0,_RNCNCNvCsgotNrKHkAGC_4x0xd16discovered_agent00B5_
FNDA:0,_RNCNCNvCsgotNrKHkAGC_4x0xd16list_revocations00B5_
FNDA:0,_RNCNCNvCsgotNrKHkAGC_4x0xd16seal_group_state00B5_
FNDA:0,_RNCNCNvCsgotNrKHkAGC_4x0xd17file_send_handler00B5_
FNDA:0,_RNCNCNvCsgotNrKHkAGC_4x0xd17file_send_handler0s0_0B5_
FNDA:0,_RNCNCNvCsgotNrKHkAGC_4x0xd17file_send_handler0s1_0B5_
FNDA:0,_RNCNCNvCsgotNrKHkAGC_4x0xd17file_send_handler0s2_0B5_
FNDA:0,_RNCNCNvCsgotNrKHkAGC_4x0xd17file_send_handler0s_0B5_
FNDA:0,_RNCNCNvCsgotNrKHkAGC_4x0xd17handle_ws_command00B5_
FNDA:0,_RNCNCNvCsgotNrKHkAGC_4x0xd17handle_ws_command0s0_0B5_
FNDA:0,_RNCNCNvCsgotNrKHkAGC_4x0xd17handle_ws_command0s_0B5_
FNDA:0,_RNCNCNvCsgotNrKHkAGC_4x0xd17import_agent_card00B5_
FNDA:0,_RNCNCNvCsgotNrKHkAGC_4x0xd17import_agent_card0s0_0B5_
FNDA:0,_RNCNCNvCsgotNrKHkAGC_4x0xd17import_agent_card0s_0B5_
FNDA:0,_RNCNCNvCsgotNrKHkAGC_4x0xd17import_group_card00B5_
FNDA:0,_RNCNCNvCsgotNrKHkAGC_4x0xd17import_group_card0s0_0B5_
FNDA:0,_RNCNCNvCsgotNrKHkAGC_4x0xd17import_group_card0s_0B5_
FNDA:0,_RNCNCNvCsgotNrKHkAGC_4x0xd17list_named_groups00B5_
FNDA:0,_RNCNCNvCsgotNrKHkAGC_4x0xd17send_file_message00B5_
FNDA:0,_RNCNCNvCsgotNrKHkAGC_4x0xd17send_file_message0s_0B5_
FNDA:0,_RNCNCNvCsgotNrKHkAGC_4x0xd17ws_direct_handler00B5_
FNDA:0,_RNCNCNvCsgotNrKHkAGC_4x0xd18agent_reachability00B5_
FNDA:0,_RNCNCNvCsgotNrKHkAGC_4x0xd18create_named_group00B5_
FNDA:0,_RNCNCNvCsgotNrKHkAGC_4x0xd18create_named_group0s0_0B5_
FNDA:0,_RNCNCNvCsgotNrKHkAGC_4x0xd18create_named_group0s_0B5_
FNDA:0,_RNCNCNvCsgotNrKHkAGC_4x0xd18direct_connections00B5_
FNDA:0,_RNCNCNvCsgotNrKHkAGC_4x0xd18handle_file_accept00B5_
FNDA:0,_RNCNCNvCsgotNrKHkAGC_4x0xd18list_join_requests0s_0B5_
FNDA:0,_RNCNCNvCsgotNrKHkAGC_4x0xd18stream_file_chunks00B5_
FNDA:0,_RNCNCNvCsgotNrKHkAGC_4x0xd18update_member_role00B5_
FNDA:0,_RNCNCNvCsgotNrKHkAGC_4x0xd19create_group_invite00B5_
FNDA:0,_RNCNCNvCsgotNrKHkAGC_4x0xd19create_join_request0s_0B5_
FNDA:0,_RNCNCNvCsgotNrKHkAGC_4x0xd19file_reject_handler00B5_
FNDA:0,_RNCNCNvCsgotNrKHkAGC_4x0xd19file_reject_handler0s_0B5_
FNDA:0,_RNCNCNvCsgotNrKHkAGC_4x0xd19peer_health_handler00B5_
FNDA:0,_RNCNCNvCsgotNrKHkAGC_4x0xd19peer_health_handler0s0_0B5_
FNDA:0,_RNCNCNvCsgotNrKHkAGC_4x0xd19peer_health_handler0s1_0B5_
FNDA:0,_RNCNCNvCsgotNrKHkAGC_4x0xd19peer_health_handler0s_0B5_
FNDA:0,_RNCNCNvCsgotNrKHkAGC_4x0xd20approve_join_request00B5_
FNDA:0,_RNCNCNvCsgotNrKHkAGC_4x0xd20cache_public_message00B5_
FNDA:0,_RNCNCNvCsgotNrKHkAGC_4x0xd20handle_ws_connection00B5_
FNDA:0,_RNCNCNvCsgotNrKHkAGC_4x0xd20handle_ws_connection0s0_0B5_
FNDA:0,_RNCNCNvCsgotNrKHkAGC_4x0xd20handle_ws_connection0s_0B5_
FNDA:0,_RNCNCNvCsgotNrKHkAGC_4x0xd21agent_user_id_handler00B5_
FNDA:0,_RNCNCNvCsgotNrKHkAGC_4x0xd21bootstrap_cache_stats00B5_
FNDA:0,_RNCNCNvCsgotNrKHkAGC_4x0xd21ingest_public_message00B5_
FNDA:0,_RNCNCNvCsgotNrKHkAGC_4x0xd21ingest_public_message0s_0B5_
FNDA:0,_RNCNCNvCsgotNrKHkAGC_4x0xd21join_group_via_invite00B5_
FNDA:0,_RNCNCNvCsgotNrKHkAGC_4x0xd21join_group_via_invite0s0_0B5_
FNDA:0,_RNCNCNvCsgotNrKHkAGC_4x0xd21join_group_via_invite0s1_0B5_
FNDA:0,_RNCNCNvCsgotNrKHkAGC_4x0xd21join_group_via_invite0s_0B5_
FNDA:0,_RNCNCNvCsgotNrKHkAGC_4x0xd23apply_ready_file_chunks00B5_
FNDA:0,_RNCNCNvCsgotNrKHkAGC_4x0xd23apply_ready_file_chunks0s0_0B5_
FNDA:0,_RNCNCNvCsgotNrKHkAGC_4x0xd23apply_ready_file_chunks0s1_0B5_
FNDA:0,_RNCNCNvCsgotNrKHkAGC_4x0xd23apply_ready_file_chunks0s2_0B5_
FNDA:0,_RNCNCNvCsgotNrKHkAGC_4x0xd23apply_ready_file_chunks0s_0B5_
FNDA:0,_RNCNCNvCsgotNrKHkAGC_4x0xd23send_file_chunk_message00B5_
FNDA:0,_RNCNCNvCsgotNrKHkAGC_4x0xd23send_file_chunk_message0s_0B5_
FNDA:0,_RNCNCNvCsgotNrKHkAGC_4x0xd24connectivity_diagnostics00B5_
FNDA:0,_RNCNCNvCsgotNrKHkAGC_4x0xd24connectivity_diagnostics0s0_0B5_
FNDA:0,_RNCNCNvCsgotNrKHkAGC_4x0xd24connectivity_diagnostics0s1_0B5_
FNDA:0,_RNCNCNvCsgotNrKHkAGC_4x0xd24connectivity_diagnostics0s2_0B5_
FNDA:0,_RNCNCNvCsgotNrKHkAGC_4x0xd24connectivity_diagnostics0s_0B5_
FNDA:0,_RNCNCNvCsgotNrKHkAGC_4x0xd24run_fallback_github_poll00B5_
FNDA:0,_RNCNCNvCsgotNrKHkAGC_4x0xd24run_startup_update_check00B5_
FNDA:0,_RNCNCNvCsgotNrKHkAGC_4x0xd24run_startup_update_check0s_0B5_
FNDA:0,_RNCNCNvCsgotNrKHkAGC_4x0xd25named_group_member_valuess0_00B5_
FNDA:0,_RNCNCNvCsgotNrKHkAGC_4x0xd25send_group_public_message00B5_
FNDA:0,_RNCNCNvCsgotNrKHkAGC_4x0xd26finalize_received_transfer00B5_
FNDA:0,_RNCNCNvCsgotNrKHkAGC_4x0xd26finalize_received_transfer0s0_0B5_
FNDA:0,_RNCNCNvCsgotNrKHkAGC_4x0xd26finalize_received_transfer0s1_0B5_
FNDA:0,_RNCNCNvCsgotNrKHkAGC_4x0xd26finalize_received_transfer0s_0B5_
FNDA:0,_RNCNCNvCsgotNrKHkAGC_4x0xd27spawn_directory_resubscribe00B5_
FNDA:0,_RNCNCNvCsgotNrKHkAGC_4x0xd28enforce_group_card_cache_caps_00B5_
FNDA:0,_RNCNCNvCsgotNrKHkAGC_4x0xd28enforce_group_card_cache_caps_0s0_0B5_
FNDA:0,_RNCNCNvCsgotNrKHkAGC_4x0xd28enforce_group_card_cache_caps_0s_0B5_
FNDA:0,_RNCNCNvCsgotNrKHkAGC_4x0xd28ensure_named_group_listeners00B5_
FNDA:0,_RNCNCNvCsgotNrKHkAGC_4x0xd29spawn_public_message_listener00B5_
FNDA:0,_RNCNCNvCsgotNrKHkAGC_4x0xd31spawn_global_discovery_listener00B5_
FNDA:0,_RNCNCNvCsgotNrKHkAGC_4x0xd32apply_named_group_metadata_event00B5_
FNDA:0,_RNCNCNvCsgotNrKHkAGC_4x0xd32apply_named_group_metadata_event0s0_0B5_
FNDA:0,_RNCNCNvCsgotNrKHkAGC_4x0xd32apply_named_group_metadata_event0s1_0B5_
FNDA:0,_RNCNCNvCsgotNrKHkAGC_4x0xd32apply_named_group_metadata_event0s2_0B5_
FNDA:0,_RNCNCNvCsgotNrKHkAGC_4x0xd32apply_named_group_metadata_event0s3_0B5_
FNDA:0,_RNCNCNvCsgotNrKHkAGC_4x0xd32apply_named_group_metadata_event0s4_0B5_
FNDA:0,_RNCNCNvCsgotNrKHkAGC_4x0xd32apply_named_group_metadata_event0s5_0B5_
FNDA:0,_RNCNCNvCsgotNrKHkAGC_4x0xd32apply_named_group_metadata_event0s6_0B5_
FNDA:0,_RNCNCNvCsgotNrKHkAGC_4x0xd32apply_named_group_metadata_event0s7_0B5_
FNDA:0,_RNCNCNvCsgotNrKHkAGC_4x0xd32apply_named_group_metadata_event0s8_0B5_
FNDA:0,_RNCNCNvCsgotNrKHkAGC_4x0xd32apply_named_group_metadata_event0s9_0B5_
FNDA:0,_RNCNCNvCsgotNrKHkAGC_4x0xd32apply_named_group_metadata_event0s_0B5_
FNDA:0,_RNCNCNvCsgotNrKHkAGC_4x0xd32apply_named_group_metadata_event0sa_0B5_
FNDA:0,_RNCNCNvCsgotNrKHkAGC_4x0xd32apply_named_group_metadata_event0sb_0B5_
FNDA:0,_RNCNCNvCsgotNrKHkAGC_4x0xd32apply_named_group_metadata_event0sc_0B5_
FNDA:0,_RNCNCNvCsgotNrKHkAGC_4x0xd32apply_named_group_metadata_event0sd_0B5_
FNDA:0,_RNCNCNvCsgotNrKHkAGC_4x0xd32apply_named_group_metadata_event0se_0B5_
FNDA:0,_RNCNCNvCsgotNrKHkAGC_4x0xd32apply_named_group_metadata_event0sf_0B5_
FNDA:0,_RNCNCNvCsgotNrKHkAGC_4x0xd32apply_named_group_metadata_event0sg_0B5_
FNDA:0,_RNCNCNvCsgotNrKHkAGC_4x0xd32apply_named_group_metadata_event0sh_0B5_
FNDA:0,_RNCNCNvCsgotNrKHkAGC_4x0xd32apply_named_group_metadata_event0si_0B5_
FNDA:0,_RNCNCNvCsgotNrKHkAGC_4x0xd32apply_named_group_metadata_event0sj_0B5_
FNDA:0,_RNCNCNvCsgotNrKHkAGC_4x0xd33spawn_listed_to_contacts_listener00B5_
FNDA:0,_RNCNCNvCsgotNrKHkAGC_4x0xd36ensure_named_group_metadata_listener00B5_
FNDA:0,_RNCNCNvCsgotNrKHkAGC_4x0xd36ensure_named_group_metadata_listener0s_0B5_
FNDA:0,_RNCNCNvCsgotNrKHkAGC_4x0xd36spawn_global_public_message_listener00B5_
FNDA:0,_RNCNCNvCsgotNrKHkAGC_4x0xd4main00B5_
FNDA:0,_RNCNCNvCsgotNrKHkAGC_4x0xd4main0s0_0B5_
FNDA:0,_RNCNCNvCsgotNrKHkAGC_4x0xd4main0s1_0B5_
FNDA:0,_RNCNCNvCsgotNrKHkAGC_4x0xd4main0s2_0B5_
FNDA:0,_RNCNCNvCsgotNrKHkAGC_4x0xd4main0s3_0B5_
FNDA:0,_RNCNCNvCsgotNrKHkAGC_4x0xd4main0s4_0B5_
FNDA:0,_RNCNCNvCsgotNrKHkAGC_4x0xd4main0s5_0B5_
FNDA:0,_RNCNCNvCsgotNrKHkAGC_4x0xd4main0s6_0B5_
FNDA:0,_RNCNCNvCsgotNrKHkAGC_4x0xd4main0s7_0B5_
FNDA:0,_RNCNCNvCsgotNrKHkAGC_4x0xd4main0s8_0B5_
FNDA:0,_RNCNCNvCsgotNrKHkAGC_4x0xd4main0s9_0B5_
FNDA:0,_RNCNCNvCsgotNrKHkAGC_4x0xd4main0s_0B5_
FNDA:0,_RNCNCNvCsgotNrKHkAGC_4x0xd4main0sa_0B5_
FNDA:0,_RNCNCNvCsgotNrKHkAGC_4x0xd4main0sb_0B5_
FNDA:0,_RNCNCNvCsgotNrKHkAGC_4x0xd4main0sc_0B5_
FNDA:0,_RNCNCNvCsgotNrKHkAGC_4x0xd4main0sd_0B5_
FNDA:0,_RNCNCNvCsgotNrKHkAGC_4x0xd4main0se_0B5_
FNDA:0,_RNCNCNvCsgotNrKHkAGC_4x0xd4main0sf_0B5_
FNDA:0,_RNCNCNvCsgotNrKHkAGC_4x0xd4main0sg_0B5_
FNDA:0,_RNCNCNvCsgotNrKHkAGC_4x0xd4main0sh_0B5_
FNDA:0,_RNCNCNvCsgotNrKHkAGC_4x0xd4main0si_0B5_
FNDA:0,_RNCNCNvCsgotNrKHkAGC_4x0xd4main0sj_0B5_
FNDA:0,_RNCNCNvCsgotNrKHkAGC_4x0xd4main0sk_0B5_
FNDA:0,_RNCNCNvCsgotNrKHkAGC_4x0xd4main0sl_0B5_
FNDA:0,_RNCNCNvCsgotNrKHkAGC_4x0xd4main0sm_0B5_
FNDA:0,_RNCNCNvCsgotNrKHkAGC_4x0xd4main0sn_0B5_
FNDA:0,_RNCNCNvCsgotNrKHkAGC_4x0xd4main0so_0B5_
FNDA:0,_RNCNCNvCsgotNrKHkAGC_4x0xd5peers00B5_
FNDA:0,_RNCNCNvCsgotNrKHkAGC_4x0xd6health00B5_
FNDA:0,_RNCNCNvCsgotNrKHkAGC_4x0xd6status00B5_
FNDA:0,_RNCNCNvCsgotNrKHkAGC_4x0xd8exec_run00B5_
FNDA:0,_RNCNCNvCsgotNrKHkAGC_4x0xd8exec_run0s_0B5_
FNDA:0,_RNCNCNvCsgotNrKHkAGC_4x0xd8presence00B5_
FNDA:0,_RNCNCNvCsgotNrKHkAGC_4x0xd9subscribe00B5_
FNDA:0,_RNCNvCsgotNrKHkAGC_4x0xd10agent_info0B3_
FNDA:0,_RNCNvCsgotNrKHkAGC_4x0xd10events_sse0B3_
FNDA:0,_RNCNvCsgotNrKHkAGC_4x0xd10find_agent0B3_
FNDA:0,_RNCNvCsgotNrKHkAGC_4x0xd10list_tasks0B3_
FNDA:0,_RNCNvCsgotNrKHkAGC_4x0xd10run_doctor0B3_
FNDA:0,_RNCNvCsgotNrKHkAGC_4x0xd10ws_handler0B3_
FNDA:0,_RNCNvCsgotNrKHkAGC_4x0xd11add_contact0B3_
FNDA:0,_RNCNvCsgotNrKHkAGC_4x0xd11add_machine0B3_
FNDA:0,_RNCNvCsgotNrKHkAGC_4x0xd11direct_send0B3_
FNDA:0,_RNCNvCsgotNrKHkAGC_4x0xd11exec_cancel0B3_
FNDA:0,_RNCNvCsgotNrKHkAGC_4x0xd11leave_group0B3_
FNDA:0,_RNCNvCsgotNrKHkAGC_4x0xd11load_config0B3_
FNDA:0,_RNCNvCsgotNrKHkAGC_4x0xd11mls_decrypt0B3_
FNDA:0,_RNCNvCsgotNrKHkAGC_4x0xd11mls_encrypt0B3_
FNDA:0,_RNCNvCsgotNrKHkAGC_4x0xd11pin_machine0B3_
FNDA:0,_RNCNvCsgotNrKHkAGC_4x0xd11quick_trust0B3_
FNDA:0,_RNCNvCsgotNrKHkAGC_4x0xd11unsubscribe0B3_
FNDA:0,_RNCNvCsgotNrKHkAGC_4x0xd11update_task0B3_
FNDA:0,_RNCNvCsgotNrKHkAGC_4x0xd11ws_sessions0B3_
FNDA:0,_RNCNvCsgotNrKHkAGC_4x0xd12get_kv_value0B3_
FNDA:0,_RNCNvCsgotNrKHkAGC_4x0xd12init_logging0B3_
FNDA:0,_RNCNvCsgotNrKHkAGC_4x0xd12init_loggings_0B3_
FNDA:0,_RNCNvCsgotNrKHkAGC_4x0xd12introduction0B3_
FNDA:0,_RNCNvCsgotNrKHkAGC_4x0xd12list_kv_keys0B3_
FNDA:0,_RNCNvCsgotNrKHkAGC_4x0xd12put_kv_value0B3_
FNDA:0,_RNCNvCsgotNrKHkAGC_4x0xd13apply_upgrade0B3_
FNDA:0,_RNCNvCsgotNrKHkAGC_4x0xd13check_upgrade0B3_
FNDA:0,_RNCNvCsgotNrKHkAGC_4x0xd13connect_agent0B3_
FNDA:0,_RNCNvCsgotNrKHkAGC_4x0xd13exec_sessions0B3_
FNDA:0,_RNCNvCsgotNrKHkAGC_4x0xd13get_mls_group0B3_
FNDA:0,_RNCNvCsgotNrKHkAGC_4x0xd13join_kv_store0B3_
FNDA:0,_RNCNvCsgotNrKHkAGC_4x0xd13list_contacts0B3_
FNDA:0,_RNCNvCsgotNrKHkAGC_4x0xd13list_machines0B3_
FNDA:0,_RNCNvCsgotNrKHkAGC_4x0xd13parse_peer_id0B3_
FNDA:0,_RNCNvCsgotNrKHkAGC_4x0xd13presence_find0B3_
FNDA:0,_RNCNvCsgotNrKHkAGC_4x0xd13presence_foaf0B3_
FNDA:0,_RNCNvCsgotNrKHkAGC_4x0xd13unpin_machine0B3_
FNDA:0,_RNCNvCsgotNrKHkAGC_4x0xd14add_mls_member0B3_
FNDA:0,_RNCNvCsgotNrKHkAGC_4x0xd14delete_contact0B3_
FNDA:0,_RNCNvCsgotNrKHkAGC_4x0xd14delete_machine0B3_
FNDA:0,_RNCNvCsgotNrKHkAGC_4x0xd14dm_diagnostics0B3_
FNDA:0,_RNCNvCsgotNrKHkAGC_4x0xd14evaluate_trust0B3_
FNDA:0,_RNCNvCsgotNrKHkAGC_4x0xd14get_agent_card0B3_
FNDA:0,_RNCNvCsgotNrKHkAGC_4x0xd14get_group_card0B3_
FNDA:0,_RNCNvCsgotNrKHkAGC_4x0xd14list_instances0B3_
FNDA:0,_RNCNvCsgotNrKHkAGC_4x0xd14list_kv_stores0B3_
FNDA:0,_RNCNvCsgotNrKHkAGC_4x0xd14network_status0B3_
FNDA:0,_RNCNvCsgotNrKHkAGC_4x0xd14revoke_contact0B3_
FNDA:0,_RNCNvCsgotNrKHkAGC_4x0xd14send_chunk_ack0B3_
FNDA:0,_RNCNvCsgotNrKHkAGC_4x0xd14update_contact0B3_
FNDA:0,_RNCNvCsgotNrKHkAGC_4x0xd15ack_diagnostics0B3_
FNDA:0,_RNCNvCsgotNrKHkAGC_4x0xd15auth_middleware0B3_
FNDA:0,_RNCNvCsgotNrKHkAGC_4x0xd15connect_machine0B3_
FNDA:0,_RNCNvCsgotNrKHkAGC_4x0xd15create_kv_store0B3_
FNDA:0,_RNCNvCsgotNrKHkAGC_4x0xd15delete_kv_value0B3_
FNDA:0,_RNCNvCsgotNrKHkAGC_4x0xd15discover_groups0B3_
FNDA:0,_RNCNvCsgotNrKHkAGC_4x0xd15get_group_state0B3_
FNDA:0,_RNCNvCsgotNrKHkAGC_4x0xd15get_named_group0B3_
FNDA:0,_RNCNvCsgotNrKHkAGC_4x0xd15list_mls_groups0B3_
FNDA:0,_RNCNvCsgotNrKHkAGC_4x0xd15list_task_lists0B3_
FNDA:0,_RNCNvCsgotNrKHkAGC_4x0xd15make_mls_cipher0B3_
FNDA:0,_RNCNvCsgotNrKHkAGC_4x0xd15presence_events0B3_
FNDA:0,_RNCNvCsgotNrKHkAGC_4x0xd15presence_online0B3_
FNDA:0,_RNCNvCsgotNrKHkAGC_4x0xd15presence_status0B3_
FNDA:0,_RNCNvCsgotNrKHkAGC_4x0xd15respond_to_pull0B3_
FNDA:0,_RNCNvCsgotNrKHkAGC_4x0xd15save_mls_groups0B3_
FNDA:0,_RNCNvCsgotNrKHkAGC_4x0xd15subscribe_shard0B3_
FNDA:0,_RNCNvCsgotNrKHkAGC_4x0xd16ban_group_member0B3_
FNDA:0,_RNCNvCsgotNrKHkAGC_4x0xd16create_mls_group0B3_
FNDA:0,_RNCNvCsgotNrKHkAGC_4x0xd16create_task_list0B3_
FNDA:0,_RNCNvCsgotNrKHkAGC_4x0xd16default_data_dir0B3_
FNDA:0,_RNCNvCsgotNrKHkAGC_4x0xd16default_data_dirs_0B3_
FNDA:0,_RNCNvCsgotNrKHkAGC_4x0xd16discovered_agent0B3_
FNDA:0,_RNCNvCsgotNrKHkAGC_4x0xd16exec_diagnostics0B3_
FNDA:0,_RNCNvCsgotNrKHkAGC_4x0xd16get_constitution0B3_
FNDA:0,_RNCNvCsgotNrKHkAGC_4x0xd16list_revocations0B3_
FNDA:0,_RNCNvCsgotNrKHkAGC_4x0xd16seal_group_state0B3_
FNDA:0,_RNCNvCsgotNrKHkAGC_4x0xd16shared_cache_dir0B3_
FNDA:0,_RNCNvCsgotNrKHkAGC_4x0xd16shared_cache_dirs_0B3_
FNDA:0,_RNCNvCsgotNrKHkAGC_4x0xd16shutdown_handler0B3_
FNDA:0,_RNCNvCsgotNrKHkAGC_4x0xd17announce_identity0B3_
FNDA:0,_RNCNvCsgotNrKHkAGC_4x0xd17direct_events_sse0B3_
FNDA:0,_RNCNvCsgotNrKHkAGC_4x0xd17discovered_agents0B3_
FNDA:0,_RNCNvCsgotNrKHkAGC_4x0xd17emit_shard_digest0B3_
FNDA:0,_RNCNvCsgotNrKHkAGC_4x0xd17file_send_handler0B3_
FNDA:0,_RNCNvCsgotNrKHkAGC_4x0xd17handle_file_chunk0B3_
FNDA:0,_RNCNvCsgotNrKHkAGC_4x0xd17handle_file_offer0B3_
FNDA:0,_RNCNvCsgotNrKHkAGC_4x0xd17handle_ws_command0B3_
FNDA:0,_RNCNvCsgotNrKHkAGC_4x0xd17import_agent_card0B3_
FNDA:0,_RNCNvCsgotNrKHkAGC_4x0xd17import_group_card0B3_
FNDA:0,_RNCNvCsgotNrKHkAGC_4x0xd17list_named_groups0B3_
FNDA:0,_RNCNvCsgotNrKHkAGC_4x0xd17remove_mls_member0B3_
FNDA:0,_RNCNvCsgotNrKHkAGC_4x0xd17save_named_groups0B3_
FNDA:0,_RNCNvCsgotNrKHkAGC_4x0xd17send_file_message0B3_
FNDA:0,_RNCNvCsgotNrKHkAGC_4x0xd17unsubscribe_shard0B3_
FNDA:0,_RNCNvCsgotNrKHkAGC_4x0xd17ws_direct_handler0B3_
FNDA:0,_RNCNvCsgotNrKHkAGC_4x0xd18agent_reachability0B3_
FNDA:0,_RNCNvCsgotNrKHkAGC_4x0xd18create_mls_welcome0B3_
FNDA:0,_RNCNvCsgotNrKHkAGC_4x0xd18create_named_group0B3_
FNDA:0,_RNCNvCsgotNrKHkAGC_4x0xd18direct_connections0B3_
FNDA:0,_RNCNvCsgotNrKHkAGC_4x0xd18discovered_machine0B3_
FNDA:0,_RNCNvCsgotNrKHkAGC_4x0xd18gossip_diagnostics0B3_
FNDA:0,_RNCNvCsgotNrKHkAGC_4x0xd18groups_diagnostics0B3_
FNDA:0,_RNCNvCsgotNrKHkAGC_4x0xd18handle_file_accept0B3_
FNDA:0,_RNCNvCsgotNrKHkAGC_4x0xd18handle_file_reject0B3_
FNDA:0,_RNCNvCsgotNrKHkAGC_4x0xd18list_join_requests0B3_
FNDA:0,_RNCNvCsgotNrKHkAGC_4x0xd18parse_agent_id_hex0B3_
FNDA:0,_RNCNvCsgotNrKHkAGC_4x0xd18probe_peer_handler0B3_
FNDA:0,_RNCNvCsgotNrKHkAGC_4x0xd18stream_file_chunks0B3_
FNDA:0,_RNCNvCsgotNrKHkAGC_4x0xd18unban_group_member0B3_
FNDA:0,_RNCNvCsgotNrKHkAGC_4x0xd18update_member_role0B3_
FNDA:0,_RNCNvCsgotNrKHkAGC_4x0xd18update_named_group0B3_
FNDA:0,_RNCNvCsgotNrKHkAGC_4x0xd18value_string_field0B3_
FNDA:0,_RNCNvCsgotNrKHkAGC_4x0xd18value_string_fields_0B3_
FNDA:0,_RNCNvCsgotNrKHkAGC_4x0xd19cancel_join_request0B3_
FNDA:0,_RNCNvCsgotNrKHkAGC_4x0xd19create_group_invite0B3_
FNDA:0,_RNCNvCsgotNrKHkAGC_4x0xd19create_join_request0B3_
FNDA:0,_RNCNvCsgotNrKHkAGC_4x0xd19discovered_machines0B3_
FNDA:0,_RNCNvCsgotNrKHkAGC_4x0xd19file_accept_handler0B3_
FNDA:0,_RNCNvCsgotNrKHkAGC_4x0xd19file_reject_handler0B3_
FNDA:0,_RNCNvCsgotNrKHkAGC_4x0xd19handle_file_message0B3_
FNDA:0,_RNCNvCsgotNrKHkAGC_4x0xd19peer_events_handler0B3_
FNDA:0,_RNCNvCsgotNrKHkAGC_4x0xd19peer_health_handler0B3_
FNDA:0,_RNCNvCsgotNrKHkAGC_4x0xd19reject_join_request0B3_
FNDA:0,_RNCNvCsgotNrKHkAGC_4x0xd19secure_group_reseal0B3_
FNDA:0,_RNCNvCsgotNrKHkAGC_4x0xd19update_group_policy0B3_
FNDA:0,_RNCNvCsgotNrKHkAGC_4x0xd19wait_for_final_acks0B3_
FNDA:0,_RNCNvCsgotNrKHkAGC_4x0xd20approve_join_request0B3_
FNDA:0,_RNCNvCsgotNrKHkAGC_4x0xd20cache_public_message0B3_
FNDA:0,_RNCNvCsgotNrKHkAGC_4x0xd20handle_file_complete0B3_
FNDA:0,_RNCNvCsgotNrKHkAGC_4x0xd20handle_ws_connection0B3_
FNDA:0,_RNCNvCsgotNrKHkAGC_4x0xd20parse_machine_id_hex0B3_
FNDA:0,_RNCNvCsgotNrKHkAGC_4x0xd20publish_secure_share0B3_
FNDA:0,_RNCNvCsgotNrKHkAGC_4x0xd20secure_group_decrypt0B3_
FNDA:0,_RNCNvCsgotNrKHkAGC_4x0xd20secure_group_encrypt0B3_
FNDA:0,_RNCNvCsgotNrKHkAGC_4x0xd20withdraw_group_state0B3_
FNDA:0,_RNCNvCsgotNrKHkAGC_4x0xd21agent_user_id_handler0B3_
FNDA:0,_RNCNvCsgotNrKHkAGC_4x0xd21bootstrap_cache_stats0B3_
FNDA:0,_RNCNvCsgotNrKHkAGC_4x0xd21decode_base64_payload0B3_
FNDA:0,_RNCNvCsgotNrKHkAGC_4x0xd21get_constitution_json0B3_
FNDA:0,_RNCNvCsgotNrKHkAGC_4x0xd21ingest_public_message0B3_
FNDA:0,_RNCNvCsgotNrKHkAGC_4x0xd21join_group_via_invite0B3_
FNDA:0,_RNCNvCsgotNrKHkAGC_4x0xd21wait_for_chunk_window0B3_
FNDA:0,_RNCNvCsgotNrKHkAGC_4x0xd22add_named_group_member0B3_
FNDA:0,_RNCNvCsgotNrKHkAGC_4x0xd22agents_by_user_handler0B3_
FNDA:0,_RNCNvCsgotNrKHkAGC_4x0xd22discover_groups_nearby0B3_
FNDA:0,_RNCNvCsgotNrKHkAGC_4x0xd22discovered_agent_entry0B3_
FNDA:0,_RNCNvCsgotNrKHkAGC_4x0xd22discovered_agent_entrys_0B3_
FNDA:0,_RNCNvCsgotNrKHkAGC_4x0xd22file_transfers_handler0B3_
FNDA:0,_RNCNvCsgotNrKHkAGC_4x0xd22set_group_display_name0B3_
FNDA:0,_RNCNvCsgotNrKHkAGC_4x0xd22validate_instance_name0B3_
FNDA:0,_RNCNvCsgotNrKHkAGC_4x0xd22validate_instance_names_0B3_
FNDA:0,_RNCNvCsgotNrKHkAGC_4x0xd23apply_ready_file_chunks0B3_
FNDA:0,_RNCNvCsgotNrKHkAGC_4x0xd23cleanup_failed_transfer0B3_
FNDA:0,_RNCNvCsgotNrKHkAGC_4x0xd23default_bootstrap_peers0B3_
FNDA:0,_RNCNvCsgotNrKHkAGC_4x0xd23get_named_group_members0B3_
FNDA:0,_RNCNvCsgotNrKHkAGC_4x0xd23send_file_chunk_message0B3_
FNDA:0,_RNCNvCsgotNrKHkAGC_4x0xd23update_skill_if_changed0B3_
FNDA:0,_RNCNvCsgotNrKHkAGC_4x0xd24connectivity_diagnostics0B3_
FNDA:0,_RNCNvCsgotNrKHkAGC_4x0xd24discovered_machine_entry0B3_
FNDA:0,_RNCNvCsgotNrKHkAGC_4x0xd24discovered_machine_entrys0_0B3_
FNDA:0,_RNCNvCsgotNrKHkAGC_4x0xd24discovered_machine_entrys_0B3_
FNDA:0,_RNCNvCsgotNrKHkAGC_4x0xd24handle_directory_message0B3_
FNDA:0,_RNCNvCsgotNrKHkAGC_4x0xd24machines_by_user_handler0B3_
FNDA:0,_RNCNvCsgotNrKHkAGC_4x0xd24run_fallback_github_poll0B3_
FNDA:0,_RNCNvCsgotNrKHkAGC_4x0xd24run_startup_update_check0B3_
FNDA:0,_RNCNvCsgotNrKHkAGC_4x0xd25cleanup_ws_topic_if_empty0B3_
FNDA:0,_RNCNvCsgotNrKHkAGC_4x0xd25get_group_public_messages0B3_
FNDA:0,_RNCNvCsgotNrKHkAGC_4x0xd25machine_for_agent_handler0B3_
FNDA:0,_RNCNvCsgotNrKHkAGC_4x0xd25named_group_member_values0B3_
FNDA:0,_RNCNvCsgotNrKHkAGC_4x0xd25named_group_member_valuess0_0B3_
FNDA:0,_RNCNvCsgotNrKHkAGC_4x0xd25named_group_member_valuess_0B3_
FNDA:0,_RNCNvCsgotNrKHkAGC_4x0xd25prune_expired_group_cards0B3_
FNDA:0,_RNCNvCsgotNrKHkAGC_4x0xd25remove_named_group_member0B3_
FNDA:0,_RNCNvCsgotNrKHkAGC_4x0xd25send_group_public_message0B3_
FNDA:0,_RNCNvCsgotNrKHkAGC_4x0xd26broadcast_current_manifest0B3_
FNDA:0,_RNCNvCsgotNrKHkAGC_4x0xd26finalize_received_transfer0B3_
FNDA:0,_RNCNvCsgotNrKHkAGC_4x0xd26load_or_generate_api_token0B3_
FNDA:0,_RNCNvCsgotNrKHkAGC_4x0xd26run_gossip_update_listener0B3_
FNDA:0,_RNCNvCsgotNrKHkAGC_4x0xd27spawn_directory_resubscribe0B3_
FNDA:0,_RNCNvCsgotNrKHkAGC_4x0xd28enforce_group_card_cache_cap0B3_
FNDA:0,_RNCNvCsgotNrKHkAGC_4x0xd28enforce_group_card_cache_caps_0B3_
FNDA:0,_RNCNvCsgotNrKHkAGC_4x0xd28ensure_named_group_listeners0B3_
FNDA:0,_RNCNvCsgotNrKHkAGC_4x0xd28file_transfer_status_handler0B3_
FNDA:0,_RNCNvCsgotNrKHkAGC_4x0xd28list_discovery_subscriptions0B3_
FNDA:0,_RNCNvCsgotNrKHkAGC_4x0xd28load_directory_subscriptions0B3_
FNDA:0,_RNCNvCsgotNrKHkAGC_4x0xd28save_directory_subscriptions0B3_
FNDA:0,_RNCNvCsgotNrKHkAGC_4x0xd29create_discovery_subscription0B3_
FNDA:0,_RNCNvCsgotNrKHkAGC_4x0xd29delete_discovery_subscription0B3_
FNDA:0,_RNCNvCsgotNrKHkAGC_4x0xd29spawn_public_message_listener0B3_
FNDA:0,_RNCNvCsgotNrKHkAGC_4x0xd30publish_group_card_with_reseal0B3_
FNDA:0,_RNCNvCsgotNrKHkAGC_4x0xd31publish_group_card_to_discovery0B3_
FNDA:0,_RNCNvCsgotNrKHkAGC_4x0xd31publish_listed_to_contacts_card0B3_
FNDA:0,_RNCNvCsgotNrKHkAGC_4x0xd31schedule_restart_after_response0B3_
FNDA:0,_RNCNvCsgotNrKHkAGC_4x0xd31spawn_global_discovery_listener0B3_
FNDA:0,_RNCNvCsgotNrKHkAGC_4x0xd32apply_named_group_metadata_event0B3_
FNDA:0,_RNCNvCsgotNrKHkAGC_4x0xd32secure_open_envelope_adversarial0B3_
FNDA:0,_RNCNvCsgotNrKHkAGC_4x0xd33spawn_listed_to_contacts_listener0B3_
FNDA:0,_RNCNvCsgotNrKHkAGC_4x0xd34publish_named_group_metadata_event0B3_
FNDA:0,_RNCNvCsgotNrKHkAGC_4x0xd34refresh_group_card_cache_from_info0B3_
FNDA:0,_RNCNvCsgotNrKHkAGC_4x0xd34stop_named_group_metadata_listener0B3_
FNDA:0,_RNCNvCsgotNrKHkAGC_4x0xd36ensure_named_group_metadata_listener0B3_
FNDA:0,_RNCNvCsgotNrKHkAGC_4x0xd36spawn_global_public_message_listener0B3_
FNDA:0,_RNCNvCsgotNrKHkAGC_4x0xd37publish_group_card_to_discovery_inner0B3_
FNDA:0,_RNCNvCsgotNrKHkAGC_4x0xd40apply_withdrawn_group_card_to_group_info0B3_
FNDA:0,_RNCNvCsgotNrKHkAGC_4x0xd40apply_withdrawn_group_card_to_group_infos_0B3_
FNDA:0,_RNCNvCsgotNrKHkAGC_4x0xd43maybe_publish_group_card_after_state_change0B3_
FNDA:0,_RNCNvCsgotNrKHkAGC_4x0xd4main0B3_
FNDA:0,_RNCNvCsgotNrKHkAGC_4x0xd5peers0B3_
FNDA:0,_RNCNvCsgotNrKHkAGC_4x0xd6health0B3_
FNDA:0,_RNCNvCsgotNrKHkAGC_4x0xd6status0B3_
FNDA:0,_RNCNvCsgotNrKHkAGC_4x0xd7publish0B3_
FNDA:0,_RNCNvCsgotNrKHkAGC_4x0xd8add_task0B3_
FNDA:0,_RNCNvCsgotNrKHkAGC_4x0xd8exec_run0B3_
FNDA:0,_RNCNvCsgotNrKHkAGC_4x0xd8presence0B3_
FNDA:0,_RNCNvCsgotNrKHkAGC_4x0xd9serve_gui0B3_
FNDA:0,_RNCNvCsgotNrKHkAGC_4x0xd9subscribe0B3_
FNDA:0,_RNCNvMs1_CsgotNrKHkAGC_4x0xdNtB7_29SelfPublishedReleaseManifests5prune0B7_
FNDA:0,_RNCNvXs_CsgotNrKHkAGC_4x0xdNtB6_12DaemonConfigNtNtCsl8K0bEFm1U0_4core7default7Default7default0B6_
FNDA:0,_RNCNCNvCsgotNrKHkAGC_4x0xd29named_group_member_values_alls_00B5_
FNDA:0,_RNCNvCsgotNrKHkAGC_4x0xd29named_group_member_values_all0B3_
FNDA:0,_RNCNvCsgotNrKHkAGC_4x0xd29named_group_member_values_alls_0B3_
FNDA:0,_RNvCsgotNrKHkAGC_4x0xd29named_group_member_values_all
FNDA:0,_RNvCsgotNrKHkAGC_4x0xd10agent_info
FNDA:0,_RNvCsgotNrKHkAGC_4x0xd10events_sse
FNDA:0,_RNvCsgotNrKHkAGC_4x0xd10find_agent
FNDA:0,_RNvCsgotNrKHkAGC_4x0xd10list_tasks
FNDA:0,_RNvCsgotNrKHkAGC_4x0xd10run_doctor
FNDA:0,_RNvCsgotNrKHkAGC_4x0xd10ws_handler
FNDA:0,_RNvCsgotNrKHkAGC_4x0xd11add_contact
FNDA:0,_RNvCsgotNrKHkAGC_4x0xd11add_machine
FNDA:0,_RNvCsgotNrKHkAGC_4x0xd11direct_send
FNDA:0,_RNvCsgotNrKHkAGC_4x0xd11exec_cancel
FNDA:0,_RNvCsgotNrKHkAGC_4x0xd11leave_group
FNDA:0,_RNvCsgotNrKHkAGC_4x0xd11load_config
FNDA:0,_RNvCsgotNrKHkAGC_4x0xd11mls_decrypt
FNDA:0,_RNvCsgotNrKHkAGC_4x0xd11mls_encrypt
FNDA:0,_RNvCsgotNrKHkAGC_4x0xd11pin_machine
FNDA:0,_RNvCsgotNrKHkAGC_4x0xd11quick_trust
FNDA:0,_RNvCsgotNrKHkAGC_4x0xd11unsubscribe
FNDA:0,_RNvCsgotNrKHkAGC_4x0xd11update_task
FNDA:0,_RNvCsgotNrKHkAGC_4x0xd11ws_sessions
FNDA:0,_RNvCsgotNrKHkAGC_4x0xd12default_true
FNDA:0,_RNvCsgotNrKHkAGC_4x0xd12get_kv_value
FNDA:0,_RNvCsgotNrKHkAGC_4x0xd12init_logging
FNDA:0,_RNvCsgotNrKHkAGC_4x0xd12introduction
FNDA:0,_RNvCsgotNrKHkAGC_4x0xd12list_kv_keys
FNDA:0,_RNvCsgotNrKHkAGC_4x0xd12put_kv_value
FNDA:0,_RNvCsgotNrKHkAGC_4x0xd13apply_upgrade
FNDA:0,_RNvCsgotNrKHkAGC_4x0xd13check_upgrade
FNDA:0,_RNvCsgotNrKHkAGC_4x0xd13connect_agent
FNDA:0,_RNvCsgotNrKHkAGC_4x0xd13exec_sessions
FNDA:0,_RNvCsgotNrKHkAGC_4x0xd13get_mls_group
FNDA:0,_RNvCsgotNrKHkAGC_4x0xd13join_kv_store
FNDA:0,_RNvCsgotNrKHkAGC_4x0xd13list_contacts
FNDA:0,_RNvCsgotNrKHkAGC_4x0xd13list_machines
FNDA:0,_RNvCsgotNrKHkAGC_4x0xd13parse_peer_id
FNDA:0,_RNvCsgotNrKHkAGC_4x0xd13presence_find
FNDA:0,_RNvCsgotNrKHkAGC_4x0xd13presence_foaf
FNDA:0,_RNvCsgotNrKHkAGC_4x0xd13require_owner
FNDA:0,_RNvCsgotNrKHkAGC_4x0xd13unpin_machine
FNDA:0,_RNvCsgotNrKHkAGC_4x0xd14add_mls_member
FNDA:0,_RNvCsgotNrKHkAGC_4x0xd14default_expiry
FNDA:0,_RNvCsgotNrKHkAGC_4x0xd14delete_contact
FNDA:0,_RNvCsgotNrKHkAGC_4x0xd14delete_machine
FNDA:0,_RNvCsgotNrKHkAGC_4x0xd14dm_diagnostics
FNDA:0,_RNvCsgotNrKHkAGC_4x0xd14evaluate_trust
FNDA:0,_RNvCsgotNrKHkAGC_4x0xd14get_agent_card
FNDA:0,_RNvCsgotNrKHkAGC_4x0xd14get_group_card
FNDA:0,_RNvCsgotNrKHkAGC_4x0xd14list_instances
FNDA:0,_RNvCsgotNrKHkAGC_4x0xd14list_kv_stores
FNDA:0,_RNvCsgotNrKHkAGC_4x0xd14network_status
FNDA:0,_RNvCsgotNrKHkAGC_4x0xd14now_millis_u64
FNDA:0,_RNvCsgotNrKHkAGC_4x0xd14revoke_contact
FNDA:0,_RNvCsgotNrKHkAGC_4x0xd14send_chunk_ack
FNDA:0,_RNvCsgotNrKHkAGC_4x0xd14update_contact
FNDA:0,_RNvCsgotNrKHkAGC_4x0xd15ack_diagnostics
FNDA:0,_RNvCsgotNrKHkAGC_4x0xd15auth_middleware
FNDA:0,_RNvCsgotNrKHkAGC_4x0xd15connect_machine
FNDA:0,_RNvCsgotNrKHkAGC_4x0xd15create_kv_store
FNDA:0,_RNvCsgotNrKHkAGC_4x0xd15delete_kv_value
FNDA:0,_RNvCsgotNrKHkAGC_4x0xd15discover_groups
FNDA:0,_RNvCsgotNrKHkAGC_4x0xd15get_group_state
FNDA:0,_RNvCsgotNrKHkAGC_4x0xd15get_named_group
FNDA:0,_RNvCsgotNrKHkAGC_4x0xd15list_mls_groups
FNDA:0,_RNvCsgotNrKHkAGC_4x0xd15list_task_lists
FNDA:0,_RNvCsgotNrKHkAGC_4x0xd15make_mls_cipher
FNDA:0,_RNvCsgotNrKHkAGC_4x0xd15presence_events
FNDA:0,_RNvCsgotNrKHkAGC_4x0xd15presence_online
FNDA:0,_RNvCsgotNrKHkAGC_4x0xd15presence_status
FNDA:0,_RNvCsgotNrKHkAGC_4x0xd15respond_to_pull
FNDA:0,_RNvCsgotNrKHkAGC_4x0xd15save_mls_groups
FNDA:0,_RNvCsgotNrKHkAGC_4x0xd15subscribe_shard
FNDA:0,_RNvCsgotNrKHkAGC_4x0xd16ban_group_member
FNDA:0,_RNvCsgotNrKHkAGC_4x0xd16create_mls_group
FNDA:0,_RNvCsgotNrKHkAGC_4x0xd16create_task_list
FNDA:0,_RNvCsgotNrKHkAGC_4x0xd16default_data_dir
FNDA:0,_RNvCsgotNrKHkAGC_4x0xd16default_foaf_ttl
FNDA:0,_RNvCsgotNrKHkAGC_4x0xd16discovered_agent
FNDA:0,_RNvCsgotNrKHkAGC_4x0xd16exec_diagnostics
FNDA:0,_RNvCsgotNrKHkAGC_4x0xd16get_constitution
FNDA:0,_RNvCsgotNrKHkAGC_4x0xd16list_revocations
FNDA:0,_RNvCsgotNrKHkAGC_4x0xd16seal_group_state
FNDA:0,_RNvCsgotNrKHkAGC_4x0xd16secure_share_aad
FNDA:0,_RNvCsgotNrKHkAGC_4x0xd16shared_cache_dir
FNDA:0,_RNvCsgotNrKHkAGC_4x0xd16shutdown_handler
FNDA:0,_RNvCsgotNrKHkAGC_4x0xd17announce_identity
FNDA:0,_RNvCsgotNrKHkAGC_4x0xd17default_log_level
FNDA:0,_RNvCsgotNrKHkAGC_4x0xd17direct_events_sse
FNDA:0,_RNvCsgotNrKHkAGC_4x0xd17discovered_agents
FNDA:0,_RNvCsgotNrKHkAGC_4x0xd17emit_shard_digest
FNDA:0,_RNvCsgotNrKHkAGC_4x0xd17file_send_handler
FNDA:0,_RNvCsgotNrKHkAGC_4x0xd17file_transfer_now
FNDA:0,_RNvCsgotNrKHkAGC_4x0xd17handle_file_chunk
FNDA:0,_RNvCsgotNrKHkAGC_4x0xd17handle_file_offer
FNDA:0,_RNvCsgotNrKHkAGC_4x0xd17handle_ws_command
FNDA:0,_RNvCsgotNrKHkAGC_4x0xd17import_agent_card
FNDA:0,_RNvCsgotNrKHkAGC_4x0xd17import_group_card
FNDA:0,_RNvCsgotNrKHkAGC_4x0xd17list_named_groups
FNDA:0,_RNvCsgotNrKHkAGC_4x0xd17remove_mls_member
FNDA:0,_RNvCsgotNrKHkAGC_4x0xd17save_named_groups
FNDA:0,_RNvCsgotNrKHkAGC_4x0xd17send_file_message
FNDA:0,_RNvCsgotNrKHkAGC_4x0xd17unsubscribe_shard
FNDA:0,_RNvCsgotNrKHkAGC_4x0xd17ws_direct_handler
FNDA:0,_RNvCsgotNrKHkAGC_4x0xd18agent_reachability
FNDA:0,_RNvCsgotNrKHkAGC_4x0xd18create_mls_welcome
FNDA:0,_RNvCsgotNrKHkAGC_4x0xd18create_named_group
FNDA:0,_RNvCsgotNrKHkAGC_4x0xd18default_log_format
FNDA:0,_RNvCsgotNrKHkAGC_4x0xd18direct_connections
FNDA:0,_RNvCsgotNrKHkAGC_4x0xd18discovered_machine
FNDA:0,_RNvCsgotNrKHkAGC_4x0xd18gossip_diagnostics
FNDA:0,_RNvCsgotNrKHkAGC_4x0xd18groups_diagnostics
FNDA:0,_RNvCsgotNrKHkAGC_4x0xd18handle_file_accept
FNDA:0,_RNvCsgotNrKHkAGC_4x0xd18handle_file_reject
FNDA:0,_RNvCsgotNrKHkAGC_4x0xd18list_join_requests
FNDA:0,_RNvCsgotNrKHkAGC_4x0xd18parse_agent_id_hex
FNDA:0,_RNvCsgotNrKHkAGC_4x0xd18probe_peer_handler
FNDA:0,_RNvCsgotNrKHkAGC_4x0xd18stream_file_chunks
FNDA:0,_RNvCsgotNrKHkAGC_4x0xd18unban_group_member
FNDA:0,_RNvCsgotNrKHkAGC_4x0xd18update_member_role
FNDA:0,_RNvCsgotNrKHkAGC_4x0xd18update_named_group
FNDA:0,_RNvCsgotNrKHkAGC_4x0xd18value_string_field
FNDA:0,_RNvCsgotNrKHkAGC_4x0xd19cancel_join_request
FNDA:0,_RNvCsgotNrKHkAGC_4x0xd19create_group_invite
FNDA:0,_RNvCsgotNrKHkAGC_4x0xd19create_join_request
FNDA:0,_RNvCsgotNrKHkAGC_4x0xd19default_api_address
FNDA:0,_RNvCsgotNrKHkAGC_4x0xd19default_trust_level
FNDA:0,_RNvCsgotNrKHkAGC_4x0xd19default_update_repo
FNDA:0,_RNvCsgotNrKHkAGC_4x0xd19discovered_machines
FNDA:0,_RNvCsgotNrKHkAGC_4x0xd19duration_millis_u64
FNDA:0,_RNvCsgotNrKHkAGC_4x0xd19file_accept_handler
FNDA:0,_RNvCsgotNrKHkAGC_4x0xd19file_reject_handler
FNDA:0,_RNvCsgotNrKHkAGC_4x0xd19handle_file_message
FNDA:0,_RNvCsgotNrKHkAGC_4x0xd19peer_events_handler
FNDA:0,_RNvCsgotNrKHkAGC_4x0xd19peer_health_handler
FNDA:0,_RNvCsgotNrKHkAGC_4x0xd19reject_join_request
FNDA:0,_RNvCsgotNrKHkAGC_4x0xd19secure_group_reseal
FNDA:0,_RNvCsgotNrKHkAGC_4x0xd19update_group_policy
FNDA:0,_RNvCsgotNrKHkAGC_4x0xd19wait_for_final_acks
FNDA:0,_RNvCsgotNrKHkAGC_4x0xd20approve_join_request
FNDA:0,_RNvCsgotNrKHkAGC_4x0xd20cache_public_message
FNDA:0,_RNvCsgotNrKHkAGC_4x0xd20default_bind_address
FNDA:0,_RNvCsgotNrKHkAGC_4x0xd20default_identity_ttl
FNDA:0,_RNvCsgotNrKHkAGC_4x0xd20default_import_trust
FNDA:0,_RNvCsgotNrKHkAGC_4x0xd20handle_file_complete
FNDA:0,_RNvCsgotNrKHkAGC_4x0xd20handle_ws_connection
FNDA:0,_RNvCsgotNrKHkAGC_4x0xd20parse_machine_id_hex
FNDA:0,_RNvCsgotNrKHkAGC_4x0xd20publish_secure_share
FNDA:0,_RNvCsgotNrKHkAGC_4x0xd20secure_group_decrypt
FNDA:0,_RNvCsgotNrKHkAGC_4x0xd20secure_group_encrypt
FNDA:0,_RNvCsgotNrKHkAGC_4x0xd20withdraw_group_state
FNDA:0,_RNvCsgotNrKHkAGC_4x0xd21agent_user_id_handler
FNDA:0,_RNvCsgotNrKHkAGC_4x0xd21bootstrap_cache_stats
FNDA:0,_RNvCsgotNrKHkAGC_4x0xd21decode_base64_payload
FNDA:0,_RNvCsgotNrKHkAGC_4x0xd21get_constitution_json
FNDA:0,_RNvCsgotNrKHkAGC_4x0xd21group_card_is_expired
FNDA:0,_RNvCsgotNrKHkAGC_4x0xd21ingest_public_message
FNDA:0,_RNvCsgotNrKHkAGC_4x0xd21join_group_via_invite
FNDA:0,_RNvCsgotNrKHkAGC_4x0xd21wait_for_chunk_window
FNDA:0,_RNvCsgotNrKHkAGC_4x0xd22add_named_group_member
FNDA:0,_RNvCsgotNrKHkAGC_4x0xd22agents_by_user_handler
FNDA:0,_RNvCsgotNrKHkAGC_4x0xd22discover_groups_nearby
FNDA:0,_RNvCsgotNrKHkAGC_4x0xd22discovered_agent_entry
FNDA:0,_RNvCsgotNrKHkAGC_4x0xd22file_transfers_handler
FNDA:0,_RNvCsgotNrKHkAGC_4x0xd22require_admin_or_above
FNDA:0,_RNvCsgotNrKHkAGC_4x0xd22set_group_display_name
FNDA:0,_RNvCsgotNrKHkAGC_4x0xd22validate_instance_name
FNDA:0,_RNvCsgotNrKHkAGC_4x0xd23apply_ready_file_chunks
FNDA:0,_RNvCsgotNrKHkAGC_4x0xd23cleanup_failed_transfer
FNDA:0,_RNvCsgotNrKHkAGC_4x0xd23default_bootstrap_peers
FNDA:0,_RNvCsgotNrKHkAGC_4x0xd23default_foaf_timeout_ms
FNDA:0,_RNvCsgotNrKHkAGC_4x0xd23get_named_group_members
FNDA:0,_RNvCsgotNrKHkAGC_4x0xd23send_file_chunk_message
FNDA:0,_RNvCsgotNrKHkAGC_4x0xd23update_skill_if_changed
FNDA:0,_RNvCsgotNrKHkAGC_4x0xd24connectivity_diagnostics
FNDA:0,_RNvCsgotNrKHkAGC_4x0xd24discovered_machine_entry
FNDA:0,_RNvCsgotNrKHkAGC_4x0xd24group_card_expiry_millis
FNDA:0,_RNvCsgotNrKHkAGC_4x0xd24handle_directory_message
FNDA:0,_RNvCsgotNrKHkAGC_4x0xd24machines_by_user_handler
FNDA:0,_RNvCsgotNrKHkAGC_4x0xd24run_fallback_github_poll
FNDA:0,_RNvCsgotNrKHkAGC_4x0xd24run_startup_update_check
FNDA:0,_RNvCsgotNrKHkAGC_4x0xd25cache_group_card_if_newer
FNDA:0,_RNvCsgotNrKHkAGC_4x0xd25cleanup_ws_topic_if_empty
FNDA:0,_RNvCsgotNrKHkAGC_4x0xd25file_transfer_send_config
FNDA:0,_RNvCsgotNrKHkAGC_4x0xd25get_group_public_messages
FNDA:0,_RNvCsgotNrKHkAGC_4x0xd25machine_for_agent_handler
FNDA:0,_RNvCsgotNrKHkAGC_4x0xd25named_group_member_values
FNDA:0,_RNvCsgotNrKHkAGC_4x0xd25prune_expired_group_cards
FNDA:0,_RNvCsgotNrKHkAGC_4x0xd25remove_named_group_member
FNDA:0,_RNvCsgotNrKHkAGC_4x0xd25send_group_public_message
FNDA:0,_RNvCsgotNrKHkAGC_4x0xd26broadcast_current_manifest
FNDA:0,_RNvCsgotNrKHkAGC_4x0xd26default_heartbeat_interval
FNDA:0,_RNvCsgotNrKHkAGC_4x0xd26default_rendezvous_enabled
FNDA:0,_RNvCsgotNrKHkAGC_4x0xd26direct_message_send_config
FNDA:0,_RNvCsgotNrKHkAGC_4x0xd26finalize_received_transfer
FNDA:0,_RNvCsgotNrKHkAGC_4x0xd26load_or_generate_api_token
FNDA:0,_RNvCsgotNrKHkAGC_4x0xd26run_gossip_update_listener
FNDA:0,_RNvCsgotNrKHkAGC_4x0xd27spawn_directory_resubscribe
FNDA:0,_RNvCsgotNrKHkAGC_4x0xd28default_port_mapping_enabled
FNDA:0,_RNvCsgotNrKHkAGC_4x0xd28enforce_group_card_cache_cap
FNDA:0,_RNvCsgotNrKHkAGC_4x0xd28ensure_named_group_listeners
FNDA:0,_RNvCsgotNrKHkAGC_4x0xd28file_transfer_status_handler
FNDA:0,_RNvCsgotNrKHkAGC_4x0xd28list_discovery_subscriptions
FNDA:0,_RNvCsgotNrKHkAGC_4x0xd28load_directory_subscriptions
FNDA:0,_RNvCsgotNrKHkAGC_4x0xd28save_directory_subscriptions
FNDA:0,_RNvCsgotNrKHkAGC_4x0xd29canonical_member_joined_bytes
FNDA:0,_RNvCsgotNrKHkAGC_4x0xd29create_discovery_subscription
FNDA:0,_RNvCsgotNrKHkAGC_4x0xd29delete_discovery_subscription
FNDA:0,_RNvCsgotNrKHkAGC_4x0xd29discover_local_card_addresses
FNDA:0,_RNvCsgotNrKHkAGC_4x0xd29spawn_public_message_listener
FNDA:0,_RNvCsgotNrKHkAGC_4x0xd30default_rendezvous_validity_ms
FNDA:0,_RNvCsgotNrKHkAGC_4x0xd30default_rollout_window_minutes
FNDA:0,_RNvCsgotNrKHkAGC_4x0xd30publish_group_card_with_reseal
FNDA:0,_RNvCsgotNrKHkAGC_4x0xd30remove_group_card_if_not_stale
FNDA:0,_RNvCsgotNrKHkAGC_4x0xd31publish_group_card_to_discovery
FNDA:0,_RNvCsgotNrKHkAGC_4x0xd31publish_listed_to_contacts_card
FNDA:0,_RNvCsgotNrKHkAGC_4x0xd31release_manifest_payload_digest
FNDA:0,_RNvCsgotNrKHkAGC_4x0xd31schedule_restart_after_response
FNDA:0,_RNvCsgotNrKHkAGC_4x0xd31spawn_global_discovery_listener
FNDA:0,_RNvCsgotNrKHkAGC_4x0xd32apply_named_group_metadata_event
FNDA:0,_RNvCsgotNrKHkAGC_4x0xd32group_card_supersedes_group_info
FNDA:0,_RNvCsgotNrKHkAGC_4x0xd32prune_and_bound_group_card_cache
FNDA:0,_RNvCsgotNrKHkAGC_4x0xd32secure_open_envelope_adversarial
FNDA:0,_RNvCsgotNrKHkAGC_4x0xd33spawn_listed_to_contacts_listener
FNDA:0,_RNvCsgotNrKHkAGC_4x0xd34publish_named_group_metadata_event
FNDA:0,_RNvCsgotNrKHkAGC_4x0xd34refresh_group_card_cache_from_info
FNDA:0,_RNvCsgotNrKHkAGC_4x0xd34stop_named_group_metadata_listener
FNDA:0,_RNvCsgotNrKHkAGC_4x0xd35decide_release_manifest_rebroadcast
FNDA:0,_RNvCsgotNrKHkAGC_4x0xd36ensure_named_group_metadata_listener
FNDA:0,_RNvCsgotNrKHkAGC_4x0xd36spawn_global_public_message_listener
FNDA:0,_RNvCsgotNrKHkAGC_4x0xd37publish_group_card_to_discovery_inner
FNDA:0,_RNvCsgotNrKHkAGC_4x0xd39default_fallback_check_interval_minutes
FNDA:0,_RNvCsgotNrKHkAGC_4x0xd40apply_withdrawn_group_card_to_group_info
FNDA:0,_RNvCsgotNrKHkAGC_4x0xd43maybe_publish_group_card_after_state_change
FNDA:0,_RNvCsgotNrKHkAGC_4x0xd4main
FNDA:0,_RNvCsgotNrKHkAGC_4x0xd5peers
FNDA:0,_RNvCsgotNrKHkAGC_4x0xd6health
FNDA:0,_RNvCsgotNrKHkAGC_4x0xd6status
FNDA:0,_RNvCsgotNrKHkAGC_4x0xd7publish
FNDA:0,_RNvCsgotNrKHkAGC_4x0xd8add_task
FNDA:0,_RNvCsgotNrKHkAGC_4x0xd8exec_run
FNDA:0,_RNvCsgotNrKHkAGC_4x0xd8presence
FNDA:0,_RNvCsgotNrKHkAGC_4x0xd9serve_gui
FNDA:0,_RNvCsgotNrKHkAGC_4x0xd9subscribe
FNDA:0,_RNvMs0_CsgotNrKHkAGC_4x0xdNtB5_16FileChunkAckSlot10record_ack
FNDA:0,_RNvMs0_CsgotNrKHkAGC_4x0xdNtB5_16FileChunkAckSlot3new
FNDA:0,_RNvMs1_CsgotNrKHkAGC_4x0xdNtB5_29SelfPublishedReleaseManifests14record_payload
FNDA:0,_RNvMs1_CsgotNrKHkAGC_4x0xdNtB5_29SelfPublishedReleaseManifests22contains_recent_digest
FNDA:0,_RNvMs1_CsgotNrKHkAGC_4x0xdNtB5_29SelfPublishedReleaseManifests5prune
FNDA:0,_RNvNvCsgotNrKHkAGC_4x0xd29canonical_member_joined_bytes7push_lp
FNDA:0,_RNvXCsgotNrKHkAGC_4x0xdNtB2_18DaemonUpdateConfigNtNtCsl8K0bEFm1U0_4core7default7Default7default
FNDA:0,_RNvXs2_CsgotNrKHkAGC_4x0xdNtB5_19CreateInviteRequestNtNtCsl8K0bEFm1U0_4core7default7Default7default
FNDA:0,_RNvXs_CsgotNrKHkAGC_4x0xdNtB4_12DaemonConfigNtNtCsl8K0bEFm1U0_4core7default7Default7default
FNF:694
FNH:0
DA:75,0
DA:76,0
DA:77,0
DA:78,0
DA:79,0
DA:80,0
DA:81,0
DA:82,0
DA:83,0
DA:84,0
DA:85,0
DA:86,0
DA:87,0
DA:89,0
DA:90,0
DA:91,0
DA:92,0
DA:93,0
DA:94,0
DA:95,0
DA:96,0
DA:97,0
DA:98,0
DA:99,0
DA:100,0
DA:101,0
DA:102,0
DA:103,0
DA:104,0
DA:105,0
DA:106,0
DA:217,0
DA:218,0
DA:219,0
DA:220,0
DA:221,0
DA:222,0
DA:224,0
DA:225,0
DA:226,0
DA:228,0
DA:232,0
DA:233,0
DA:235,0
DA:236,0
DA:237,0
DA:239,0
DA:240,0
DA:241,0
DA:242,0
DA:243,0
DA:247,0
DA:248,0
DA:249,0
DA:250,0
DA:252,0
DA:253,0
DA:254,0
DA:256,0
DA:257,0
DA:258,0
DA:260,0
DA:261,0
DA:262,0
DA:299,0
DA:300,0
DA:301,0
DA:302,0
DA:303,0
DA:304,0
DA:305,0
DA:306,0
DA:307,0
DA:308,0
DA:309,0
DA:312,0
DA:313,0
DA:314,0
DA:316,0
DA:317,0
DA:318,0
DA:320,0
DA:321,0
DA:322,0
DA:324,0
DA:325,0
DA:326,0
DA:328,0
DA:329,0
DA:330,0
DA:332,0
DA:333,0
DA:334,0
DA:336,0
DA:337,0
DA:338,0
DA:340,0
DA:341,0
DA:342,0
DA:345,0
DA:347,0
DA:348,0
DA:349,0
DA:350,0
DA:351,0
DA:352,0
DA:353,0
DA:354,0
DA:355,0
DA:356,0
DA:357,0
DA:358,0
DA:359,0
DA:360,0
DA:361,0
DA:362,0
DA:363,0
DA:364,0
DA:365,0
DA:366,0
DA:367,0
DA:368,0
DA:369,0
DA:370,0
DA:372,0
DA:472,0
DA:473,0
DA:474,0
DA:476,0
DA:477,0
DA:479,0
DA:481,0
DA:482,0
DA:483,0
DA:485,0
DA:486,0
DA:487,0
DA:489,0
DA:490,0
DA:491,0
DA:492,0
DA:494,0
DA:495,0
DA:496,0
DA:497,0
DA:498,0
DA:499,0
DA:500,0
DA:501,0
DA:502,0
DA:503,0
DA:504,0
DA:505,0
DA:506,0
DA:507,0
DA:508,0
DA:509,0
DA:510,0
DA:511,0
DA:512,0
DA:513,0
DA:514,0
DA:515,0
DA:516,0
DA:518,0
DA:519,0
DA:520,0
DA:521,0
DA:522,0
DA:523,0
DA:524,0
DA:526,0
DA:527,0
DA:528,0
DA:529,0
DA:530,0
DA:531,0
DA:532,0
DA:533,0
DA:535,0
DA:536,0
DA:537,0
DA:538,0
DA:539,0
DA:541,0
DA:542,0
DA:543,0
DA:544,0
DA:545,0
DA:546,0
DA:547,0
DA:548,0
DA:550,0
DA:552,0
DA:553,0
DA:554,0
DA:555,0
DA:556,0
DA:558,0
DA:559,0
DA:560,0
DA:561,0
DA:562,0
DA:563,0
DA:564,0
DA:566,0
DA:567,0
DA:568,0
DA:569,0
DA:570,0
DA:571,0
DA:572,0
DA:574,0
DA:575,0
DA:576,0
DA:577,0
DA:578,0
DA:579,0
DA:580,0
DA:581,0
DA:582,0
DA:583,0
DA:584,0
DA:585,0
DA:586,0
DA:587,0
DA:588,0
DA:589,0
DA:590,0
DA:591,0
DA:592,0
DA:593,0
DA:594,0
DA:595,0
DA:596,0
DA:597,0
DA:598,0
DA:599,0
DA:600,0
DA:601,0
DA:602,0
DA:603,0
DA:604,0
DA:605,0
DA:606,0
DA:746,0
DA:747,0
DA:748,0
DA:1057,0
DA:1061,0
DA:1062,0
DA:1063,0
DA:1064,0
DA:1065,0
DA:1068,0
DA:1071,0
DA:1072,0
DA:1073,0
DA:1074,0
DA:1075,0
DA:1076,0
DA:1077,0
DA:1078,0
DA:1079,0
DA:1080,0
DA:1081,0
DA:1082,0
DA:1083,0
DA:1084,0
DA:1085,0
DA:1086,0
DA:1087,0
DA:1088,0
DA:1089,0
DA:1090,0
DA:1091,0
DA:1092,0
DA:1093,0
DA:1094,0
DA:1096,0
DA:1098,0
DA:1099,0
DA:1100,0
DA:1103,0
DA:1106,0
DA:1107,0
DA:1108,0
DA:1109,0
DA:1110,0
DA:1113,0
DA:1115,0
DA:1116,0
DA:1118,0
DA:1121,0
DA:1122,0
DA:1123,0
DA:1124,0
DA:1125,0
DA:1126,0
DA:1127,0
DA:1128,0
DA:1129,0
DA:1130,0
DA:1136,0
DA:1139,0
DA:1140,0
DA:1141,0
DA:1142,0
DA:1143,0
DA:1144,0
DA:1145,0
DA:1146,0
DA:1148,0
DA:1152,0
DA:1153,0
DA:1154,0
DA:1155,0
DA:1156,0
DA:1157,0
DA:1158,0
DA:1160,0
DA:1164,0
DA:1165,0
DA:1166,0
DA:1167,0
DA:1169,0
DA:1170,0
DA:1172,0
DA:1173,0
DA:1174,0
DA:1176,0
DA:1177,0
DA:1178,0
DA:1179,0
DA:1180,0
DA:1182,0
DA:1188,0
DA:1192,0
DA:1193,0
DA:1194,0
DA:1195,0
DA:1196,0
DA:1197,0
DA:1198,0
DA:1199,0
DA:1200,0
DA:1201,0
DA:1208,0
DA:1209,0
DA:1210,0
DA:1211,0
DA:1212,0
DA:1215,0
DA:1216,0
DA:1217,0
DA:1220,0
DA:1221,0
DA:1222,0
DA:1224,0
DA:1225,0
DA:1226,0
DA:1227,0
DA:1229,0
DA:1231,0
DA:1232,0
DA:1233,0
DA:1235,0
DA:1236,0
DA:1237,0
DA:1239,0
DA:1240,0
DA:1241,0
DA:1242,0
DA:1243,0
DA:1244,0
DA:1247,0
DA:1248,0
DA:1249,0
DA:1252,0
DA:1255,0
DA:1260,0
DA:1261,0
DA:1262,0
DA:1263,0
DA:1264,0
DA:1265,0
DA:1266,0
DA:1269,0
DA:1270,0
DA:1271,0
DA:1272,0
DA:1274,0
DA:1275,0
DA:1276,0
DA:1277,0
DA:1278,0
DA:1281,0
DA:1282,0
DA:1283,0
DA:1284,0
DA:1285,0
DA:1286,0
DA:1287,0
DA:1288,0
DA:1290,0
DA:1291,0
DA:1292,0
DA:1293,0
DA:1294,0
DA:1299,0
DA:1301,0
DA:1302,0
DA:1303,0
DA:1305,0
DA:1310,0
DA:1312,0
DA:1313,0
DA:1317,0
DA:1318,0
DA:1319,0
DA:1320,0
DA:1321,0
DA:1322,0
DA:1323,0
DA:1324,0
DA:1325,0
DA:1326,0
DA:1328,0
DA:1338,0
DA:1339,0
DA:1340,0
DA:1341,0
DA:1343,0
DA:1345,0
DA:1346,0
DA:1347,0
DA:1349,0
DA:1350,0
DA:1351,0
DA:1352,0
DA:1353,0
DA:1357,0
DA:1360,0
DA:1361,0
DA:1362,0
DA:1363,0
DA:1364,0
DA:1365,0
DA:1366,0
DA:1367,0
DA:1369,0
DA:1370,0
DA:1371,0
DA:1372,0
DA:1373,0
DA:1374,0
DA:1375,0
DA:1376,0
DA:1377,0
DA:1385,0
DA:1386,0
DA:1387,0
DA:1388,0
DA:1389,0
DA:1390,0
DA:1392,0
DA:1393,0
DA:1394,0
DA:1395,0
DA:1397,0
DA:1399,0
DA:1400,0
DA:1401,0
DA:1402,0
DA:1403,0
DA:1408,0
DA:1409,0
DA:1410,0
DA:1413,0
DA:1414,0
DA:1417,0
DA:1418,0
DA:1419,0
DA:1420,0
DA:1421,0
DA:1422,0
DA:1423,0
DA:1424,0
DA:1426,0
DA:1427,0
DA:1429,0
DA:1431,0
DA:1432,0
DA:1433,0
DA:1437,0
DA:1438,0
DA:1443,0
DA:1447,0
DA:1448,0
DA:1449,0
DA:1450,0
DA:1455,0
DA:1460,0
DA:1461,0
DA:1462,0
DA:1463,0
DA:1464,0
DA:1466,0
DA:1468,0
DA:1471,0
DA:1472,0
DA:1473,0
DA:1474,0
DA:1475,0
DA:1476,0
DA:1477,0
DA:1478,0
DA:1479,0
DA:1480,0
DA:1481,0
DA:1482,0
DA:1483,0
DA:1484,0
DA:1485,0
DA:1486,0
DA:1487,0
DA:1488,0
DA:1489,0
DA:1490,0
DA:1491,0
DA:1492,0
DA:1493,0
DA:1494,0
DA:1495,0
DA:1496,0
DA:1497,0
DA:1498,0
DA:1499,0
DA:1500,0
DA:1501,0
DA:1502,0
DA:1503,0
DA:1504,0
DA:1505,0
DA:1506,0
DA:1507,0
DA:1508,0
DA:1509,0
DA:1510,0
DA:1511,0
DA:1512,0
DA:1513,0
DA:1514,0
DA:1515,0
DA:1516,0
DA:1517,0
DA:1518,0
DA:1520,0
DA:1521,0
DA:1522,0
DA:1524,0
DA:1525,0
DA:1530,0
DA:1533,0
DA:1536,0
DA:1539,0
DA:1543,0
DA:1544,0
DA:1545,0
DA:1546,0
DA:1547,0
DA:1548,0
DA:1549,0
DA:1550,0
DA:1551,0
DA:1553,0
DA:1554,0
DA:1555,0
DA:1556,0
DA:1561,0
DA:1562,0
DA:1564,0
DA:1565,0
DA:1566,0
DA:1567,0
DA:1568,0
DA:1569,0
DA:1570,0
DA:1571,0
DA:1572,0
DA:1574,0
DA:1575,0
DA:1577,0
DA:1578,0
DA:1579,0
DA:1582,0
DA:1583,0
DA:1585,0
DA:1588,0
DA:1589,0
DA:1590,0
DA:1591,0
DA:1592,0
DA:1593,0
DA:1594,0
DA:1596,0
DA:1600,0
DA:1601,0
DA:1602,0
DA:1603,0
DA:1604,0
DA:1605,0
DA:1606,0
DA:1607,0
DA:1609,0
DA:1611,0
DA:1613,0
DA:1614,0
DA:1617,0
DA:1619,0
DA:1620,0
DA:1623,0
DA:1624,0
DA:1625,0
DA:1626,0
DA:1627,0
DA:1628,0
DA:1629,0
DA:1630,0
DA:1631,0
DA:1632,0
DA:1633,0
DA:1634,0
DA:1635,0
DA:1636,0
DA:1637,0
DA:1638,0
DA:1639,0
DA:1644,0
DA:1645,0
DA:1646,0
DA:1647,0
DA:1648,0
DA:1649,0
DA:1650,0
DA:1651,0
DA:1652,0
DA:1653,0
DA:1654,0
DA:1655,0
DA:1656,0
DA:1657,0
DA:1658,0
DA:1659,0
DA:1662,0
DA:1663,0
DA:1664,0
DA:1665,0
DA:1666,0
DA:1667,0
DA:1668,0
DA:1669,0
DA:1670,0
DA:1671,0
DA:1672,0
DA:1673,0
DA:1674,0
DA:1675,0
DA:1676,0
DA:1677,0
DA:1678,0
DA:1681,0
DA:1682,0
DA:1683,0
DA:1684,0
DA:1685,0
DA:1686,0
DA:1687,0
DA:1689,0
DA:1690,0
DA:1691,0
DA:1693,0
DA:1697,0
DA:1706,0
DA:1707,0
DA:1708,0
DA:1709,0
DA:1711,0
DA:1712,0
DA:1713,0
DA:1715,0
DA:1716,0
DA:1718,0
DA:1723,0
DA:1733,0
DA:1734,0
DA:1743,0
DA:1744,0
DA:1745,0
DA:1746,0
DA:1747,0
DA:1748,0
DA:1750,0
DA:1751,0
DA:1753,0
DA:1755,0
DA:1757,0
DA:1761,0
DA:1762,0
DA:1763,0
DA:1764,0
DA:1765,0
DA:1766,0
DA:1767,0
DA:1768,0
DA:1769,0
DA:1770,0
DA:1771,0
DA:1772,0
DA:1773,0
DA:1774,0
DA:1775,0
DA:1776,0
DA:1777,0
DA:1778,0
DA:1779,0
DA:1780,0
DA:1781,0
DA:1782,0
DA:1783,0
DA:1784,0
DA:1785,0
DA:1786,0
DA:1787,0
DA:1788,0
DA:1789,0
DA:1790,0
DA:1791,0
DA:1792,0
DA:1793,0
DA:1794,0
DA:1795,0
DA:1796,0
DA:1797,0
DA:1799,0
DA:1800,0
DA:1801,0
DA:1803,0
DA:1804,0
DA:1805,0
DA:1806,0
DA:1807,0
DA:1809,0
DA:1810,0
DA:1812,0
DA:1814,0
DA:1815,0
DA:1816,0
DA:1817,0
DA:1819,0
DA:1820,0
DA:1821,0
DA:1823,0
DA:1824,0
DA:1825,0
DA:1827,0
DA:1828,0
DA:1829,0
DA:1830,0
DA:1831,0
DA:1832,0
DA:1833,0
DA:1834,0
DA:1835,0
DA:1836,0
DA:1837,0
DA:1839,0
DA:1840,0
DA:1841,0
DA:1843,0
DA:1844,0
DA:1845,0
DA:1846,0
DA:1847,0
DA:1848,0
DA:1849,0
DA:1851,0
DA:1852,0
DA:1853,0
DA:1855,0
DA:1856,0
DA:1857,0
DA:1860,0
DA:1861,0
DA:1862,0
DA:1863,0
DA:1864,0
DA:1865,0
DA:1868,0
DA:1869,0
DA:1870,0
DA:1871,0
DA:1873,0
DA:1874,0
DA:1875,0
DA:1876,0
DA:1878,0
DA:1879,0
DA:1880,0
DA:1881,0
DA:1882,0
DA:1883,0
DA:1884,0
DA:1886,0
DA:1887,0
DA:1888,0
DA:1889,0
DA:1891,0
DA:1892,0
DA:1893,0
DA:1894,0
DA:1895,0
DA:1896,0
DA:1897,0
DA:1899,0
DA:1900,0
DA:1902,0
DA:1903,0
DA:1905,0
DA:1906,0
DA:1907,0
DA:1908,0
DA:1909,0
DA:1912,0
DA:1914,0
DA:1916,0
DA:1917,0
DA:1919,0
DA:1920,0
DA:1921,0
DA:1922,0
DA:1923,0
DA:1924,0
DA:1925,0
DA:1926,0
DA:1927,0
DA:1928,0
DA:1930,0
DA:1931,0
DA:1932,0
DA:1934,0
DA:1935,0
DA:1936,0
DA:1937,0
DA:1939,0
DA:1940,0
DA:1941,0
DA:1942,0
DA:1943,0
DA:1945,0
DA:1946,0
DA:1948,0
DA:1949,0
DA:1950,0
DA:1951,0
DA:1955,0
DA:1956,0
DA:1957,0
DA:1958,0
DA:1959,0
DA:1960,0
DA:1961,0
DA:1962,0
DA:1963,0
DA:1966,0
DA:1967,0
DA:1970,0
DA:1973,0
DA:1974,0
DA:1975,0
DA:1977,0
DA:1980,0
DA:1981,0
DA:1982,0
DA:1983,0
DA:1984,0
DA:1985,0
DA:1986,0
DA:1987,0
DA:1989,0
DA:1990,0
DA:1991,0
DA:1993,0
DA:1994,0
DA:1998,0
DA:2000,0
DA:2001,0
DA:2002,0
DA:2003,0
DA:2005,0
DA:2008,0
DA:2009,0
DA:2014,0
DA:2015,0
DA:2016,0
DA:2017,0
DA:2018,0
DA:2031,0
DA:2032,0
DA:2033,0
DA:2034,0
DA:2035,0
DA:2037,0
DA:2038,0
DA:2039,0
DA:2041,0
DA:2044,0
DA:2045,0
DA:2046,0
DA:2049,0
DA:2050,0
DA:2051,0
DA:2052,0
DA:2053,0
DA:2054,0
DA:2055,0
DA:2056,0
DA:2057,0
DA:2061,0
DA:2062,0
DA:2063,0
DA:2064,0
DA:2065,0
DA:2066,0
DA:2067,0
DA:2068,0
DA:2069,0
DA:2071,0
DA:2072,0
DA:2074,0
DA:2075,0
DA:2076,0
DA:2077,0
DA:2078,0
DA:2079,0
DA:2085,0
DA:2086,0
DA:2089,0
DA:2090,0
DA:2091,0
DA:2092,0
DA:2093,0
DA:2094,0
DA:2095,0
DA:2096,0
DA:2097,0
DA:2098,0
DA:2099,0
DA:2103,0
DA:2104,0
DA:2105,0
DA:2107,0
DA:2108,0
DA:2109,0
DA:2115,0
DA:2116,0
DA:2117,0
DA:2118,0
DA:2121,0
DA:2122,0
DA:2123,0
DA:2125,0
DA:2126,0
DA:2127,0
DA:2128,0
DA:2129,0
DA:2130,0
DA:2131,0
DA:2132,0
DA:2133,0
DA:2134,0
DA:2135,0
DA:2138,0
DA:2139,0
DA:2140,0
DA:2142,0
DA:2143,0
DA:2146,0
DA:2148,0
DA:2149,0
DA:2150,0
DA:2151,0
DA:2153,0
DA:2154,0
DA:2155,0
DA:2156,0
DA:2157,0
DA:2158,0
DA:2159,0
DA:2160,0
DA:2161,0
DA:2162,0
DA:2164,0
DA:2166,0
DA:2167,0
DA:2168,0
DA:2169,0
DA:2171,0
DA:2172,0
DA:2173,0
DA:2174,0
DA:2175,0
DA:2176,0
DA:2177,0
DA:2178,0
DA:2179,0
DA:2180,0
DA:2181,0
DA:2182,0
DA:2184,0
DA:2185,0
DA:2186,0
DA:2187,0
DA:2188,0
DA:2189,0
DA:2191,0
DA:2192,0
DA:2195,0
DA:2197,0
DA:2199,0
DA:2200,0
DA:2203,0
DA:2204,0
DA:2205,0
DA:2206,0
DA:2207,0
DA:2208,0
DA:2209,0
DA:2210,0
DA:2211,0
DA:2217,0
DA:2218,0
DA:2219,0
DA:2220,0
DA:2221,0
DA:2222,0
DA:2224,0
DA:2228,0
DA:2229,0
DA:2231,0
DA:2232,0
DA:2233,0
DA:2234,0
DA:2235,0
DA:2236,0
DA:2243,0
DA:2244,0
DA:2245,0
DA:2276,0
DA:2277,0
DA:2278,0
DA:2279,0
DA:2280,0
DA:2281,0
DA:2283,0
DA:2285,0
DA:2287,0
DA:2288,0
DA:2290,0
DA:2292,0
DA:2293,0
DA:2294,0
DA:2295,0
DA:2296,0
DA:2297,0
DA:2298,0
DA:2299,0
DA:2302,0
DA:2303,0
DA:2310,0
DA:2311,0
DA:2312,0
DA:2313,0
DA:2314,0
DA:2315,0
DA:2317,0
DA:2318,0
DA:2319,0
DA:2320,0
DA:2321,0
DA:2322,0
DA:2323,0
DA:2325,0
DA:2326,0
DA:2328,0
DA:2331,0
DA:2332,0
DA:2333,0
DA:2334,0
DA:2335,0
DA:2336,0
DA:2339,0
DA:2341,0
DA:2342,0
DA:2343,0
DA:2344,0
DA:2345,0
DA:2346,0
DA:2347,0
DA:2348,0
DA:2349,0
DA:2350,0
DA:2351,0
DA:2352,0
DA:2354,0
DA:2355,0
DA:2356,0
DA:2357,0
DA:2358,0
DA:2359,0
DA:2360,0
DA:2361,0
DA:2362,0
DA:2363,0
DA:2364,0
DA:2365,0
DA:2368,0
DA:2369,0
DA:2370,0
DA:2371,0
DA:2372,0
DA:2373,0
DA:2374,0
DA:2375,0
DA:2376,0
DA:2377,0
DA:2378,0
DA:2379,0
DA:2381,0
DA:2382,0
DA:2383,0
DA:2384,0
DA:2385,0
DA:2386,0
DA:2388,0
DA:2389,0
DA:2390,0
DA:2391,0
DA:2392,0
DA:2393,0
DA:2394,0
DA:2398,0
DA:2399,0
DA:2401,0
DA:2402,0
DA:2403,0
DA:2405,0
DA:2408,0
DA:2409,0
DA:2410,0
DA:2411,0
DA:2412,0
DA:2413,0
DA:2415,0
DA:2416,0
DA:2417,0
DA:2418,0
DA:2419,0
DA:2420,0
DA:2421,0
DA:2422,0
DA:2424,0
DA:2426,0
DA:2427,0
DA:2428,0
DA:2431,0
DA:2432,0
DA:2433,0
DA:2434,0
DA:2435,0
DA:2438,0
DA:2439,0
DA:2440,0
DA:2441,0
DA:2442,0
DA:2443,0
DA:2444,0
DA:2445,0
DA:2447,0
DA:2448,0
DA:2449,0
DA:2450,0
DA:2451,0
DA:2452,0
DA:2453,0
DA:2455,0
DA:2456,0
DA:2457,0
DA:2458,0
DA:2459,0
DA:2460,0
DA:2461,0
DA:2462,0
DA:2463,0
DA:2464,0
DA:2465,0
DA:2466,0
DA:2469,0
DA:2472,0
DA:2473,0
DA:2474,0
DA:2475,0
DA:2476,0
DA:2477,0
DA:2478,0
DA:2479,0
DA:2482,0
DA:2483,0
DA:2484,0
DA:2485,0
DA:2486,0
DA:2487,0
DA:2488,0
DA:2489,0
DA:2490,0
DA:2491,0
DA:2492,0
DA:2493,0
DA:2494,0
DA:2495,0
DA:2497,0
DA:2500,0
DA:2501,0
DA:2502,0
DA:2503,0
DA:2506,0
DA:2507,0
DA:2508,0
DA:2509,0
DA:2510,0
DA:2511,0
DA:2512,0
DA:2513,0
DA:2514,0
DA:2516,0
DA:2517,0
DA:2518,0
DA:2519,0
DA:2520,0
DA:2521,0
DA:2524,0
DA:2525,0
DA:2526,0
DA:2527,0
DA:2533,0
DA:2534,0
DA:2535,0
DA:2536,0
DA:2537,0
DA:2538,0
DA:2539,0
DA:2543,0
DA:2544,0
DA:2545,0
DA:2546,0
DA:2547,0
DA:2548,0
DA:2549,0
DA:2551,0
DA:2552,0
DA:2553,0
DA:2557,0
DA:2559,0
DA:2560,0
DA:2561,0
DA:2562,0
DA:2563,0
DA:2564,0
DA:2565,0
DA:2566,0
DA:2567,0
DA:2568,0
DA:2570,0
DA:2572,0
DA:2575,0
DA:2576,0
DA:2577,0
DA:2578,0
DA:2579,0
DA:2580,0
DA:2581,0
DA:2582,0
DA:2583,0
DA:2584,0
DA:2585,0
DA:2589,0
DA:2590,0
DA:2591,0
DA:2592,0
DA:2593,0
DA:2594,0
DA:2595,0
DA:2596,0
DA:2598,0
DA:2599,0
DA:2600,0
DA:2601,0
DA:2604,0
DA:2605,0
DA:2606,0
DA:2607,0
DA:2613,0
DA:2614,0
DA:2615,0
DA:2616,0
DA:2617,0
DA:2618,0
DA:2619,0
DA:2620,0
DA:2621,0
DA:2622,0
DA:2623,0
DA:2625,0
DA:2626,0
DA:2627,0
DA:2628,0
DA:2629,0
DA:2630,0
DA:2631,0
DA:2633,0
DA:2635,0
DA:2641,0
DA:2642,0
DA:2643,0
DA:2645,0
DA:2646,0
DA:2647,0
DA:2648,0
DA:2649,0
DA:2650,0
DA:2651,0
DA:2652,0
DA:2653,0
DA:2655,0
DA:2656,0
DA:2659,0
DA:2660,0
DA:2661,0
DA:2665,0
DA:2666,0
DA:2667,0
DA:2668,0
DA:2669,0
DA:2670,0
DA:2671,0
DA:2672,0
DA:2674,0
DA:2677,0
DA:2678,0
DA:2679,0
DA:2680,0
DA:2682,0
DA:2683,0
DA:2685,0
DA:2686,0
DA:2687,0
DA:2688,0
DA:2689,0
DA:2690,0
DA:2691,0
DA:2692,0
DA:2693,0
DA:2694,0
DA:2697,0
DA:2698,0
DA:2699,0
DA:2700,0
DA:2701,0
DA:2704,0
DA:2706,0
DA:2707,0
DA:2708,0
DA:2709,0
DA:2710,0
DA:2711,0
DA:2712,0
DA:2713,0
DA:2714,0
DA:2715,0
DA:2716,0
DA:2717,0
DA:2718,0
DA:2719,0
DA:2720,0
DA:2723,0
DA:2724,0
DA:2725,0
DA:2726,0
DA:2727,0
DA:2728,0
DA:2729,0
DA:2730,0
DA:2731,0
DA:2732,0
DA:2733,0
DA:2736,0
DA:2737,0
DA:2738,0
DA:2739,0
DA:2740,0
DA:2741,0
DA:2742,0
DA:2743,0
DA:2744,0
DA:2745,0
DA:2746,0
DA:2747,0
DA:2748,0
DA:2749,0
DA:2753,0
DA:2754,0
DA:2755,0
DA:2756,0
DA:2757,0
DA:2758,0
DA:2759,0
DA:2761,0
DA:2762,0
DA:2764,0
DA:2779,0
DA:2780,0
DA:2781,0
DA:2782,0
DA:2783,0
DA:2785,0
DA:2786,0
DA:2787,0
DA:2788,0
DA:2790,0
DA:2791,0
DA:2792,0
DA:2793,0
DA:2794,0
DA:2805,0
DA:2806,0
DA:2807,0
DA:2809,0
DA:2810,0
DA:2811,0
DA:2812,0
DA:2813,0
DA:2814,0
DA:2815,0
DA:2816,0
DA:2817,0
DA:2818,0
DA:2819,0
DA:2821,0
DA:2822,0
DA:2823,0
DA:2825,0
DA:2826,0
DA:2827,0
DA:2830,0
DA:2834,0
DA:2835,0
DA:2836,0
DA:2837,0
DA:2838,0
DA:2841,0
DA:2844,0
DA:2845,0
DA:2846,0
DA:2847,0
DA:2848,0
DA:2849,0
DA:2850,0
DA:2852,0
DA:2853,0
DA:2854,0
DA:2855,0
DA:2857,0
DA:2860,0
DA:2866,0
DA:2869,0
DA:2870,0
DA:2871,0
DA:2872,0
DA:2874,0
DA:2875,0
DA:2876,0
DA:2878,0
DA:2879,0
DA:2881,0
DA:2882,0
DA:2883,0
DA:2885,0
DA:2886,0
DA:2887,0
DA:2888,0
DA:2890,0
DA:2891,0
DA:2892,0
DA:2893,0
DA:2896,0
DA:2904,0
DA:2905,0
DA:2906,0
DA:2907,0
DA:2908,0
DA:2909,0
DA:2910,0
DA:2911,0
DA:2912,0
DA:2913,0
DA:2914,0
DA:2915,0
DA:2919,0
DA:2920,0
DA:2922,0
DA:2924,0
DA:2929,0
DA:2931,0
DA:2932,0
DA:2934,0
DA:2935,0
DA:2936,0
DA:2938,0
DA:2939,0
DA:2940,0
DA:2943,0
DA:2950,0
DA:2951,0
DA:2952,0
DA:2953,0
DA:2954,0
DA:2955,0
DA:2956,0
DA:2957,0
DA:2958,0
DA:2959,0
DA:2960,0
DA:2961,0
DA:2969,0
DA:2971,0
DA:2972,0
DA:2975,0
DA:2976,0
DA:2977,0
DA:2978,0
DA:2979,0
DA:2983,0
DA:2984,0
DA:2985,0
DA:2986,0
DA:2987,0
DA:2994,0
DA:2995,0
DA:3000,0
DA:3001,0
DA:3004,0
DA:3005,0
DA:3006,0
DA:3007,0
DA:3013,0
DA:3014,0
DA:3016,0
DA:3017,0
DA:3023,0
DA:3024,0
DA:3025,0
DA:3026,0
DA:3027,0
DA:3028,0
DA:3029,0
DA:3030,0
DA:3031,0
DA:3032,0
DA:3036,0
DA:3038,0
DA:3044,0
DA:3045,0
DA:3047,0
DA:3048,0
DA:3049,0
DA:3052,0
DA:3057,0
DA:3060,0
DA:3067,0
DA:3076,0
DA:3077,0
DA:3082,0
DA:3083,0
DA:3086,0
DA:3088,0
DA:3093,0
DA:3094,0
DA:3095,0
DA:3096,0
DA:3097,0
DA:3098,0
DA:3100,0
DA:3101,0
DA:3103,0
DA:3104,0
DA:3106,0
DA:3109,0
DA:3117,0
DA:3118,0
DA:3119,0
DA:3120,0
DA:3121,0
DA:3122,0
DA:3123,0
DA:3124,0
DA:3125,0
DA:3127,0
DA:3129,0
DA:3133,0
DA:3134,0
DA:3137,0
DA:3138,0
DA:3139,0
DA:3140,0
DA:3141,0
DA:3142,0
DA:3144,0
DA:3145,0
DA:3146,0
DA:3147,0
DA:3148,0
DA:3152,0
DA:3153,0
DA:3155,0
DA:3156,0
DA:3157,0
DA:3162,0
DA:3163,0
DA:3164,0
DA:3166,0
DA:3172,0
DA:3175,0
DA:3176,0
DA:3177,0
DA:3178,0
DA:3180,0
DA:3181,0
DA:3183,0
DA:3184,0
DA:3185,0
DA:3187,0
DA:3190,0
DA:3192,0
DA:3193,0
DA:3196,0
DA:3201,0
DA:3203,0
DA:3204,0
DA:3205,0
DA:3206,0
DA:3207,0
DA:3208,0
DA:3210,0
DA:3211,0
DA:3213,0
DA:3214,0
DA:3215,0
DA:3217,0
DA:3218,0
DA:3219,0
DA:3221,0
DA:3224,0
DA:3225,0
DA:3226,0
DA:3233,0
DA:3234,0
DA:3236,0
DA:3237,0
DA:3238,0
DA:3239,0
DA:3241,0
DA:3244,0
DA:3245,0
DA:3246,0
DA:3248,0
DA:3249,0
DA:3250,0
DA:3252,0
DA:3254,0
DA:3255,0
DA:3256,0
DA:3258,0
DA:3259,0
DA:3260,0
DA:3261,0
DA:3265,0
DA:3266,0
DA:3267,0
DA:3268,0
DA:3269,0
DA:3270,0
DA:3271,0
DA:3272,0
DA:3273,0
DA:3274,0
DA:3276,0
DA:3279,0
DA:3281,0
DA:3283,0
DA:3290,0
DA:3291,0
DA:3293,0
DA:3294,0
DA:3295,0
DA:3296,0
DA:3297,0
DA:3298,0
DA:3299,0
DA:3300,0
DA:3301,0
DA:3302,0
DA:3305,0
DA:3306,0
DA:3307,0
DA:3309,0
DA:3310,0
DA:3311,0
DA:3312,0
DA:3313,0
DA:3318,0
DA:3319,0
DA:3320,0
DA:3321,0
DA:3323,0
DA:3326,0
DA:3327,0
DA:3328,0
DA:3329,0
DA:3330,0
DA:3331,0
DA:3332,0
DA:3333,0
DA:3334,0
DA:3335,0
DA:3336,0
DA:3337,0
DA:3338,0
DA:3339,0
DA:3342,0
DA:3343,0
DA:3344,0
DA:3345,0
DA:3346,0
DA:3347,0
DA:3348,0
DA:3349,0
DA:3350,0
DA:3351,0
DA:3352,0
DA:3353,0
DA:3354,0
DA:3355,0
DA:3356,0
DA:3357,0
DA:3358,0
DA:3359,0
DA:3360,0
DA:3361,0
DA:3363,0
DA:3364,0
DA:3365,0
DA:3366,0
DA:3367,0
DA:3368,0
DA:3370,0
DA:3372,0
DA:3374,0
DA:3375,0
DA:3376,0
DA:3377,0
DA:3378,0
DA:3379,0
DA:3380,0
DA:3381,0
DA:3382,0
DA:3383,0
DA:3384,0
DA:3385,0
DA:3386,0
DA:3387,0
DA:3390,0
DA:3391,0
DA:3392,0
DA:3393,0
DA:3394,0
DA:3395,0
DA:3398,0
DA:3399,0
DA:3400,0
DA:3401,0
DA:3402,0
DA:3405,0
DA:3411,0
DA:3412,0
DA:3413,0
DA:3414,0
DA:3415,0
DA:3416,0
DA:3418,0
DA:3421,0
DA:3422,0
DA:3423,0
DA:3424,0
DA:3425,0
DA:3426,0
DA:3427,0
DA:3428,0
DA:3430,0
DA:3431,0
DA:3432,0
DA:3433,0
DA:3434,0
DA:3435,0
DA:3436,0
DA:3437,0
DA:3438,0
DA:3441,0
DA:3442,0
DA:3443,0
DA:3444,0
DA:3445,0
DA:3446,0
DA:3447,0
DA:3448,0
DA:3449,0
DA:3450,0
DA:3451,0
DA:3452,0
DA:3453,0
DA:3454,0
DA:3455,0
DA:3456,0
DA:3457,0
DA:3458,0
DA:3459,0
DA:3461,0
DA:3462,0
DA:3463,0
DA:3464,0
DA:3465,0
DA:3466,0
DA:3467,0
DA:3468,0
DA:3469,0
DA:3470,0
DA:3471,0
DA:3472,0
DA:3473,0
DA:3474,0
DA:3475,0
DA:3476,0
DA:3477,0
DA:3478,0
DA:3479,0
DA:3480,0
DA:3481,0
DA:3482,0
DA:3485,0
DA:3490,0
DA:3491,0
DA:3492,0
DA:3493,0
DA:3494,0
DA:3497,0
DA:3516,0
DA:3517,0
DA:3518,0
DA:3519,0
DA:3523,0
DA:3524,0
DA:3525,0
DA:3526,0
DA:3527,0
DA:3528,0
DA:3529,0
DA:3531,0
DA:3532,0
DA:3533,0
DA:3534,0
DA:3535,0
DA:3536,0
DA:3537,0
DA:3538,0
DA:3539,0
DA:3540,0
DA:3541,0
DA:3543,0
DA:3547,0
DA:3548,0
DA:3549,0
DA:3550,0
DA:3551,0
DA:3552,0
DA:3553,0
DA:3555,0
DA:3558,0
DA:3559,0
DA:3560,0
DA:3561,0
DA:3562,0
DA:3563,0
DA:3564,0
DA:3565,0
DA:3566,0
DA:3567,0
DA:3568,0
DA:3569,0
DA:3570,0
DA:3571,0
DA:3572,0
DA:3573,0
DA:3574,0
DA:3575,0
DA:3576,0
DA:3577,0
DA:3578,0
DA:3579,0
DA:3580,0
DA:3581,0
DA:3582,0
DA:3583,0
DA:3587,0
DA:3588,0
DA:3589,0
DA:3590,0
DA:3591,0
DA:3592,0
DA:3593,0
DA:3594,0
DA:3595,0
DA:3596,0
DA:3598,0
DA:3599,0
DA:3600,0
DA:3601,0
DA:3602,0
DA:3603,0
DA:3604,0
DA:3605,0
DA:3606,0
DA:3607,0
DA:3608,0
DA:3609,0
DA:3610,0
DA:3615,0
DA:3617,0
DA:3618,0
DA:3619,0
DA:3620,0
DA:3621,0
DA:3622,0
DA:3623,0
DA:3624,0
DA:3625,0
DA:3626,0
DA:3627,0
DA:3628,0
DA:3629,0
DA:3630,0
DA:3631,0
DA:3632,0
DA:3635,0
DA:3636,0
DA:3637,0
DA:3638,0
DA:3639,0
DA:3640,0
DA:3641,0
DA:3642,0
DA:3643,0
DA:3644,0
DA:3645,0
DA:3646,0
DA:3647,0
DA:3648,0
DA:3649,0
DA:3650,0
DA:3654,0
DA:3655,0
DA:3656,0
DA:3657,0
DA:3658,0
DA:3659,0
DA:3660,0
DA:3661,0
DA:3662,0
DA:3663,0
DA:3664,0
DA:3665,0
DA:3666,0
DA:3667,0
DA:3668,0
DA:3669,0
DA:3673,0
DA:3674,0
DA:3677,0
DA:3678,0
DA:3679,0
DA:3680,0
DA:3681,0
DA:3682,0
DA:3683,0
DA:3684,0
DA:3686,0
DA:3687,0
DA:3688,0
DA:3689,0
DA:3691,0
DA:3692,0
DA:3693,0
DA:3694,0
DA:3695,0
DA:3696,0
DA:3697,0
DA:3698,0
DA:3699,0
DA:3700,0
DA:3701,0
DA:3702,0
DA:3703,0
DA:3705,0
DA:3717,0
DA:3718,0
DA:3719,0
DA:3738,0
DA:3739,0
DA:3740,0
DA:3741,0
DA:3742,0
DA:3743,0
DA:3744,0
DA:3745,0
DA:3746,0
DA:3748,0
DA:3751,0
DA:3752,0
DA:3753,0
DA:3754,0
DA:3755,0
DA:3756,0
DA:3757,0
DA:3759,0
DA:3760,0
DA:3761,0
DA:3762,0
DA:3765,0
DA:3771,0
DA:3772,0
DA:3773,0
DA:3774,0
DA:3775,0
DA:3776,0
DA:3777,0
DA:3778,0
DA:3779,0
DA:3780,0
DA:3781,0
DA:3784,0
DA:3785,0
DA:3786,0
DA:3787,0
DA:3788,0
DA:3789,0
DA:3790,0
DA:3791,0
DA:3792,0
DA:3793,0
DA:3794,0
DA:3795,0
DA:3796,0
DA:3797,0
DA:3798,0
DA:3801,0
DA:3802,0
DA:3803,0
DA:3804,0
DA:3805,0
DA:3806,0
DA:3807,0
DA:3809,0
DA:3811,0
DA:3812,0
DA:3813,0
DA:3814,0
DA:3815,0
DA:3816,0
DA:3819,0
DA:3820,0
DA:3821,0
DA:3822,0
DA:3824,0
DA:3825,0
DA:3826,0
DA:3827,0
DA:3828,0
DA:3829,0
DA:3830,0
DA:3836,0
DA:3837,0
DA:3838,0
DA:3839,0
DA:3840,0
DA:3841,0
DA:3842,0
DA:3847,0
DA:3848,0
DA:3849,0
DA:3850,0
DA:3851,0
DA:3854,0
DA:3855,0
DA:3856,0
DA:3857,0
DA:3860,0
DA:3863,0
DA:3864,0
DA:3865,0
DA:3866,0
DA:3868,0
DA:3869,0
DA:3870,0
DA:3871,0
DA:3872,0
DA:3873,0
DA:3874,0
DA:3875,0
DA:3876,0
DA:3878,0
DA:3882,0
DA:3883,0
DA:3884,0
DA:3885,0
DA:3886,0
DA:3887,0
DA:3888,0
DA:3889,0
DA:3890,0
DA:3892,0
DA:3893,0
DA:3894,0
DA:3895,0
DA:3896,0
DA:3897,0
DA:3898,0
DA:3899,0
DA:3900,0
DA:3901,0
DA:3902,0
DA:3904,0
DA:3905,0
DA:3906,0
DA:3907,0
DA:3908,0
DA:3909,0
DA:3910,0
DA:3911,0
DA:3912,0
DA:3913,0
DA:3914,0
DA:3915,0
DA:3916,0
DA:3917,0
DA:3918,0
DA:3919,0
DA:3920,0
DA:3921,0
DA:3922,0
DA:3923,0
DA:3925,0
DA:3926,0
DA:3927,0
DA:3928,0
DA:3929,0
DA:3930,0
DA:3931,0
DA:3932,0
DA:3933,0
DA:3934,0
DA:3935,0
DA:3936,0
DA:3939,0
DA:3940,0
DA:3941,0
DA:3942,0
DA:3943,0
DA:3944,0
DA:3945,0
DA:3946,0
DA:3947,0
DA:3948,0
DA:3949,0
DA:3950,0
DA:3951,0
DA:3953,0
DA:3954,0
DA:3955,0
DA:3956,0
DA:3958,0
DA:3961,0
DA:3962,0
DA:3963,0
DA:3964,0
DA:3966,0
DA:3967,0
DA:3968,0
DA:3969,0
DA:3970,0
DA:3971,0
DA:3974,0
DA:3975,0
DA:3976,0
DA:3977,0
DA:3978,0
DA:3979,0
DA:3980,0
DA:3981,0
DA:3982,0
DA:3983,0
DA:3984,0
DA:3985,0
DA:3986,0
DA:3987,0
DA:3991,0
DA:3992,0
DA:3993,0
DA:3994,0
DA:3995,0
DA:3996,0
DA:3998,0
DA:4001,0
DA:4002,0
DA:4003,0
DA:4004,0
DA:4005,0
DA:4006,0
DA:4007,0
DA:4009,0
DA:4010,0
DA:4011,0
DA:4012,0
DA:4013,0
DA:4014,0
DA:4015,0
DA:4018,0
DA:4021,0
DA:4022,0
DA:4023,0
DA:4024,0
DA:4025,0
DA:4026,0
DA:4027,0
DA:4028,0
DA:4029,0
DA:4032,0
DA:4033,0
DA:4038,0
DA:4044,0
DA:4049,0
DA:4050,0
DA:4052,0
DA:4053,0
DA:4054,0
DA:4055,0
DA:4057,0
DA:4058,0
DA:4059,0
DA:4060,0
DA:4062,0
DA:4065,0
DA:4066,0
DA:4067,0
DA:4068,0
DA:4069,0
DA:4070,0
DA:4071,0
DA:4073,0
DA:4074,0
DA:4075,0
DA:4076,0
DA:4078,0
DA:4081,0
DA:4082,0
DA:4083,0
DA:4084,0
DA:4085,0
DA:4086,0
DA:4087,0
DA:4113,0
DA:4114,0
DA:4117,0
DA:4118,0
DA:4119,0
DA:4120,0
DA:4121,0
DA:4122,0
DA:4123,0
DA:4124,0
DA:4126,0
DA:4127,0
DA:4128,0
DA:4129,0
DA:4131,0
DA:4144,0
DA:4145,0
DA:4146,0
DA:4148,0
DA:4149,0
DA:4150,0
DA:4156,0
DA:4157,0
DA:4158,0
DA:4159,0
DA:4160,0
DA:4161,0
DA:4162,0
DA:4163,0
DA:4165,0
DA:4166,0
DA:4167,0
DA:4168,0
DA:4169,0
DA:4171,0
DA:4172,0
DA:4173,0
DA:4174,0
DA:4176,0
DA:4181,0
DA:4182,0
DA:4183,0
DA:4184,0
DA:4185,0
DA:4186,0
DA:4187,0
DA:4188,0
DA:4190,0
DA:4191,0
DA:4192,0
DA:4193,0
DA:4194,0
DA:4195,0
DA:4197,0
DA:4198,0
DA:4199,0
DA:4200,0
DA:4201,0
DA:4203,0
DA:4204,0
DA:4205,0
DA:4206,0
DA:4208,0
DA:4213,0
DA:4214,0
DA:4215,0
DA:4216,0
DA:4217,0
DA:4218,0
DA:4219,0
DA:4220,0
DA:4221,0
DA:4222,0
DA:4225,0
DA:4226,0
DA:4227,0
DA:4228,0
DA:4229,0
DA:4230,0
DA:4233,0
DA:4234,0
DA:4235,0
DA:4236,0
DA:4237,0
DA:4239,0
DA:4240,0
DA:4241,0
DA:4242,0
DA:4243,0
DA:4244,0
DA:4245,0
DA:4246,0
DA:4247,0
DA:4248,0
DA:4249,0
DA:4250,0
DA:4252,0
DA:4257,0
DA:4258,0
DA:4259,0
DA:4260,0
DA:4261,0
DA:4262,0
DA:4263,0
DA:4264,0
DA:4265,0
DA:4268,0
DA:4269,0
DA:4270,0
DA:4271,0
DA:4272,0
DA:4273,0
DA:4276,0
DA:4277,0
DA:4278,0
DA:4279,0
DA:4280,0
DA:4281,0
DA:4282,0
DA:4283,0
DA:4284,0
DA:4293,0
DA:4294,0
DA:4295,0
DA:4296,0
DA:4297,0
DA:4315,0
DA:4351,0
DA:4352,0
DA:4354,0
DA:4356,0
DA:4357,0
DA:4358,0
DA:4359,0
DA:4360,0
DA:4361,0
DA:4363,0
DA:4365,0
DA:4367,0
DA:4368,0
DA:4369,0
DA:4370,0
DA:4371,0
DA:4372,0
DA:4373,0
DA:4374,0
DA:4375,0
DA:4376,0
DA:4377,0
DA:4378,0
DA:4379,0
DA:4380,0
DA:4381,0
DA:4382,0
DA:4383,0
DA:4384,0
DA:4385,0
DA:4386,0
DA:4387,0
DA:4388,0
DA:4390,0
DA:4401,0
DA:4402,0
DA:4403,0
DA:4404,0
DA:4405,0
DA:4406,0
DA:4408,0
DA:4410,0
DA:4411,0
DA:4412,0
DA:4413,0
DA:4414,0
DA:4415,0
DA:4416,0
DA:4417,0
DA:4419,0
DA:4420,0
DA:4421,0
DA:4422,0
DA:4424,0
DA:4437,0
DA:4438,0
DA:4439,0
DA:4440,0
DA:4441,0
DA:4442,0
DA:4443,0
DA:4444,0
DA:4445,0
DA:4446,0
DA:4447,0
DA:4448,0
DA:4452,0
DA:4454,0
DA:4455,0
DA:4458,0
DA:4459,0
DA:4460,0
DA:4461,0
DA:4462,0
DA:4463,0
DA:4464,0
DA:4465,0
DA:4468,0
DA:4469,0
DA:4470,0
DA:4471,0
DA:4472,0
DA:4479,0
DA:4480,0
DA:4481,0
DA:4482,0
DA:4483,0
DA:4484,0
DA:4486,0
DA:4487,0
DA:4488,0
DA:4489,0
DA:4490,0
DA:4493,0
DA:4495,0
DA:4496,0
DA:4497,0
DA:4498,0
DA:4499,0
DA:4500,0
DA:4501,0
DA:4502,0
DA:4503,0
DA:4504,0
DA:4505,0
DA:4506,0
DA:4507,0
DA:4508,0
DA:4509,0
DA:4510,0
DA:4512,0
DA:4515,0
DA:4516,0
DA:4517,0
DA:4518,0
DA:4519,0
DA:4520,0
DA:4522,0
DA:4524,0
DA:4525,0
DA:4526,0
DA:4527,0
DA:4528,0
DA:4529,0
DA:4530,0
DA:4531,0
DA:4533,0
DA:4534,0
DA:4535,0
DA:4536,0
DA:4538,0
DA:4541,0
DA:4542,0
DA:4543,0
DA:4544,0
DA:4545,0
DA:4546,0
DA:4547,0
DA:4548,0
DA:4549,0
DA:4550,0
DA:4551,0
DA:4552,0
DA:4556,0
DA:4557,0
DA:4558,0
DA:4559,0
DA:4560,0
DA:4561,0
DA:4562,0
DA:4563,0
DA:4564,0
DA:4565,0
DA:4568,0
DA:4569,0
DA:4570,0
DA:4571,0
DA:4572,0
DA:4573,0
DA:4574,0
DA:4576,0
DA:4577,0
DA:4578,0
DA:4579,0
DA:4580,0
DA:4583,0
DA:4585,0
DA:4586,0
DA:4587,0
DA:4588,0
DA:4589,0
DA:4590,0
DA:4591,0
DA:4592,0
DA:4593,0
DA:4594,0
DA:4595,0
DA:4596,0
DA:4597,0
DA:4598,0
DA:4599,0
DA:4600,0
DA:4602,0
DA:4605,0
DA:4606,0
DA:4607,0
DA:4608,0
DA:4609,0
DA:4610,0
DA:4611,0
DA:4612,0
DA:4613,0
DA:4614,0
DA:4615,0
DA:4619,0
DA:4620,0
DA:4621,0
DA:4622,0
DA:4623,0
DA:4624,0
DA:4625,0
DA:4626,0
DA:4627,0
DA:4628,0
DA:4629,0
DA:4630,0
DA:4631,0
DA:4632,0
DA:4633,0
DA:4634,0
DA:4635,0
DA:4637,0
DA:4640,0
DA:4641,0
DA:4642,0
DA:4643,0
DA:4644,0
DA:4645,0
DA:4646,0
DA:4647,0
DA:4648,0
DA:4651,0
DA:4652,0
DA:4653,0
DA:4654,0
DA:4655,0
DA:4656,0
DA:4657,0
DA:4660,0
DA:4661,0
DA:4662,0
DA:4663,0
DA:4664,0
DA:4665,0
DA:4666,0
DA:4667,0
DA:4668,0
DA:4669,0
DA:4670,0
DA:4671,0
DA:4672,0
DA:4674,0
DA:4675,0
DA:4676,0
DA:4677,0
DA:4679,0
DA:4682,0
DA:4683,0
DA:4684,0
DA:4685,0
DA:4686,0
DA:4687,0
DA:4688,0
DA:4689,0
DA:4690,0
DA:4693,0
DA:4694,0
DA:4695,0
DA:4696,0
DA:4697,0
DA:4698,0
DA:4699,0
DA:4702,0
DA:4703,0
DA:4704,0
DA:4705,0
DA:4706,0
DA:4707,0
DA:4708,0
DA:4709,0
DA:4710,0
DA:4711,0
DA:4712,0
DA:4713,0
DA:4714,0
DA:4716,0
DA:4717,0
DA:4718,0
DA:4719,0
DA:4721,0
DA:4724,0
DA:4725,0
DA:4726,0
DA:4727,0
DA:4728,0
DA:4729,0
DA:4730,0
DA:4737,0
DA:4738,0
DA:4739,0
DA:4740,0
DA:4741,0
DA:4742,0
DA:4743,0
DA:4744,0
DA:4745,0
DA:4746,0
DA:4747,0
DA:4748,0
DA:4751,0
DA:4752,0
DA:4753,0
DA:4754,0
DA:4755,0
DA:4756,0
DA:4757,0
DA:4758,0
DA:4759,0
DA:4760,0
DA:4761,0
DA:4762,0
DA:4765,0
DA:4766,0
DA:4767,0
DA:4768,0
DA:4769,0
DA:4770,0
DA:4771,0
DA:4772,0
DA:4773,0
DA:4774,0
DA:4775,0
DA:4776,0
DA:4777,0
DA:4778,0
DA:4779,0
DA:4782,0
DA:4783,0
DA:4784,0
DA:4785,0
DA:4786,0
DA:4787,0
DA:4788,0
DA:4789,0
DA:4790,0
DA:4791,0
DA:4792,0
DA:4796,0
DA:4797,0
DA:4798,0
DA:4799,0
DA:4800,0
DA:4801,0
DA:4802,0
DA:4806,0
DA:4807,0
DA:4808,0
DA:4809,0
DA:4811,0
DA:4812,0
DA:4813,0
DA:4814,0
DA:4815,0
DA:4816,0
DA:4817,0
DA:4818,0
DA:4819,0
DA:4821,0
DA:4823,0
DA:4824,0
DA:4825,0
DA:4826,0
DA:4827,0
DA:4830,0
DA:4831,0
DA:4832,0
DA:4833,0
DA:4834,0
DA:4835,0
DA:4836,0
DA:4837,0
DA:4838,0
DA:4839,0
DA:4840,0
DA:4841,0
DA:4845,0
DA:4847,0
DA:4848,0
DA:4849,0
DA:4850,0
DA:4851,0
DA:4852,0
DA:4853,0
DA:4854,0
DA:4857,0
DA:4858,0
DA:4860,0
DA:4861,0
DA:4862,0
DA:4863,0
DA:4864,0
DA:4865,0
DA:4866,0
DA:4867,0
DA:4870,0
DA:4871,0
DA:4873,0
DA:4874,0
DA:4877,0
DA:4878,0
DA:4879,0
DA:4880,0
DA:4881,0
DA:4882,0
DA:4883,0
DA:4884,0
DA:4885,0
DA:4886,0
DA:4887,0
DA:4888,0
DA:4892,0
DA:4893,0
DA:4894,0
DA:4895,0
DA:4896,0
DA:4897,0
DA:4898,0
DA:4899,0
DA:4900,0
DA:4901,0
DA:4902,0
DA:4903,0
DA:4905,0
DA:4906,0
DA:4907,0
DA:4908,0
DA:4909,0
DA:4910,0
DA:4913,0
DA:4914,0
DA:4915,0
DA:4916,0
DA:4917,0
DA:4918,0
DA:4919,0
DA:4920,0
DA:4921,0
DA:4922,0
DA:4923,0
DA:4924,0
DA:4925,0
DA:4929,0
DA:4930,0
DA:4931,0
DA:4932,0
DA:4933,0
DA:4936,0
DA:4937,0
DA:4938,0
DA:4939,0
DA:4940,0
DA:4941,0
DA:4942,0
DA:4943,0
DA:4946,0
DA:4948,0
DA:4949,0
DA:4950,0
DA:4952,0
DA:4953,0
DA:4954,0
DA:4956,0
DA:4957,0
DA:4959,0
DA:4961,0
DA:4962,0
DA:4963,0
DA:4964,0
DA:4965,0
DA:4966,0
DA:4967,0
DA:4968,0
DA:4969,0
DA:4970,0
DA:4971,0
DA:4972,0
DA:4973,0
DA:4974,0
DA:4975,0
DA:4976,0
DA:4979,0
DA:4980,0
DA:4981,0
DA:4982,0
DA:4983,0
DA:4984,0
DA:4987,0
DA:4988,0
DA:4989,0
DA:4990,0
DA:4991,0
DA:4992,0
DA:4993,0
DA:4994,0
DA:4995,0
DA:4996,0
DA:4997,0
DA:4998,0
DA:5002,0
DA:5003,0
DA:5004,0
DA:5005,0
DA:5006,0
DA:5009,0
DA:5010,0
DA:5011,0
DA:5012,0
DA:5013,0
DA:5014,0
DA:5015,0
DA:5016,0
DA:5019,0
DA:5021,0
DA:5022,0
DA:5023,0
DA:5024,0
DA:5025,0
DA:5026,0
DA:5027,0
DA:5029,0
DA:5030,0
DA:5031,0
DA:5032,0
DA:5033,0
DA:5035,0
DA:5038,0
DA:5039,0
DA:5040,0
DA:5041,0
DA:5042,0
DA:5043,0
DA:5044,0
DA:5045,0
DA:5046,0
DA:5047,0
DA:5048,0
DA:5052,0
DA:5053,0
DA:5054,0
DA:5056,0
DA:5057,0
DA:5058,0
DA:5059,0
DA:5061,0
DA:5064,0
DA:5065,0
DA:5066,0
DA:5067,0
DA:5068,0
DA:5069,0
DA:5070,0
DA:5071,0
DA:5072,0
DA:5073,0
DA:5074,0
DA:5078,0
DA:5079,0
DA:5080,0
DA:5081,0
DA:5082,0
DA:5083,0
DA:5084,0
DA:5088,0
DA:5089,0
DA:5090,0
DA:5091,0
DA:5092,0
DA:5094,0
DA:5095,0
DA:5135,0
DA:5136,0
DA:5137,0
DA:5138,0
DA:5139,0
DA:5142,0
DA:5143,0
DA:5144,0
DA:5357,0
DA:5358,0
DA:5359,0
DA:5360,0
DA:5361,0
DA:5362,0
DA:5363,0
DA:5364,0
DA:5365,0
DA:5366,0
DA:5375,0
DA:5376,0
DA:5377,0
DA:5378,0
DA:5379,0
DA:5380,0
DA:5381,0
DA:5382,0
DA:5383,0
DA:5384,0
DA:5386,0
DA:5387,0
DA:5388,0
DA:5389,0
DA:5390,0
DA:5394,0
DA:5397,0
DA:5398,0
DA:5399,0
DA:5400,0
DA:5401,0
DA:5402,0
DA:5403,0
DA:5404,0
DA:5405,0
DA:5406,0
DA:5407,0
DA:5410,0
DA:5411,0
DA:5412,0
DA:5413,0
DA:5414,0
DA:5415,0
DA:5416,0
DA:5417,0
DA:5418,0
DA:5419,0
DA:5420,0
DA:5421,0
DA:5423,0
DA:5426,0
DA:5427,0
DA:5428,0
DA:5429,0
DA:5430,0
DA:5431,0
DA:5432,0
DA:5433,0
DA:5434,0
DA:5435,0
DA:5436,0
DA:5437,0
DA:5438,0
DA:5439,0
DA:5440,0
DA:5441,0
DA:5443,0
DA:5444,0
DA:5445,0
DA:5448,0
DA:5449,0
DA:5450,0
DA:5451,0
DA:5452,0
DA:5453,0
DA:5454,0
DA:5455,0
DA:5456,0
DA:5457,0
DA:5458,0
DA:5459,0
DA:5460,0
DA:5461,0
DA:5462,0
DA:5464,0
DA:5465,0
DA:5466,0
DA:5483,0
DA:5484,0
DA:5485,0
DA:5489,0
DA:5490,0
DA:5491,0
DA:5492,0
DA:5493,0
DA:5494,0
DA:5496,0
DA:5497,0
DA:5498,0
DA:5499,0
DA:5500,0
DA:5501,0
DA:5502,0
DA:5503,0
DA:5504,0
DA:5505,0
DA:5507,0
DA:5508,0
DA:5509,0
DA:5512,0
DA:5513,0
DA:5514,0
DA:5515,0
DA:5516,0
DA:5517,0
DA:5521,0
DA:5523,0
DA:5524,0
DA:5525,0
DA:5526,0
DA:5527,0
DA:5528,0
DA:5531,0
DA:5532,0
DA:5533,0
DA:5539,0
DA:5540,0
DA:5541,0
DA:5546,0
DA:5548,0
DA:5554,0
DA:5555,0
DA:5560,0
DA:5561,0
DA:5562,0
DA:5563,0
DA:5564,0
DA:5565,0
DA:5566,0
DA:5567,0
DA:5568,0
DA:5571,0
DA:5578,0
DA:5579,0
DA:5585,0
DA:5588,0
DA:5589,0
DA:5591,0
DA:5592,0
DA:5593,0
DA:5594,0
DA:5596,0
DA:5597,0
DA:5598,0
DA:5599,0
DA:5600,0
DA:5601,0
DA:5602,0
DA:5608,0
DA:5615,0
DA:5616,0
DA:5620,0
DA:5621,0
DA:5622,0
DA:5623,0
DA:5624,0
DA:5625,0
DA:5628,0
DA:5632,0
DA:5633,0
DA:5635,0
DA:5636,0
DA:5637,0
DA:5638,0
DA:5639,0
DA:5642,0
DA:5644,0
DA:5645,0
DA:5650,0
DA:5651,0
DA:5652,0
DA:5656,0
DA:5657,0
DA:5658,0
DA:5666,0
DA:5667,0
DA:5668,0
DA:5669,0
DA:5670,0
DA:5675,0
DA:5676,0
DA:5677,0
DA:5682,0
DA:5683,0
DA:5684,0
DA:5685,0
DA:5686,0
DA:5691,0
DA:5692,0
DA:5693,0
DA:5694,0
DA:5695,0
DA:5696,0
DA:5698,0
DA:5699,0
DA:5704,0
DA:5706,0
DA:5708,0
DA:5714,0
DA:5718,0
DA:5719,0
DA:5732,0
DA:5733,0
DA:5734,0
DA:5735,0
DA:5736,0
DA:5737,0
DA:5738,0
DA:5739,0
DA:5741,0
DA:5744,0
DA:5746,0
DA:5749,0
DA:5750,0
DA:5752,0
DA:5755,0
DA:5757,0
DA:5760,0
DA:5763,0
DA:5764,0
DA:5765,0
DA:5766,0
DA:5767,0
DA:5768,0
DA:5769,0
DA:5770,0
DA:5771,0
DA:5772,0
DA:5774,0
DA:5776,0
DA:5778,0
DA:5780,0
DA:5786,0
DA:5788,0
DA:5789,0
DA:5790,0
DA:5791,0
DA:5793,0
DA:5794,0
DA:5795,0
DA:5796,0
DA:5797,0
DA:5798,0
DA:5801,0
DA:5802,0
DA:5803,0
DA:5804,0
DA:5805,0
DA:5807,0
DA:5808,0
DA:5809,0
DA:5810,0
DA:5812,0
DA:5813,0
DA:5814,0
DA:5815,0
DA:5817,0
DA:5818,0
DA:5819,0
DA:5823,0
DA:5824,0
DA:5825,0
DA:5826,0
DA:5827,0
DA:5828,0
DA:5829,0
DA:5830,0
DA:5831,0
DA:5834,0
DA:5835,0
DA:5836,0
DA:5837,0
DA:5842,0
DA:5843,0
DA:5846,0
DA:5847,0
DA:5848,0
DA:5849,0
DA:5850,0
DA:5851,0
DA:5852,0
DA:5853,0
DA:5854,0
DA:5855,0
DA:5856,0
DA:5857,0
DA:5858,0
DA:5859,0
DA:5860,0
DA:5863,0
DA:5864,0
DA:5865,0
DA:5866,0
DA:5867,0
DA:5868,0
DA:5869,0
DA:5870,0
DA:5871,0
DA:5872,0
DA:5877,0
DA:5878,0
DA:5879,0
DA:5880,0
DA:5881,0
DA:5882,0
DA:5883,0
DA:5884,0
DA:5885,0
DA:5886,0
DA:5887,0
DA:5888,0
DA:5889,0
DA:5890,0
DA:5891,0
DA:5892,0
DA:5893,0
DA:5896,0
DA:5897,0
DA:5898,0
DA:5899,0
DA:5900,0
DA:5901,0
DA:5903,0
DA:5906,0
DA:5907,0
DA:5908,0
DA:5909,0
DA:5910,0
DA:5911,0
DA:5912,0
DA:5913,0
DA:5914,0
DA:5915,0
DA:5916,0
DA:5919,0
DA:5920,0
DA:5924,0
DA:5925,0
DA:5929,0
DA:5930,0
DA:5931,0
DA:5932,0
DA:5936,0
DA:5937,0
DA:5940,0
DA:5941,0
DA:5946,0
DA:5947,0
DA:5948,0
DA:5949,0
DA:5950,0
DA:5951,0
DA:5952,0
DA:5953,0
DA:5957,0
DA:5958,0
DA:5959,0
DA:5961,0
DA:5962,0
DA:5963,0
DA:5964,0
DA:5965,0
DA:5966,0
DA:5967,0
DA:5968,0
DA:5975,0
DA:5978,0
DA:5979,0
DA:5980,0
DA:5982,0
DA:5983,0
DA:5984,0
DA:5985,0
DA:5986,0
DA:5987,0
DA:5988,0
DA:5989,0
DA:5990,0
DA:5991,0
DA:5992,0
DA:5993,0
DA:5994,0
DA:5995,0
DA:5996,0
DA:5997,0
DA:5998,0
DA:6001,0
DA:6002,0
DA:6003,0
DA:6005,0
DA:6006,0
DA:6007,0
DA:6008,0
DA:6011,0
DA:6015,0
DA:6016,0
DA:6017,0
DA:6018,0
DA:6019,0
DA:6020,0
DA:6022,0
DA:6023,0
DA:6024,0
DA:6025,0
DA:6026,0
DA:6028,0
DA:6029,0
DA:6030,0
DA:6031,0
DA:6032,0
DA:6034,0
DA:6051,0
DA:6053,0
DA:6054,0
DA:6055,0
DA:6056,0
DA:6057,0
DA:6058,0
DA:6059,0
DA:6062,0
DA:6063,0
DA:6064,0
DA:6067,0
DA:6068,0
DA:6070,0
DA:6071,0
DA:6072,0
DA:6073,0
DA:6074,0
DA:6075,0
DA:6076,0
DA:6077,0
DA:6078,0
DA:6079,0
DA:6080,0
DA:6081,0
DA:6082,0
DA:6083,0
DA:6085,0
DA:6093,0
DA:6100,0
DA:6105,0
DA:6106,0
DA:6107,0
DA:6108,0
DA:6110,0
DA:6111,0
DA:6112,0
DA:6113,0
DA:6114,0
DA:6115,0
DA:6116,0
DA:6117,0
DA:6118,0
DA:6119,0
DA:6120,0
DA:6121,0
DA:6122,0
DA:6123,0
DA:6124,0
DA:6125,0
DA:6129,0
DA:6130,0
DA:6131,0
DA:6132,0
DA:6133,0
DA:6137,0
DA:6138,0
DA:6143,0
DA:6144,0
DA:6146,0
DA:6150,0
DA:6151,0
DA:6152,0
DA:6153,0
DA:6154,0
DA:6155,0
DA:6156,0
DA:6160,0
DA:6161,0
DA:6162,0
DA:6163,0
DA:6164,0
DA:6165,0
DA:6166,0
DA:6167,0
DA:6168,0
DA:6170,0
DA:6174,0
DA:6175,0
DA:6179,0
DA:6180,0
DA:6207,0
DA:6208,0
DA:6209,0
DA:6210,0
DA:6211,0
DA:6212,0
DA:6213,0
DA:6214,0
DA:6215,0
DA:6216,0
DA:6217,0
DA:6218,0
DA:6219,0
DA:6220,0
DA:6221,0
DA:6222,0
DA:6223,0
DA:6224,0
DA:6225,0
DA:6226,0
DA:6227,0
DA:6228,0
DA:6229,0
DA:6230,0
DA:6231,0
DA:6232,0
DA:6233,0
DA:6234,0
DA:6236,0
DA:6237,0
DA:6238,0
DA:6239,0
DA:6240,0
DA:6241,0
DA:6242,0
DA:6243,0
DA:6244,0
DA:6245,0
DA:6247,0
DA:6249,0
DA:6251,0
DA:6252,0
DA:6253,0
DA:6254,0
DA:6255,0
DA:6256,0
DA:6258,0
DA:6259,0
DA:6260,0
DA:6261,0
DA:6262,0
DA:6263,0
DA:6264,0
DA:6265,0
DA:6267,0
DA:6268,0
DA:6269,0
DA:6270,0
DA:6271,0
DA:6272,0
DA:6273,0
DA:6274,0
DA:6275,0
DA:6276,0
DA:6277,0
DA:6278,0
DA:6279,0
DA:6281,0
DA:6282,0
DA:6283,0
DA:6284,0
DA:6285,0
DA:6286,0
DA:6287,0
DA:6288,0
DA:6289,0
DA:6290,0
DA:6291,0
DA:6292,0
DA:6293,0
DA:6294,0
DA:6295,0
DA:6296,0
DA:6297,0
DA:6298,0
DA:6299,0
DA:6300,0
DA:6301,0
DA:6302,0
DA:6303,0
DA:6306,0
DA:6308,0
DA:6309,0
DA:6310,0
DA:6311,0
DA:6313,0
DA:6314,0
DA:6315,0
DA:6316,0
DA:6317,0
DA:6318,0
DA:6320,0
DA:6321,0
DA:6322,0
DA:6323,0
DA:6326,0
DA:6327,0
DA:6328,0
DA:6330,0
DA:6332,0
DA:6333,0
DA:6334,0
DA:6335,0
DA:6336,0
DA:6337,0
DA:6338,0
DA:6339,0
DA:6340,0
DA:6342,0
DA:6343,0
DA:6344,0
DA:6345,0
DA:6346,0
DA:6347,0
DA:6348,0
DA:6349,0
DA:6350,0
DA:6351,0
DA:6352,0
DA:6353,0
DA:6354,0
DA:6355,0
DA:6356,0
DA:6357,0
DA:6360,0
DA:6361,0
DA:6362,0
DA:6363,0
DA:6364,0
DA:6365,0
DA:6366,0
DA:6368,0
DA:6370,0
DA:6372,0
DA:6373,0
DA:6375,0
DA:6376,0
DA:6378,0
DA:6380,0
DA:6381,0
DA:6382,0
DA:6383,0
DA:6384,0
DA:6387,0
DA:6388,0
DA:6390,0
DA:6391,0
DA:6392,0
DA:6393,0
DA:6394,0
DA:6395,0
DA:6396,0
DA:6397,0
DA:6398,0
DA:6399,0
DA:6400,0
DA:6401,0
DA:6402,0
DA:6403,0
DA:6404,0
DA:6406,0
DA:6407,0
DA:6408,0
DA:6409,0
DA:6411,0
DA:6413,0
DA:6414,0
DA:6415,0
DA:6416,0
DA:6417,0
DA:6418,0
DA:6419,0
DA:6420,0
DA:6421,0
DA:6422,0
DA:6423,0
DA:6424,0
DA:6425,0
DA:6426,0
DA:6427,0
DA:6428,0
DA:6431,0
DA:6432,0
DA:6433,0
DA:6434,0
DA:6437,0
DA:6438,0
DA:6440,0
DA:6441,0
DA:6442,0
DA:6443,0
DA:6444,0
DA:6445,0
DA:6446,0
DA:6448,0
DA:6450,0
DA:6451,0
DA:6452,0
DA:6453,0
DA:6454,0
DA:6455,0
DA:6457,0
DA:6458,0
DA:6459,0
DA:6460,0
DA:6461,0
DA:6462,0
DA:6463,0
DA:6464,0
DA:6465,0
DA:6466,0
DA:6467,0
DA:6468,0
DA:6469,0
DA:6470,0
DA:6471,0
DA:6472,0
DA:6473,0
DA:6474,0
DA:6475,0
DA:6476,0
DA:6477,0
DA:6478,0
DA:6479,0
DA:6480,0
DA:6481,0
DA:6482,0
DA:6483,0
DA:6484,0
DA:6485,0
DA:6486,0
DA:6487,0
DA:6490,0
DA:6491,0
DA:6492,0
DA:6495,0
DA:6496,0
DA:6498,0
DA:6499,0
DA:6500,0
DA:6501,0
DA:6502,0
DA:6503,0
DA:6504,0
DA:6505,0
DA:6506,0
DA:6507,0
DA:6508,0
DA:6509,0
DA:6511,0
DA:6513,0
DA:6514,0
DA:6515,0
DA:6516,0
DA:6517,0
DA:6518,0
DA:6519,0
DA:6520,0
DA:6521,0
DA:6522,0
DA:6523,0
DA:6524,0
DA:6525,0
DA:6528,0
DA:6529,0
DA:6530,0
DA:6531,0
DA:6534,0
DA:6535,0
DA:6537,0
DA:6538,0
DA:6539,0
DA:6540,0
DA:6541,0
DA:6542,0
DA:6543,0
DA:6544,0
DA:6545,0
DA:6546,0
DA:6547,0
DA:6548,0
DA:6549,0
DA:6550,0
DA:6551,0
DA:6552,0
DA:6553,0
DA:6554,0
DA:6555,0
DA:6556,0
DA:6557,0
DA:6558,0
DA:6560,0
DA:6562,0
DA:6563,0
DA:6564,0
DA:6565,0
DA:6566,0
DA:6569,0
DA:6570,0
DA:6571,0
DA:6572,0
DA:6573,0
DA:6576,0
DA:6577,0
DA:6579,0
DA:6580,0
DA:6581,0
DA:6582,0
DA:6583,0
DA:6584,0
DA:6585,0
DA:6586,0
DA:6588,0
DA:6589,0
DA:6590,0
DA:6591,0
DA:6592,0
DA:6593,0
DA:6594,0
DA:6595,0
DA:6596,0
DA:6598,0
DA:6599,0
DA:6600,0
DA:6601,0
DA:6602,0
DA:6603,0
DA:6604,0
DA:6606,0
DA:6608,0
DA:6610,0
DA:6611,0
DA:6612,0
DA:6613,0
DA:6614,0
DA:6615,0
DA:6617,0
DA:6618,0
DA:6619,0
DA:6620,0
DA:6621,0
DA:6624,0
DA:6625,0
DA:6626,0
DA:6627,0
DA:6628,0
DA:6631,0
DA:6632,0
DA:6634,0
DA:6635,0
DA:6636,0
DA:6637,0
DA:6638,0
DA:6639,0
DA:6640,0
DA:6641,0
DA:6642,0
DA:6643,0
DA:6644,0
DA:6645,0
DA:6646,0
DA:6647,0
DA:6648,0
DA:6649,0
DA:6650,0
DA:6651,0
DA:6652,0
DA:6653,0
DA:6654,0
DA:6655,0
DA:6656,0
DA:6657,0
DA:6658,0
DA:6659,0
DA:6661,0
DA:6663,0
DA:6664,0
DA:6665,0
DA:6666,0
DA:6667,0
DA:6670,0
DA:6671,0
DA:6672,0
DA:6673,0
DA:6676,0
DA:6677,0
DA:6679,0
DA:6680,0
DA:6681,0
DA:6682,0
DA:6683,0
DA:6684,0
DA:6685,0
DA:6686,0
DA:6687,0
DA:6688,0
DA:6689,0
DA:6690,0
DA:6691,0
DA:6692,0
DA:6693,0
DA:6695,0
DA:6697,0
DA:6698,0
DA:6699,0
DA:6700,0
DA:6701,0
DA:6704,0
DA:6705,0
DA:6706,0
DA:6707,0
DA:6708,0
DA:6709,0
DA:6712,0
DA:6713,0
DA:6715,0
DA:6716,0
DA:6717,0
DA:6718,0
DA:6719,0
DA:6720,0
DA:6721,0
DA:6722,0
DA:6723,0
DA:6724,0
DA:6725,0
DA:6726,0
DA:6727,0
DA:6728,0
DA:6729,0
DA:6730,0
DA:6732,0
DA:6733,0
DA:6734,0
DA:6735,0
DA:6736,0
DA:6737,0
DA:6738,0
DA:6739,0
DA:6740,0
DA:6741,0
DA:6742,0
DA:6743,0
DA:6744,0
DA:6745,0
DA:6746,0
DA:6747,0
DA:6748,0
DA:6749,0
DA:6750,0
DA:6751,0
DA:6752,0
DA:6753,0
DA:6754,0
DA:6755,0
DA:6756,0
DA:6757,0
DA:6758,0
DA:6759,0
DA:6760,0
DA:6761,0
DA:6762,0
DA:6763,0
DA:6764,0
DA:6765,0
DA:6766,0
DA:6767,0
DA:6768,0
DA:6769,0
DA:6770,0
DA:6771,0
DA:6772,0
DA:6773,0
DA:6774,0
DA:6775,0
DA:6777,0
DA:6779,0
DA:6780,0
DA:6781,0
DA:6782,0
DA:6785,0
DA:6786,0
DA:6787,0
DA:6788,0
DA:6789,0
DA:6792,0
DA:6793,0
DA:6795,0
DA:6796,0
DA:6797,0
DA:6798,0
DA:6799,0
DA:6800,0
DA:6801,0
DA:6802,0
DA:6804,0
DA:6805,0
DA:6806,0
DA:6807,0
DA:6808,0
DA:6809,0
DA:6810,0
DA:6811,0
DA:6812,0
DA:6813,0
DA:6814,0
DA:6815,0
DA:6816,0
DA:6817,0
DA:6818,0
DA:6819,0
DA:6820,0
DA:6821,0
DA:6822,0
DA:6823,0
DA:6824,0
DA:6825,0
DA:6826,0
DA:6827,0
DA:6828,0
DA:6829,0
DA:6830,0
DA:6832,0
DA:6834,0
DA:6836,0
DA:6837,0
DA:6838,0
DA:6839,0
DA:6840,0
DA:6843,0
DA:6844,0
DA:6845,0
DA:6848,0
DA:6849,0
DA:6851,0
DA:6852,0
DA:6853,0
DA:6854,0
DA:6855,0
DA:6856,0
DA:6857,0
DA:6858,0
DA:6860,0
DA:6861,0
DA:6862,0
DA:6863,0
DA:6864,0
DA:6865,0
DA:6866,0
DA:6867,0
DA:6868,0
DA:6869,0
DA:6870,0
DA:6871,0
DA:6872,0
DA:6873,0
DA:6874,0
DA:6876,0
DA:6878,0
DA:6879,0
DA:6880,0
DA:6881,0
DA:6884,0
DA:6885,0
DA:6886,0
DA:6889,0
DA:6890,0
DA:6892,0
DA:6893,0
DA:6894,0
DA:6895,0
DA:6896,0
DA:6898,0
DA:6899,0
DA:6900,0
DA:6901,0
DA:6902,0
DA:6903,0
DA:6904,0
DA:6905,0
DA:6906,0
DA:6907,0
DA:6908,0
DA:6909,0
DA:6910,0
DA:6912,0
DA:6914,0
DA:6915,0
DA:6916,0
DA:6917,0
DA:6919,0
DA:6920,0
DA:6921,0
DA:6922,0
DA:6923,0
DA:6924,0
DA:6925,0
DA:6926,0
DA:6927,0
DA:6928,0
DA:6929,0
DA:6930,0
DA:6931,0
DA:6932,0
DA:6933,0
DA:6934,0
DA:6935,0
DA:6936,0
DA:6939,0
DA:6940,0
DA:6941,0
DA:6942,0
DA:6943,0
DA:6946,0
DA:6947,0
DA:6949,0
DA:6950,0
DA:6951,0
DA:6952,0
DA:6953,0
DA:6954,0
DA:6955,0
DA:6956,0
DA:6957,0
DA:6958,0
DA:6959,0
DA:6960,0
DA:6961,0
DA:6962,0
DA:6963,0
DA:6964,0
DA:6965,0
DA:6966,0
DA:6967,0
DA:6968,0
DA:6969,0
DA:6971,0
DA:6973,0
DA:6974,0
DA:6975,0
DA:6976,0
DA:6977,0
DA:6980,0
DA:6981,0
DA:6982,0
DA:6983,0
DA:6984,0
DA:6985,0
DA:6986,0
DA:6993,0
DA:6994,0
DA:6995,0
DA:6996,0
DA:6998,0
DA:6999,0
DA:7000,0
DA:7001,0
DA:7002,0
DA:7003,0
DA:7008,0
DA:7009,0
DA:7011,0
DA:7012,0
DA:7014,0
DA:7016,0
DA:7017,0
DA:7019,0
DA:7021,0
DA:7022,0
DA:7024,0
DA:7025,0
DA:7026,0
DA:7027,0
DA:7028,0
DA:7029,0
DA:7030,0
DA:7031,0
DA:7032,0
DA:7034,0
DA:7035,0
DA:7036,0
DA:7037,0
DA:7038,0
DA:7039,0
DA:7040,0
DA:7042,0
DA:7043,0
DA:7044,0
DA:7045,0
DA:7049,0
DA:7052,0
DA:7053,0
DA:7054,0
DA:7055,0
DA:7056,0
DA:7057,0
DA:7062,0
DA:7065,0
DA:7066,0
DA:7067,0
DA:7068,0
DA:7069,0
DA:7070,0
DA:7071,0
DA:7072,0
DA:7073,0
DA:7078,0
DA:7079,0
DA:7085,0
DA:7086,0
DA:7090,0
DA:7091,0
DA:7092,0
DA:7093,0
DA:7094,0
DA:7098,0
DA:7101,0
DA:7102,0
DA:7103,0
DA:7104,0
DA:7108,0
DA:7111,0
DA:7112,0
DA:7113,0
DA:7114,0
DA:7118,0
DA:7121,0
DA:7122,0
DA:7123,0
DA:7124,0
DA:7125,0
DA:7126,0
DA:7130,0
DA:7138,0
DA:7139,0
DA:7140,0
DA:7141,0
DA:7142,0
DA:7143,0
DA:7144,0
DA:7145,0
DA:7146,0
DA:7147,0
DA:7149,0
DA:7150,0
DA:7151,0
DA:7152,0
DA:7156,0
DA:7157,0
DA:7160,0
DA:7161,0
DA:7162,0
DA:7168,0
DA:7169,0
DA:7174,0
DA:7175,0
DA:7181,0
DA:7182,0
DA:7190,0
DA:7191,0
DA:7192,0
DA:7198,0
DA:7199,0
DA:7200,0
DA:7201,0
DA:7202,0
DA:7203,0
DA:7204,0
DA:7209,0
DA:7210,0
DA:7215,0
DA:7216,0
DA:7217,0
DA:7221,0
DA:7222,0
DA:7223,0
DA:7224,0
DA:7225,0
DA:7227,0
DA:7233,0
DA:7234,0
DA:7235,0
DA:7236,0
DA:7237,0
DA:7238,0
DA:7239,0
DA:7240,0
DA:7241,0
DA:7243,0
DA:7244,0
DA:7245,0
DA:7246,0
DA:7247,0
DA:7248,0
DA:7249,0
DA:7250,0
DA:7255,0
DA:7258,0
DA:7259,0
DA:7260,0
DA:7261,0
DA:7267,0
DA:7268,0
DA:7269,0
DA:7270,0
DA:7272,0
DA:7273,0
DA:7274,0
DA:7275,0
DA:7276,0
DA:7277,0
DA:7278,0
DA:7279,0
DA:7280,0
DA:7281,0
DA:7282,0
DA:7283,0
DA:7284,0
DA:7285,0
DA:7286,0
DA:7287,0
DA:7288,0
DA:7289,0
DA:7290,0
DA:7291,0
DA:7297,0
DA:7300,0
DA:7302,0
DA:7303,0
DA:7304,0
DA:7305,0
DA:7306,0
DA:7307,0
DA:7309,0
DA:7310,0
DA:7312,0
DA:7313,0
DA:7314,0
DA:7316,0
DA:7317,0
DA:7319,0
DA:7320,0
DA:7321,0
DA:7322,0
DA:7323,0
DA:7326,0
DA:7327,0
DA:7328,0
DA:7329,0
DA:7330,0
DA:7332,0
DA:7333,0
DA:7334,0
DA:7335,0
DA:7336,0
DA:7337,0
DA:7338,0
DA:7339,0
DA:7343,0
DA:7344,0
DA:7345,0
DA:7346,0
DA:7347,0
DA:7348,0
DA:7350,0
DA:7351,0
DA:7352,0
DA:7353,0
DA:7354,0
DA:7355,0
DA:7371,0
DA:7372,0
DA:7373,0
DA:7374,0
DA:7375,0
DA:7376,0
DA:7377,0
DA:7379,0
DA:7381,0
DA:7383,0
DA:7384,0
DA:7385,0
DA:7386,0
DA:7389,0
DA:7390,0
DA:7391,0
DA:7392,0
DA:7394,0
DA:7396,0
DA:7397,0
DA:7399,0
DA:7402,0
DA:7403,0
DA:7404,0
DA:7406,0
DA:7407,0
DA:7408,0
DA:7409,0
DA:7412,0
DA:7416,0
DA:7417,0
DA:7419,0
DA:7420,0
DA:7421,0
DA:7422,0
DA:7423,0
DA:7424,0
DA:7430,0
DA:7431,0
DA:7432,0
DA:7433,0
DA:7437,0
DA:7438,0
DA:7439,0
DA:7442,0
DA:7443,0
DA:7444,0
DA:7445,0
DA:7446,0
DA:7447,0
DA:7449,0
DA:7452,0
DA:7453,0
DA:7454,0
DA:7455,0
DA:7456,0
DA:7457,0
DA:7458,0
DA:7470,0
DA:7471,0
DA:7472,0
DA:7473,0
DA:7474,0
DA:7475,0
DA:7476,0
DA:7477,0
DA:7478,0
DA:7479,0
DA:7480,0
DA:7481,0
DA:7482,0
DA:7483,0
DA:7484,0
DA:7485,0
DA:7486,0
DA:7487,0
DA:7488,0
DA:7489,0
DA:7491,0
DA:7492,0
DA:7493,0
DA:7496,0
DA:7503,0
DA:7504,0
DA:7505,0
DA:7506,0
DA:7507,0
DA:7508,0
DA:7509,0
DA:7510,0
DA:7511,0
DA:7512,0
DA:7513,0
DA:7514,0
DA:7515,0
DA:7516,0
DA:7517,0
DA:7518,0
DA:7520,0
DA:7521,0
DA:7522,0
DA:7523,0
DA:7524,0
DA:7525,0
DA:7526,0
DA:7527,0
DA:7528,0
DA:7530,0
DA:7531,0
DA:7532,0
DA:7534,0
DA:7535,0
DA:7536,0
DA:7537,0
DA:7538,0
DA:7539,0
DA:7540,0
DA:7541,0
DA:7542,0
DA:7544,0
DA:7545,0
DA:7546,0
DA:7547,0
DA:7549,0
DA:7552,0
DA:7553,0
DA:7554,0
DA:7555,0
DA:7556,0
DA:7557,0
DA:7558,0
DA:7559,0
DA:7560,0
DA:7561,0
DA:7562,0
DA:7563,0
DA:7564,0
DA:7566,0
DA:7567,0
DA:7568,0
DA:7569,0
DA:7572,0
DA:7573,0
DA:7574,0
DA:7575,0
DA:7576,0
DA:7577,0
DA:7578,0
DA:7579,0
DA:7580,0
DA:7581,0
DA:7583,0
DA:7585,0
DA:7586,0
DA:7587,0
DA:7588,0
DA:7589,0
DA:7590,0
DA:7591,0
DA:7592,0
DA:7593,0
DA:7594,0
DA:7595,0
DA:7596,0
DA:7597,0
DA:7598,0
DA:7599,0
DA:7600,0
DA:7601,0
DA:7602,0
DA:7603,0
DA:7604,0
DA:7607,0
DA:7608,0
DA:7609,0
DA:7610,0
DA:7611,0
DA:7612,0
DA:7613,0
DA:7614,0
DA:7615,0
DA:7616,0
DA:7618,0
DA:7619,0
DA:7620,0
DA:7621,0
DA:7622,0
DA:7623,0
DA:7624,0
DA:7625,0
DA:7626,0
DA:7627,0
DA:7628,0
DA:7665,0
DA:7666,0
DA:7667,0
DA:7668,0
DA:7669,0
DA:7670,0
DA:7671,0
DA:7672,0
DA:7673,0
DA:7674,0
DA:7675,0
DA:7676,0
DA:7677,0
DA:7678,0
DA:7679,0
DA:7680,0
DA:7684,0
DA:7685,0
DA:7686,0
DA:7687,0
DA:7688,0
DA:7689,0
DA:7690,0
DA:7691,0
DA:7692,0
DA:7694,0
DA:7695,0
DA:7696,0
DA:7697,0
DA:7698,0
DA:7699,0
DA:7703,0
DA:7704,0
DA:7705,0
DA:7706,0
DA:7707,0
DA:7708,0
DA:7709,0
DA:7711,0
DA:7712,0
DA:7713,0
DA:7714,0
DA:7715,0
DA:7716,0
DA:7717,0
DA:7718,0
DA:7719,0
DA:7720,0
DA:7721,0
DA:7722,0
DA:7723,0
DA:7724,0
DA:7725,0
DA:7728,0
DA:7729,0
DA:7731,0
DA:7732,0
DA:7733,0
DA:7734,0
DA:7735,0
DA:7736,0
DA:7737,0
DA:7738,0
DA:7739,0
DA:7741,0
DA:7743,0
DA:7744,0
DA:7745,0
DA:7746,0
DA:7747,0
DA:7748,0
DA:7749,0
DA:7750,0
DA:7751,0
DA:7752,0
DA:7753,0
DA:7754,0
DA:7758,0
DA:7759,0
DA:7760,0
DA:7761,0
DA:7762,0
DA:7763,0
DA:7764,0
DA:7765,0
DA:7766,0
DA:7767,0
DA:7768,0
DA:7769,0
DA:7770,0
DA:7771,0
DA:7772,0
DA:7773,0
DA:7774,0
DA:7775,0
DA:7776,0
DA:7784,0
DA:7786,0
DA:7787,0
DA:7788,0
DA:7789,0
DA:7790,0
DA:7791,0
DA:7792,0
DA:7793,0
DA:7794,0
DA:7795,0
DA:7796,0
DA:7799,0
DA:7800,0
DA:7801,0
DA:7802,0
DA:7803,0
DA:7804,0
DA:7805,0
DA:7806,0
DA:7807,0
DA:7808,0
DA:7809,0
DA:7810,0
DA:7811,0
DA:7812,0
DA:7814,0
DA:7819,0
DA:7822,0
DA:7824,0
DA:7825,0
DA:7826,0
DA:7827,0
DA:7828,0
DA:7829,0
DA:7830,0
DA:7831,0
DA:7832,0
DA:7833,0
DA:7834,0
DA:7842,0
DA:7843,0
DA:7844,0
DA:7845,0
DA:7846,0
DA:7850,0
DA:7851,0
DA:7852,0
DA:7853,0
DA:7854,0
DA:7855,0
DA:7856,0
DA:7857,0
DA:7858,0
DA:7863,0
DA:7864,0
DA:7865,0
DA:7866,0
DA:7867,0
DA:7868,0
DA:7869,0
DA:7872,0
DA:7873,0
DA:7874,0
DA:7875,0
DA:7876,0
DA:7877,0
DA:7878,0
DA:7879,0
DA:7880,0
DA:7881,0
DA:7882,0
DA:7883,0
DA:7884,0
DA:7885,0
DA:7886,0
DA:7887,0
DA:7888,0
DA:7889,0
DA:7892,0
DA:7894,0
DA:7895,0
DA:7896,0
DA:7897,0
DA:7898,0
DA:7899,0
DA:7900,0
DA:7902,0
DA:7903,0
DA:7904,0
DA:7905,0
DA:7906,0
DA:7909,0
DA:7910,0
DA:7911,0
DA:7915,0
DA:7916,0
DA:7917,0
DA:7918,0
DA:7919,0
DA:7920,0
DA:7921,0
DA:7922,0
DA:7924,0
DA:7925,0
DA:7926,0
DA:7927,0
DA:7928,0
DA:7930,0
DA:7931,0
DA:7932,0
DA:7933,0
DA:7934,0
DA:7935,0
DA:7936,0
DA:7937,0
DA:7938,0
DA:7939,0
DA:7940,0
DA:7941,0
DA:7942,0
DA:7943,0
DA:7944,0
DA:7945,0
DA:7946,0
DA:7947,0
DA:7948,0
DA:7950,0
DA:7954,0
DA:7955,0
DA:7957,0
DA:7958,0
DA:7959,0
DA:7960,0
DA:7961,0
DA:7962,0
DA:7964,0
DA:7965,0
DA:7966,0
DA:7967,0
DA:7969,0
DA:7972,0
DA:7974,0
DA:7976,0
DA:7977,0
DA:7978,0
DA:7980,0
DA:7982,0
DA:7984,0
DA:7991,0
DA:7993,0
DA:7994,0
DA:7995,0
DA:7996,0
DA:7997,0
DA:7998,0
DA:7999,0
DA:8003,0
DA:8006,0
DA:8011,0
DA:8012,0
DA:8013,0
DA:8014,0
DA:8015,0
DA:8016,0
DA:8017,0
DA:8018,0
DA:8019,0
DA:8025,0
DA:8026,0
DA:8027,0
DA:8028,0
DA:8031,0
DA:8032,0
DA:8036,0
DA:8037,0
DA:8045,0
DA:8047,0
DA:8048,0
DA:8049,0
DA:8050,0
DA:8052,0
DA:8053,0
DA:8054,0
DA:8055,0
DA:8056,0
DA:8057,0
DA:8060,0
DA:8061,0
DA:8062,0
DA:8063,0
DA:8064,0
DA:8065,0
DA:8067,0
DA:8068,0
DA:8069,0
DA:8070,0
DA:8071,0
DA:8072,0
DA:8073,0
DA:8074,0
DA:8075,0
DA:8076,0
DA:8077,0
DA:8078,0
DA:8079,0
DA:8082,0
DA:8083,0
DA:8084,0
DA:8085,0
DA:8086,0
DA:8090,0
DA:8091,0
DA:8092,0
DA:8093,0
DA:8094,0
DA:8095,0
DA:8096,0
DA:8099,0
DA:8100,0
DA:8101,0
DA:8102,0
DA:8103,0
DA:8104,0
DA:8105,0
DA:8106,0
DA:8107,0
DA:8109,0
DA:8110,0
DA:8111,0
DA:8112,0
DA:8113,0
DA:8114,0
DA:8115,0
DA:8116,0
DA:8119,0
DA:8120,0
DA:8121,0
DA:8122,0
DA:8123,0
DA:8124,0
DA:8125,0
DA:8126,0
DA:8127,0
DA:8128,0
DA:8129,0
DA:8130,0
DA:8131,0
DA:8133,0
DA:8134,0
DA:8135,0
DA:8136,0
DA:8137,0
DA:8143,0
DA:8144,0
DA:8145,0
DA:8146,0
DA:8147,0
DA:8150,0
DA:8151,0
DA:8152,0
DA:8153,0
DA:8154,0
DA:8156,0
DA:8158,0
DA:8159,0
DA:8160,0
DA:8161,0
DA:8162,0
DA:8163,0
DA:8164,0
DA:8165,0
DA:8166,0
DA:8167,0
DA:8168,0
DA:8169,0
DA:8172,0
DA:8173,0
DA:8174,0
DA:8175,0
DA:8177,0
DA:8178,0
DA:8179,0
DA:8180,0
DA:8181,0
DA:8182,0
DA:8183,0
DA:8188,0
DA:8189,0
DA:8190,0
DA:8191,0
DA:8192,0
DA:8193,0
DA:8195,0
DA:8196,0
DA:8197,0
DA:8198,0
DA:8199,0
DA:8200,0
DA:8201,0
DA:8202,0
DA:8203,0
DA:8210,0
DA:8211,0
DA:8212,0
DA:8213,0
DA:8214,0
DA:8215,0
DA:8216,0
DA:8217,0
DA:8218,0
DA:8222,0
DA:8223,0
DA:8225,0
DA:8226,0
DA:8227,0
DA:8228,0
DA:8229,0
DA:8230,0
DA:8235,0
DA:8236,0
DA:8237,0
DA:8238,0
DA:8239,0
DA:8240,0
DA:8242,0
DA:8243,0
DA:8244,0
DA:8245,0
DA:8246,0
DA:8247,0
DA:8248,0
DA:8249,0
DA:8250,0
DA:8251,0
DA:8252,0
DA:8254,0
DA:8255,0
DA:8257,0
DA:8258,0
DA:8259,0
DA:8260,0
DA:8261,0
DA:8262,0
DA:8265,0
DA:8266,0
DA:8267,0
DA:8269,0
DA:8271,0
DA:8272,0
DA:8273,0
DA:8274,0
DA:8275,0
DA:8276,0
DA:8277,0
DA:8289,0
DA:8290,0
DA:8291,0
DA:8293,0
DA:8295,0
DA:8296,0
DA:8297,0
DA:8298,0
DA:8299,0
DA:8300,0
DA:8301,0
DA:8302,0
DA:8303,0
DA:8304,0
DA:8305,0
DA:8306,0
DA:8308,0
DA:8309,0
DA:8310,0
DA:8311,0
DA:8312,0
DA:8314,0
DA:8315,0
DA:8316,0
DA:8317,0
DA:8318,0
DA:8319,0
DA:8320,0
DA:8321,0
DA:8322,0
DA:8323,0
DA:8324,0
DA:8325,0
DA:8326,0
DA:8327,0
DA:8328,0
DA:8342,0
DA:8343,0
DA:8344,0
DA:8345,0
DA:8346,0
DA:8347,0
DA:8348,0
DA:8349,0
DA:8350,0
DA:8351,0
DA:8352,0
DA:8353,0
DA:8354,0
DA:8356,0
DA:8357,0
DA:8368,0
DA:8369,0
DA:8370,0
DA:8371,0
DA:8372,0
DA:8373,0
DA:8374,0
DA:8375,0
DA:8376,0
DA:8377,0
DA:8378,0
DA:8379,0
DA:8380,0
DA:8381,0
DA:8382,0
DA:8383,0
DA:8384,0
DA:8386,0
DA:8387,0
DA:8388,0
DA:8389,0
DA:8390,0
DA:8391,0
DA:8392,0
DA:8393,0
DA:8394,0
DA:8396,0
DA:8397,0
DA:8398,0
DA:8400,0
DA:8401,0
DA:8402,0
DA:8403,0
DA:8404,0
DA:8405,0
DA:8406,0
DA:8407,0
DA:8408,0
DA:8410,0
DA:8411,0
DA:8412,0
DA:8413,0
DA:8415,0
DA:8418,0
DA:8419,0
DA:8420,0
DA:8421,0
DA:8422,0
DA:8423,0
DA:8424,0
DA:8425,0
DA:8426,0
DA:8427,0
DA:8428,0
DA:8431,0
DA:8432,0
DA:8433,0
DA:8434,0
DA:8436,0
DA:8437,0
DA:8438,0
DA:8439,0
DA:8440,0
DA:8443,0
DA:8444,0
DA:8445,0
DA:8446,0
DA:8447,0
DA:8448,0
DA:8449,0
DA:8450,0
DA:8451,0
DA:8452,0
DA:8453,0
DA:8454,0
DA:8457,0
DA:8458,0
DA:8459,0
DA:8461,0
DA:8462,0
DA:8463,0
DA:8464,0
DA:8465,0
DA:8466,0
DA:8467,0
DA:8469,0
DA:8470,0
DA:8471,0
DA:8472,0
DA:8473,0
DA:8474,0
DA:8475,0
DA:8476,0
DA:8478,0
DA:8479,0
DA:8480,0
DA:8481,0
DA:8482,0
DA:8483,0
DA:8484,0
DA:8485,0
DA:8486,0
DA:8487,0
DA:8488,0
DA:8489,0
DA:8490,0
DA:8491,0
DA:8493,0
DA:8494,0
DA:8495,0
DA:8496,0
DA:8497,0
DA:8498,0
DA:8499,0
DA:8500,0
DA:8501,0
DA:8502,0
DA:8503,0
DA:8506,0
DA:8507,0
DA:8508,0
DA:8509,0
DA:8511,0
DA:8512,0
DA:8513,0
DA:8514,0
DA:8515,0
DA:8516,0
DA:8517,0
DA:8518,0
DA:8521,0
DA:8522,0
DA:8523,0
DA:8524,0
DA:8525,0
DA:8526,0
DA:8527,0
DA:8528,0
DA:8529,0
DA:8530,0
DA:8531,0
DA:8532,0
DA:8533,0
DA:8534,0
DA:8535,0
DA:8536,0
DA:8539,0
DA:8540,0
DA:8541,0
DA:8542,0
DA:8543,0
DA:8544,0
DA:8545,0
DA:8546,0
DA:8547,0
DA:8548,0
DA:8549,0
DA:8550,0
DA:8551,0
DA:8554,0
DA:8555,0
DA:8556,0
DA:8557,0
DA:8558,0
DA:8559,0
DA:8560,0
DA:8561,0
DA:8562,0
DA:8563,0
DA:8564,0
DA:8567,0
DA:8568,0
DA:8569,0
DA:8570,0
DA:8572,0
DA:8573,0
DA:8574,0
DA:8575,0
DA:8576,0
DA:8577,0
DA:8578,0
DA:8581,0
DA:8582,0
DA:8583,0
DA:8584,0
DA:8585,0
DA:8586,0
DA:8587,0
DA:8588,0
DA:8589,0
DA:8590,0
DA:8591,0
DA:8592,0
DA:8593,0
DA:8594,0
DA:8595,0
DA:8596,0
DA:8597,0
DA:8598,0
DA:8599,0
DA:8600,0
DA:8601,0
DA:8602,0
DA:8604,0
DA:8605,0
DA:8606,0
DA:8607,0
DA:8608,0
DA:8609,0
DA:8610,0
DA:8611,0
DA:8612,0
DA:8613,0
DA:8616,0
DA:8617,0
DA:8618,0
DA:8619,0
DA:8621,0
DA:8622,0
DA:8623,0
DA:8624,0
DA:8625,0
DA:8626,0
DA:8627,0
DA:8629,0
DA:8630,0
DA:8631,0
DA:8632,0
DA:8633,0
DA:8634,0
DA:8635,0
DA:8636,0
DA:8637,0
DA:8638,0
DA:8639,0
DA:8640,0
DA:8641,0
DA:8642,0
DA:8643,0
DA:8646,0
DA:8647,0
DA:8648,0
DA:8649,0
DA:8650,0
DA:8651,0
DA:8652,0
DA:8653,0
DA:8654,0
DA:8655,0
DA:8656,0
DA:8657,0
DA:8658,0
DA:8659,0
DA:8667,0
DA:8668,0
DA:8669,0
DA:8670,0
DA:8671,0
DA:8672,0
DA:8673,0
DA:8674,0
DA:8675,0
DA:8676,0
DA:8678,0
DA:8679,0
DA:8680,0
DA:8681,0
DA:8682,0
DA:8683,0
DA:8684,0
DA:8685,0
DA:8686,0
DA:8687,0
DA:8688,0
DA:8689,0
DA:8690,0
DA:8691,0
DA:8692,0
DA:8693,0
DA:8694,0
DA:8695,0
DA:8696,0
DA:8697,0
DA:8698,0
DA:8699,0
DA:8700,0
DA:8701,0
DA:8702,0
DA:8703,0
DA:8704,0
DA:8705,0
DA:8712,0
DA:8713,0
DA:8714,0
DA:8715,0
DA:8716,0
DA:8718,0
DA:8719,0
DA:8720,0
DA:8721,0
DA:8722,0
DA:8723,0
DA:8725,0
DA:8726,0
DA:8727,0
DA:8728,0
DA:8730,0
DA:8731,0
DA:8732,0
DA:8733,0
DA:8734,0
DA:8735,0
DA:8736,0
DA:8737,0
DA:8739,0
DA:8740,0
DA:8741,0
DA:8742,0
DA:8743,0
DA:8744,0
DA:8746,0
DA:8747,0
DA:8748,0
DA:8749,0
DA:8750,0
DA:8751,0
DA:8752,0
DA:8753,0
DA:8761,0
DA:8762,0
DA:8763,0
DA:8764,0
DA:8765,0
DA:8766,0
DA:8767,0
DA:8768,0
DA:8769,0
DA:8770,0
DA:8772,0
DA:8773,0
DA:8774,0
DA:8775,0
DA:8776,0
DA:8777,0
DA:8778,0
DA:8780,0
DA:8781,0
DA:8782,0
DA:8783,0
DA:8784,0
DA:8785,0
DA:8786,0
DA:8787,0
DA:8788,0
DA:8789,0
DA:8790,0
DA:8791,0
DA:8792,0
DA:8793,0
DA:8794,0
DA:8795,0
DA:8796,0
DA:8797,0
DA:8798,0
DA:8802,0
DA:8807,0
DA:8809,0
DA:8810,0
DA:8811,0
DA:8812,0
DA:8813,0
DA:8814,0
DA:8815,0
DA:8816,0
DA:8819,0
DA:8820,0
DA:8821,0
DA:8822,0
DA:8823,0
DA:8824,0
DA:8825,0
DA:8826,0
DA:8828,0
DA:8829,0
DA:8830,0
DA:8831,0
DA:8832,0
DA:8833,0
DA:8836,0
DA:8837,0
DA:8838,0
DA:8839,0
DA:8840,0
DA:8841,0
DA:8842,0
DA:8843,0
DA:8844,0
DA:8845,0
DA:8846,0
DA:8847,0
DA:8848,0
DA:8849,0
DA:8850,0
DA:8853,0
DA:8854,0
DA:8855,0
DA:8856,0
DA:8857,0
DA:8858,0
DA:8860,0
DA:8861,0
DA:8862,0
DA:8863,0
DA:8864,0
DA:8865,0
DA:8866,0
DA:8867,0
DA:8868,0
DA:8869,0
DA:8872,0
DA:8873,0
DA:8874,0
DA:8875,0
DA:8876,0
DA:8877,0
DA:8878,0
DA:8880,0
DA:8882,0
DA:8883,0
DA:8884,0
DA:8886,0
DA:8887,0
DA:8888,0
DA:8889,0
DA:8890,0
DA:8891,0
DA:8892,0
DA:8893,0
DA:8895,0
DA:8896,0
DA:8897,0
DA:8898,0
DA:8899,0
DA:8931,0
DA:8932,0
DA:8933,0
DA:8934,0
DA:8935,0
DA:8936,0
DA:8939,0
DA:8940,0
DA:8941,0
DA:8942,0
DA:8943,0
DA:8944,0
DA:8945,0
DA:8946,0
DA:8947,0
DA:8948,0
DA:8950,0
DA:8952,0
DA:8953,0
DA:8954,0
DA:8955,0
DA:8956,0
DA:8957,0
DA:8958,0
DA:8959,0
DA:8960,0
DA:8961,0
DA:8963,0
DA:8966,0
DA:8967,0
DA:8968,0
DA:8969,0
DA:8970,0
DA:8971,0
DA:8972,0
DA:8973,0
DA:8974,0
DA:8975,0
DA:8976,0
DA:8977,0
DA:8978,0
DA:8979,0
DA:8981,0
DA:8982,0
DA:8983,0
DA:8984,0
DA:8985,0
DA:8986,0
DA:8987,0
DA:8988,0
DA:8989,0
DA:8990,0
DA:8991,0
DA:8992,0
DA:8993,0
DA:8994,0
DA:8995,0
DA:8996,0
DA:8997,0
DA:8998,0
DA:8999,0
DA:9000,0
DA:9001,0
DA:9004,0
DA:9005,0
DA:9006,0
DA:9007,0
DA:9008,0
DA:9009,0
DA:9011,0
DA:9012,0
DA:9013,0
DA:9014,0
DA:9015,0
DA:9016,0
DA:9017,0
DA:9018,0
DA:9019,0
DA:9020,0
DA:9022,0
DA:9023,0
DA:9024,0
DA:9025,0
DA:9026,0
DA:9027,0
DA:9028,0
DA:9029,0
DA:9030,0
DA:9031,0
DA:9034,0
DA:9035,0
DA:9036,0
DA:9037,0
DA:9038,0
DA:9039,0
DA:9040,0
DA:9041,0
DA:9042,0
DA:9043,0
DA:9044,0
DA:9045,0
DA:9046,0
DA:9047,0
DA:9049,0
DA:9050,0
DA:9051,0
DA:9053,0
DA:9054,0
DA:9055,0
DA:9056,0
DA:9058,0
DA:9059,0
DA:9060,0
DA:9061,0
DA:9064,0
DA:9065,0
DA:9066,0
DA:9067,0
DA:9068,0
DA:9069,0
DA:9070,0
DA:9071,0
DA:9072,0
DA:9073,0
DA:9074,0
DA:9075,0
DA:9076,0
DA:9077,0
DA:9078,0
DA:9079,0
DA:9081,0
DA:9082,0
DA:9083,0
DA:9084,0
DA:9087,0
DA:9088,0
DA:9089,0
DA:9090,0
DA:9091,0
DA:9092,0
DA:9093,0
DA:9094,0
DA:9096,0
DA:9097,0
DA:9098,0
DA:9099,0
DA:9100,0
DA:9101,0
DA:9102,0
DA:9105,0
DA:9106,0
DA:9107,0
DA:9108,0
DA:9109,0
DA:9111,0
DA:9112,0
DA:9113,0
DA:9114,0
DA:9115,0
DA:9116,0
DA:9117,0
DA:9118,0
DA:9119,0
DA:9121,0
DA:9122,0
DA:9123,0
DA:9124,0
DA:9125,0
DA:9128,0
DA:9129,0
DA:9130,0
DA:9131,0
DA:9132,0
DA:9133,0
DA:9134,0
DA:9135,0
DA:9136,0
DA:9137,0
DA:9138,0
DA:9139,0
DA:9140,0
DA:9142,0
DA:9143,0
DA:9144,0
DA:9145,0
DA:9146,0
DA:9147,0
DA:9148,0
DA:9149,0
DA:9151,0
DA:9152,0
DA:9153,0
DA:9154,0
DA:9155,0
DA:9156,0
DA:9160,0
DA:9161,0
DA:9162,0
DA:9163,0
DA:9164,0
DA:9165,0
DA:9167,0
DA:9168,0
DA:9169,0
DA:9170,0
DA:9171,0
DA:9172,0
DA:9173,0
DA:9174,0
DA:9175,0
DA:9177,0
DA:9178,0
DA:9180,0
DA:9181,0
DA:9182,0
DA:9183,0
DA:9184,0
DA:9185,0
DA:9187,0
DA:9188,0
DA:9189,0
DA:9190,0
DA:9191,0
DA:9192,0
DA:9194,0
DA:9195,0
DA:9196,0
DA:9197,0
DA:9198,0
DA:9199,0
DA:9200,0
DA:9201,0
DA:9202,0
DA:9203,0
DA:9206,0
DA:9207,0
DA:9208,0
DA:9209,0
DA:9211,0
DA:9212,0
DA:9213,0
DA:9214,0
DA:9215,0
DA:9216,0
DA:9217,0
DA:9218,0
DA:9219,0
DA:9220,0
DA:9222,0
DA:9223,0
DA:9224,0
DA:9225,0
DA:9226,0
DA:9229,0
DA:9230,0
DA:9231,0
DA:9232,0
DA:9233,0
DA:9234,0
DA:9235,0
DA:9236,0
DA:9237,0
DA:9238,0
DA:9239,0
DA:9240,0
DA:9241,0
DA:9243,0
DA:9244,0
DA:9245,0
DA:9246,0
DA:9247,0
DA:9248,0
DA:9249,0
DA:9250,0
DA:9251,0
DA:9252,0
DA:9253,0
DA:9254,0
DA:9255,0
DA:9256,0
DA:9261,0
DA:9262,0
DA:9264,0
DA:9265,0
DA:9266,0
DA:9267,0
DA:9268,0
DA:9269,0
DA:9270,0
DA:9271,0
DA:9272,0
DA:9273,0
DA:9274,0
DA:9276,0
DA:9278,0
DA:9279,0
DA:9280,0
DA:9281,0
DA:9282,0
DA:9283,0
DA:9284,0
DA:9288,0
DA:9289,0
DA:9295,0
DA:9296,0
DA:9297,0
DA:9298,0
DA:9299,0
DA:9300,0
DA:9301,0
DA:9305,0
DA:9307,0
DA:9308,0
DA:9309,0
DA:9310,0
DA:9311,0
DA:9312,0
DA:9313,0
DA:9314,0
DA:9315,0
DA:9316,0
DA:9317,0
DA:9319,0
DA:9324,0
DA:9325,0
DA:9326,0
DA:9327,0
DA:9328,0
DA:9330,0
DA:9333,0
DA:9334,0
DA:9337,0
DA:9338,0
DA:9343,0
DA:9344,0
DA:9345,0
DA:9346,0
DA:9348,0
DA:9349,0
DA:9350,0
DA:9351,0
DA:9352,0
DA:9353,0
DA:9354,0
DA:9356,0
DA:9357,0
DA:9359,0
DA:9360,0
DA:9361,0
DA:9362,0
DA:9363,0
DA:9366,0
DA:9367,0
DA:9368,0
DA:9369,0
DA:9370,0
DA:9371,0
DA:9372,0
DA:9373,0
DA:9374,0
DA:9375,0
DA:9376,0
DA:9377,0
DA:9378,0
DA:9380,0
DA:9381,0
DA:9382,0
DA:9383,0
DA:9384,0
DA:9385,0
DA:9386,0
DA:9387,0
DA:9388,0
DA:9389,0
DA:9390,0
DA:9391,0
DA:9392,0
DA:9393,0
DA:9394,0
DA:9395,0
DA:9396,0
DA:9397,0
DA:9398,0
DA:9401,0
DA:9402,0
DA:9403,0
DA:9404,0
DA:9406,0
DA:9407,0
DA:9408,0
DA:9409,0
DA:9410,0
DA:9411,0
DA:9412,0
DA:9413,0
DA:9414,0
DA:9416,0
DA:9417,0
DA:9418,0
DA:9419,0
DA:9420,0
DA:9423,0
DA:9424,0
DA:9425,0
DA:9426,0
DA:9427,0
DA:9428,0
DA:9429,0
DA:9430,0
DA:9431,0
DA:9432,0
DA:9433,0
DA:9435,0
DA:9436,0
DA:9437,0
DA:9438,0
DA:9439,0
DA:9440,0
DA:9441,0
DA:9442,0
DA:9443,0
DA:9444,0
DA:9445,0
DA:9446,0
DA:9447,0
DA:9448,0
DA:9451,0
DA:9452,0
DA:9453,0
DA:9454,0
DA:9455,0
DA:9456,0
DA:9457,0
DA:9458,0
DA:9459,0
DA:9461,0
DA:9462,0
DA:9463,0
DA:9464,0
DA:9465,0
DA:9466,0
DA:9467,0
DA:9469,0
DA:9470,0
DA:9471,0
DA:9472,0
DA:9473,0
DA:9474,0
DA:9475,0
DA:9476,0
DA:9477,0
DA:9478,0
DA:9479,0
DA:9480,0
DA:9481,0
DA:9482,0
DA:9483,0
DA:9484,0
DA:9485,0
DA:9486,0
DA:9487,0
DA:9488,0
DA:9489,0
DA:9490,0
DA:9491,0
DA:9492,0
DA:9494,0
DA:9495,0
DA:9496,0
DA:9497,0
DA:9498,0
DA:9500,0
DA:9501,0
DA:9502,0
DA:9503,0
DA:9504,0
DA:9506,0
DA:9507,0
DA:9508,0
DA:9509,0
DA:9510,0
DA:9511,0
DA:9512,0
DA:9513,0
DA:9514,0
DA:9517,0
DA:9518,0
DA:9519,0
DA:9520,0
DA:9521,0
DA:9522,0
DA:9523,0
DA:9524,0
DA:9527,0
DA:9532,0
DA:9533,0
DA:9534,0
DA:9535,0
DA:9536,0
DA:9537,0
DA:9538,0
DA:9539,0
DA:9540,0
DA:9541,0
DA:9542,0
DA:9543,0
DA:9544,0
DA:9545,0
DA:9547,0
DA:9548,0
DA:9549,0
DA:9550,0
DA:9551,0
DA:9552,0
DA:9553,0
DA:9554,0
DA:9555,0
DA:9558,0
DA:9559,0
DA:9560,0
DA:9561,0
DA:9562,0
DA:9563,0
DA:9564,0
DA:9566,0
DA:9567,0
DA:9568,0
DA:9569,0
DA:9570,0
DA:9571,0
DA:9572,0
DA:9574,0
DA:9575,0
DA:9576,0
DA:9577,0
DA:9578,0
DA:9579,0
DA:9580,0
DA:9581,0
DA:9583,0
DA:9584,0
DA:9585,0
DA:9586,0
DA:9587,0
DA:9588,0
DA:9589,0
DA:9590,0
DA:9591,0
DA:9592,0
DA:9593,0
DA:9594,0
DA:9595,0
DA:9596,0
DA:9597,0
DA:9599,0
DA:9600,0
DA:9601,0
DA:9602,0
DA:9603,0
DA:9604,0
DA:9605,0
DA:9606,0
DA:9609,0
DA:9610,0
DA:9611,0
DA:9612,0
DA:9613,0
DA:9614,0
DA:9615,0
DA:9618,0
DA:9624,0
DA:9625,0
DA:9626,0
DA:9627,0
DA:9628,0
DA:9629,0
DA:9630,0
DA:9631,0
DA:9632,0
DA:9633,0
DA:9634,0
DA:9635,0
DA:9636,0
DA:9637,0
DA:9638,0
DA:9639,0
DA:9640,0
DA:9642,0
DA:9643,0
DA:9644,0
DA:9645,0
DA:9646,0
DA:9647,0
DA:9648,0
DA:9649,0
DA:9650,0
DA:9651,0
DA:9652,0
DA:9653,0
DA:9654,0
DA:9655,0
DA:9656,0
DA:9657,0
DA:9660,0
DA:9666,0
DA:9672,0
DA:9674,0
DA:9680,0
DA:9682,0
DA:9683,0
DA:9684,0
DA:9685,0
DA:9686,0
DA:9688,0
DA:9691,0
DA:9692,0
DA:9695,0
DA:9696,0
DA:9701,0
DA:9702,0
DA:9703,0
DA:9705,0
DA:9707,0
DA:9708,0
DA:9709,0
DA:9710,0
DA:9711,0
DA:9712,0
DA:9713,0
DA:9714,0
DA:9715,0
DA:9716,0
DA:9718,0
DA:9719,0
DA:9720,0
DA:9721,0
DA:9722,0
DA:9725,0
DA:9726,0
DA:9727,0
DA:9728,0
DA:9729,0
DA:9730,0
DA:9731,0
DA:9733,0
DA:9734,0
DA:9735,0
DA:9736,0
DA:9737,0
DA:9738,0
DA:9739,0
DA:9741,0
DA:9742,0
DA:9743,0
DA:9744,0
DA:9745,0
DA:9746,0
DA:9747,0
DA:9748,0
DA:9750,0
DA:9751,0
DA:9752,0
DA:9753,0
DA:9754,0
DA:9755,0
DA:9756,0
DA:9757,0
DA:9758,0
DA:9759,0
DA:9760,0
DA:9761,0
DA:9762,0
DA:9763,0
DA:9764,0
DA:9765,0
DA:9766,0
DA:9769,0
DA:9770,0
DA:9771,0
DA:9772,0
DA:9773,0
DA:9774,0
DA:9777,0
DA:9779,0
DA:9780,0
DA:9781,0
DA:9782,0
DA:9783,0
DA:9784,0
DA:9785,0
DA:9786,0
DA:9787,0
DA:9789,0
DA:9790,0
DA:9793,0
DA:9794,0
DA:9795,0
DA:9796,0
DA:9797,0
DA:9798,0
DA:9799,0
DA:9801,0
DA:9802,0
DA:9803,0
DA:9804,0
DA:9805,0
DA:9806,0
DA:9807,0
DA:9809,0
DA:9810,0
DA:9811,0
DA:9812,0
DA:9813,0
DA:9815,0
DA:9816,0
DA:9817,0
DA:9818,0
DA:9819,0
DA:9820,0
DA:9821,0
DA:9822,0
DA:9823,0
DA:9824,0
DA:9825,0
DA:9826,0
DA:9827,0
DA:9828,0
DA:9829,0
DA:9830,0
DA:9831,0
DA:9832,0
DA:9833,0
DA:9834,0
DA:9835,0
DA:9838,0
DA:9839,0
DA:9840,0
DA:9841,0
DA:9842,0
DA:9843,0
DA:9846,0
DA:9848,0
DA:9849,0
DA:9850,0
DA:9851,0
DA:9852,0
DA:9853,0
DA:9854,0
DA:9855,0
DA:9857,0
DA:9858,0
DA:9861,0
DA:9862,0
DA:9863,0
DA:9864,0
DA:9865,0
DA:9866,0
DA:9867,0
DA:9868,0
DA:9869,0
DA:9870,0
DA:9871,0
DA:9872,0
DA:9873,0
DA:9874,0
DA:9875,0
DA:9878,0
DA:9884,0
DA:9885,0
DA:9886,0
DA:9887,0
DA:9888,0
DA:9892,0
DA:9893,0
DA:9894,0
DA:9895,0
DA:9898,0
DA:9899,0
DA:9900,0
DA:9901,0
DA:9902,0
DA:9903,0
DA:9905,0
DA:9908,0
DA:9909,0
DA:9910,0
DA:9911,0
DA:9912,0
DA:9913,0
DA:9914,0
DA:9915,0
DA:9916,0
DA:9917,0
DA:9918,0
DA:9919,0
DA:9920,0
DA:9921,0
DA:9922,0
DA:9939,0
DA:9940,0
DA:9941,0
DA:9942,0
DA:9943,0
DA:9944,0
DA:9945,0
DA:9946,0
DA:9947,0
DA:9949,0
DA:9950,0
DA:9951,0
DA:9952,0
DA:9953,0
DA:9955,0
DA:9956,0
DA:9957,0
DA:9958,0
DA:9959,0
DA:9962,0
DA:9963,0
DA:9964,0
DA:9965,0
DA:9966,0
DA:9967,0
DA:9968,0
DA:9969,0
DA:9970,0
DA:9971,0
DA:9972,0
DA:9987,0
DA:9988,0
DA:9989,0
DA:9990,0
DA:9991,0
DA:9992,0
DA:9993,0
DA:9994,0
DA:9995,0
DA:9996,0
DA:9997,0
DA:9998,0
DA:10000,0
DA:10001,0
DA:10002,0
DA:10003,0
DA:10004,0
DA:10005,0
DA:10006,0
DA:10008,0
DA:10011,0
DA:10012,0
DA:10013,0
DA:10014,0
DA:10015,0
DA:10016,0
DA:10017,0
DA:10020,0
DA:10021,0
DA:10022,0
DA:10023,0
DA:10024,0
DA:10025,0
DA:10026,0
DA:10027,0
DA:10028,0
DA:10029,0
DA:10030,0
DA:10031,0
DA:10032,0
DA:10033,0
DA:10034,0
DA:10035,0
DA:10036,0
DA:10037,0
DA:10038,0
DA:10039,0
DA:10040,0
DA:10041,0
DA:10042,0
DA:10043,0
DA:10044,0
DA:10045,0
DA:10046,0
DA:10047,0
DA:10048,0
DA:10049,0
DA:10050,0
DA:10051,0
DA:10054,0
DA:10055,0
DA:10056,0
DA:10057,0
DA:10058,0
DA:10059,0
DA:10060,0
DA:10061,0
DA:10062,0
DA:10063,0
DA:10064,0
DA:10065,0
DA:10067,0
DA:10068,0
DA:10069,0
DA:10070,0
DA:10071,0
DA:10072,0
DA:10073,0
DA:10074,0
DA:10075,0
DA:10076,0
DA:10077,0
DA:10078,0
DA:10081,0
DA:10082,0
DA:10083,0
DA:10084,0
DA:10087,0
DA:10088,0
DA:10089,0
DA:10090,0
DA:10091,0
DA:10092,0
DA:10094,0
DA:10095,0
DA:10096,0
DA:10097,0
DA:10098,0
DA:10099,0
DA:10101,0
DA:10102,0
DA:10103,0
DA:10104,0
DA:10105,0
DA:10106,0
DA:10107,0
DA:10110,0
DA:10111,0
DA:10112,0
DA:10113,0
DA:10114,0
DA:10115,0
DA:10116,0
DA:10125,0
DA:10126,0
DA:10127,0
DA:10128,0
DA:10129,0
DA:10130,0
DA:10131,0
DA:10132,0
DA:10133,0
DA:10134,0
DA:10135,0
DA:10136,0
DA:10137,0
DA:10138,0
DA:10139,0
DA:10140,0
DA:10141,0
DA:10143,0
DA:10144,0
DA:10145,0
DA:10146,0
DA:10147,0
DA:10149,0
DA:10150,0
DA:10151,0
DA:10152,0
DA:10153,0
DA:10154,0
DA:10155,0
DA:10156,0
DA:10157,0
DA:10158,0
DA:10159,0
DA:10160,0
DA:10161,0
DA:10162,0
DA:10165,0
DA:10166,0
DA:10168,0
DA:10169,0
DA:10170,0
DA:10171,0
DA:10176,0
DA:10179,0
DA:10180,0
DA:10181,0
DA:10182,0
DA:10183,0
DA:10188,0
DA:10189,0
DA:10190,0
DA:10191,0
DA:10192,0
DA:10193,0
DA:10194,0
DA:10195,0
DA:10197,0
DA:10198,0
DA:10199,0
DA:10204,0
DA:10205,0
DA:10206,0
DA:10207,0
DA:10208,0
DA:10209,0
DA:10210,0
DA:10211,0
DA:10212,0
DA:10213,0
DA:10214,0
DA:10215,0
DA:10216,0
DA:10217,0
DA:10220,0
DA:10221,0
DA:10222,0
DA:10223,0
DA:10230,0
DA:10231,0
DA:10232,0
DA:10233,0
DA:10234,0
DA:10235,0
DA:10236,0
DA:10237,0
DA:10238,0
DA:10239,0
DA:10240,0
DA:10241,0
DA:10242,0
DA:10243,0
DA:10244,0
DA:10245,0
DA:10246,0
DA:10247,0
DA:10248,0
DA:10249,0
DA:10250,0
DA:10251,0
DA:10252,0
DA:10253,0
DA:10254,0
DA:10255,0
DA:10256,0
DA:10257,0
DA:10258,0
DA:10259,0
DA:10260,0
DA:10261,0
DA:10262,0
DA:10263,0
DA:10264,0
DA:10265,0
DA:10266,0
DA:10267,0
DA:10269,0
DA:10270,0
DA:10271,0
DA:10272,0
DA:10273,0
DA:10275,0
DA:10276,0
DA:10277,0
DA:10278,0
DA:10279,0
DA:10280,0
DA:10281,0
DA:10282,0
DA:10283,0
DA:10284,0
DA:10285,0
DA:10286,0
DA:10287,0
DA:10288,0
DA:10289,0
DA:10315,0
DA:10316,0
DA:10317,0
DA:10318,0
DA:10319,0
DA:10320,0
DA:10321,0
DA:10322,0
DA:10323,0
DA:10324,0
DA:10325,0
DA:10326,0
DA:10328,0
DA:10329,0
DA:10330,0
DA:10331,0
DA:10332,0
DA:10333,0
DA:10334,0
DA:10335,0
DA:10336,0
DA:10337,0
DA:10338,0
DA:10339,0
DA:10340,0
DA:10341,0
DA:10342,0
DA:10343,0
DA:10344,0
DA:10345,0
DA:10346,0
DA:10347,0
DA:10348,0
DA:10349,0
DA:10350,0
DA:10352,0
DA:10353,0
DA:10354,0
DA:10357,0
DA:10358,0
DA:10360,0
DA:10361,0
DA:10362,0
DA:10363,0
DA:10370,0
DA:10371,0
DA:10374,0
DA:10375,0
DA:10377,0
DA:10378,0
DA:10379,0
DA:10380,0
DA:10383,0
DA:10384,0
DA:10385,0
DA:10386,0
DA:10387,0
DA:10388,0
DA:10389,0
DA:10390,0
DA:10391,0
DA:10392,0
DA:10393,0
DA:10394,0
DA:10395,0
DA:10396,0
DA:10397,0
DA:10401,0
DA:10402,0
DA:10403,0
DA:10404,0
DA:10405,0
DA:10406,0
DA:10407,0
DA:10408,0
DA:10409,0
DA:10410,0
DA:10419,0
DA:10420,0
DA:10421,0
DA:10422,0
DA:10423,0
DA:10424,0
DA:10425,0
DA:10426,0
DA:10427,0
DA:10428,0
DA:10429,0
DA:10430,0
DA:10432,0
DA:10434,0
DA:10435,0
DA:10436,0
DA:10437,0
DA:10438,0
DA:10439,0
DA:10440,0
DA:10441,0
DA:10442,0
DA:10443,0
DA:10444,0
DA:10445,0
DA:10446,0
DA:10448,0
DA:10449,0
DA:10450,0
DA:10455,0
DA:10456,0
DA:10457,0
DA:10458,0
DA:10459,0
DA:10460,0
DA:10461,0
DA:10462,0
DA:10463,0
DA:10464,0
DA:10465,0
DA:10468,0
DA:10469,0
DA:10471,0
DA:10472,0
DA:10473,0
DA:10474,0
DA:10477,0
DA:10478,0
DA:10480,0
DA:10481,0
DA:10482,0
DA:10483,0
DA:10486,0
DA:10487,0
DA:10488,0
DA:10489,0
DA:10490,0
DA:10491,0
DA:10493,0
DA:10494,0
DA:10495,0
DA:10496,0
DA:10499,0
DA:10500,0
DA:10502,0
DA:10503,0
DA:10504,0
DA:10505,0
DA:10508,0
DA:10509,0
DA:10510,0
DA:10511,0
DA:10512,0
DA:10513,0
DA:10514,0
DA:10515,0
DA:10516,0
DA:10517,0
DA:10518,0
DA:10519,0
DA:10520,0
DA:10521,0
DA:10522,0
DA:10523,0
DA:10524,0
DA:10525,0
DA:10526,0
DA:10527,0
DA:10528,0
DA:10530,0
DA:10566,0
DA:10567,0
DA:10568,0
DA:10569,0
DA:10570,0
DA:10571,0
DA:10572,0
DA:10573,0
DA:10574,0
DA:10575,0
DA:10576,0
DA:10577,0
DA:10579,0
DA:10580,0
DA:10581,0
DA:10582,0
DA:10583,0
DA:10584,0
DA:10586,0
DA:10587,0
DA:10588,0
DA:10589,0
DA:10590,0
DA:10592,0
DA:10593,0
DA:10594,0
DA:10595,0
DA:10596,0
DA:10597,0
DA:10598,0
DA:10599,0
DA:10601,0
DA:10602,0
DA:10603,0
DA:10604,0
DA:10605,0
DA:10606,0
DA:10607,0
DA:10608,0
DA:10610,0
DA:10611,0
DA:10612,0
DA:10614,0
DA:10615,0
DA:10616,0
DA:10617,0
DA:10618,0
DA:10619,0
DA:10620,0
DA:10621,0
DA:10622,0
DA:10623,0
DA:10624,0
DA:10627,0
DA:10628,0
DA:10629,0
DA:10631,0
DA:10632,0
DA:10633,0
DA:10634,0
DA:10635,0
DA:10636,0
DA:10637,0
DA:10640,0
DA:10641,0
DA:10642,0
DA:10643,0
DA:10644,0
DA:10645,0
DA:10646,0
DA:10647,0
DA:10648,0
DA:10649,0
DA:10650,0
DA:10651,0
DA:10652,0
DA:10653,0
DA:10654,0
DA:10655,0
DA:10659,0
DA:10660,0
DA:10661,0
DA:10662,0
DA:10663,0
DA:10664,0
DA:10665,0
DA:10666,0
DA:10667,0
DA:10668,0
DA:10669,0
DA:10670,0
DA:10671,0
DA:10690,0
DA:10691,0
DA:10692,0
DA:10693,0
DA:10695,0
DA:10696,0
DA:10698,0
DA:10699,0
DA:10700,0
DA:10701,0
DA:10704,0
DA:10705,0
DA:10707,0
DA:10708,0
DA:10709,0
DA:10710,0
DA:10713,0
DA:10714,0
DA:10715,0
DA:10716,0
DA:10717,0
DA:10718,0
DA:10719,0
DA:10720,0
DA:10721,0
DA:10722,0
DA:10724,0
DA:10725,0
DA:10726,0
DA:10727,0
DA:10730,0
DA:10731,0
DA:10732,0
DA:10733,0
DA:10734,0
DA:10735,0
DA:10736,0
DA:10737,0
DA:10738,0
DA:10739,0
DA:10740,0
DA:10741,0
DA:10742,0
DA:10743,0
DA:10744,0
DA:10745,0
DA:10746,0
DA:10747,0
DA:10748,0
DA:10749,0
DA:10750,0
DA:10751,0
DA:10752,0
DA:10753,0
DA:10755,0
DA:10762,0
DA:10763,0
DA:10764,0
DA:10765,0
DA:10766,0
DA:10767,0
DA:10768,0
DA:10769,0
DA:10770,0
DA:10771,0
DA:10772,0
DA:10775,0
DA:10776,0
DA:10777,0
DA:10778,0
DA:10779,0
DA:10780,0
DA:10781,0
DA:10782,0
DA:10783,0
DA:10784,0
DA:10785,0
DA:10786,0
DA:10788,0
DA:10789,0
DA:10790,0
DA:10791,0
DA:10793,0
DA:10796,0
DA:10797,0
DA:10798,0
DA:10799,0
DA:10800,0
DA:10801,0
DA:10802,0
DA:10803,0
DA:10804,0
DA:10805,0
DA:10808,0
DA:10809,0
DA:10810,0
DA:10811,0
DA:10812,0
DA:10813,0
DA:10814,0
DA:10815,0
DA:10816,0
DA:10817,0
DA:10818,0
DA:10819,0
DA:10820,0
DA:10821,0
DA:10822,0
DA:10823,0
DA:10824,0
DA:10826,0
DA:10827,0
DA:10828,0
DA:10829,0
DA:10831,0
DA:10834,0
DA:10835,0
DA:10836,0
DA:10837,0
DA:10838,0
DA:10839,0
DA:10840,0
DA:10841,0
DA:10842,0
DA:10843,0
DA:10844,0
DA:10847,0
DA:10848,0
DA:10849,0
DA:10851,0
DA:10852,0
DA:10853,0
DA:10854,0
DA:10855,0
DA:10856,0
DA:10857,0
DA:10858,0
DA:10860,0
DA:10863,0
DA:10864,0
DA:10865,0
DA:10866,0
DA:10867,0
DA:10868,0
DA:10869,0
DA:10870,0
DA:10871,0
DA:10872,0
DA:10873,0
DA:10877,0
DA:10878,0
DA:10879,0
DA:10880,0
DA:10881,0
DA:10884,0
DA:10885,0
DA:10886,0
DA:10887,0
DA:10888,0
DA:10889,0
DA:10892,0
DA:10894,0
DA:10895,0
DA:10896,0
DA:10898,0
DA:10899,0
DA:10900,0
DA:10901,0
DA:10902,0
DA:10903,0
DA:10907,0
DA:10908,0
DA:10909,0
DA:10910,0
DA:10911,0
DA:10912,0
DA:10914,0
DA:10928,0
DA:10929,0
DA:10931,0
DA:10932,0
DA:10933,0
DA:10961,0
DA:10962,0
DA:10963,0
DA:10964,0
DA:10965,0
DA:10966,0
DA:10967,0
DA:10968,0
DA:10969,0
DA:10970,0
DA:10971,0
DA:10974,0
DA:10975,0
DA:10976,0
DA:10977,0
DA:10978,0
DA:10979,0
DA:10980,0
DA:10981,0
DA:10982,0
DA:10983,0
DA:10984,0
DA:10985,0
DA:10987,0
DA:10988,0
DA:10989,0
DA:10990,0
DA:10992,0
DA:10995,0
DA:10996,0
DA:10997,0
DA:10998,0
DA:10999,0
DA:11000,0
DA:11001,0
DA:11002,0
DA:11003,0
DA:11004,0
DA:11005,0
DA:11007,0
DA:11008,0
DA:11009,0
DA:11010,0
DA:11012,0
DA:11015,0
DA:11016,0
DA:11017,0
DA:11018,0
DA:11019,0
DA:11020,0
DA:11021,0
DA:11022,0
DA:11023,0
DA:11024,0
DA:11027,0
DA:11028,0
DA:11029,0
DA:11030,0
DA:11031,0
DA:11032,0
DA:11033,0
DA:11034,0
DA:11035,0
DA:11036,0
DA:11037,0
DA:11039,0
DA:11040,0
DA:11041,0
DA:11042,0
DA:11043,0
DA:11044,0
DA:11046,0
DA:11047,0
DA:11048,0
DA:11049,0
DA:11051,0
DA:11054,0
DA:11055,0
DA:11056,0
DA:11057,0
DA:11058,0
DA:11059,0
DA:11060,0
DA:11061,0
DA:11062,0
DA:11063,0
DA:11064,0
DA:11068,0
DA:11069,0
DA:11070,0
DA:11071,0
DA:11072,0
DA:11073,0
DA:11074,0
DA:11078,0
DA:11079,0
DA:11080,0
DA:11082,0
DA:11083,0
DA:11084,0
DA:11085,0
DA:11086,0
DA:11088,0
DA:11090,0
DA:11091,0
DA:11092,0
DA:11093,0
DA:11096,0
DA:11099,0
DA:11100,0
DA:11101,0
DA:11102,0
DA:11103,0
DA:11104,0
DA:11105,0
DA:11106,0
DA:11107,0
DA:11108,0
DA:11111,0
DA:11112,0
DA:11114,0
DA:11115,0
DA:11116,0
DA:11117,0
DA:11118,0
DA:11119,0
DA:11120,0
DA:11121,0
DA:11122,0
DA:11123,0
DA:11124,0
DA:11125,0
DA:11126,0
DA:11127,0
DA:11129,0
DA:11130,0
DA:11131,0
DA:11132,0
DA:11133,0
DA:11134,0
DA:11135,0
DA:11136,0
DA:11138,0
DA:11141,0
DA:11142,0
DA:11143,0
DA:11144,0
DA:11145,0
DA:11146,0
DA:11147,0
DA:11148,0
DA:11149,0
DA:11150,0
DA:11153,0
DA:11154,0
DA:11155,0
DA:11156,0
DA:11157,0
DA:11158,0
DA:11160,0
DA:11167,0
DA:11168,0
DA:11169,0
DA:11170,0
DA:11171,0
DA:11172,0
DA:11173,0
DA:11174,0
DA:11175,0
DA:11176,0
DA:11177,0
DA:11184,0
DA:11185,0
DA:11186,0
DA:11187,0
DA:11188,0
DA:11190,0
DA:11191,0
DA:11192,0
DA:11193,0
DA:11194,0
DA:11195,0
DA:11197,0
DA:11198,0
DA:11199,0
DA:11201,0
DA:11202,0
DA:11203,0
DA:11204,0
DA:11205,0
DA:11206,0
DA:11207,0
DA:11208,0
DA:11210,0
DA:11211,0
DA:11212,0
DA:11213,0
DA:11214,0
DA:11215,0
DA:11217,0
DA:11218,0
DA:11222,0
DA:11223,0
DA:11224,0
DA:11225,0
DA:11226,0
DA:11227,0
DA:11228,0
DA:11229,0
DA:11232,0
DA:11235,0
DA:11236,0
DA:11237,0
DA:11238,0
DA:11239,0
DA:11240,0
DA:11241,0
DA:11242,0
DA:11243,0
DA:11244,0
DA:11245,0
DA:11249,0
DA:11250,0
DA:11251,0
DA:11252,0
DA:11253,0
DA:11255,0
DA:11256,0
DA:11257,0
DA:11258,0
DA:11259,0
DA:11260,0
DA:11262,0
DA:11263,0
DA:11264,0
DA:11266,0
DA:11267,0
DA:11268,0
DA:11269,0
DA:11270,0
DA:11271,0
DA:11272,0
DA:11273,0
DA:11275,0
DA:11276,0
DA:11277,0
DA:11278,0
DA:11279,0
DA:11280,0
DA:11282,0
DA:11283,0
DA:11287,0
DA:11288,0
DA:11289,0
DA:11290,0
DA:11291,0
DA:11292,0
DA:11293,0
DA:11294,0
DA:11297,0
DA:11300,0
DA:11301,0
DA:11302,0
DA:11303,0
DA:11304,0
DA:11305,0
DA:11306,0
DA:11307,0
DA:11308,0
DA:11309,0
DA:11310,0
DA:11311,0
DA:11314,0
DA:11315,0
DA:11316,0
DA:11317,0
DA:11318,0
DA:11319,0
DA:11320,0
DA:11321,0
DA:11322,0
DA:11323,0
DA:11324,0
DA:11325,0
DA:11326,0
DA:11327,0
DA:11328,0
DA:11329,0
DA:11332,0
DA:11334,0
DA:11335,0
DA:11336,0
DA:11337,0
DA:11338,0
DA:11339,0
DA:11340,0
DA:11341,0
DA:11342,0
DA:11343,0
DA:11344,0
DA:11345,0
DA:11346,0
DA:11347,0
DA:11348,0
DA:11349,0
DA:11350,0
DA:11351,0
DA:11352,0
DA:11353,0
DA:11354,0
DA:11355,0
DA:11356,0
DA:11357,0
DA:11358,0
DA:11359,0
DA:11360,0
DA:11361,0
DA:11363,0
DA:11364,0
DA:11365,0
DA:11366,0
DA:11368,0
DA:11371,0
DA:11373,0
DA:11374,0
DA:11375,0
DA:11376,0
DA:11377,0
DA:11380,0
DA:11383,0
DA:11384,0
DA:11385,0
DA:11386,0
DA:11387,0
DA:11388,0
DA:11389,0
DA:11390,0
DA:11391,0
DA:11392,0
DA:11393,0
DA:11394,0
DA:11397,0
DA:11398,0
DA:11399,0
DA:11400,0
DA:11401,0
DA:11402,0
DA:11403,0
DA:11404,0
DA:11405,0
DA:11408,0
DA:11410,0
DA:11411,0
DA:11412,0
DA:11413,0
DA:11414,0
DA:11415,0
DA:11416,0
DA:11418,0
DA:11421,0
DA:11422,0
DA:11423,0
DA:11426,0
DA:11427,0
DA:11428,0
DA:11431,0
DA:11432,0
DA:11433,0
DA:11434,0
DA:11435,0
DA:11436,0
DA:11437,0
DA:11438,0
DA:11439,0
DA:11440,0
DA:11441,0
DA:11447,0
DA:11448,0
DA:11449,0
DA:11450,0
DA:11451,0
DA:11452,0
DA:11453,0
DA:11454,0
DA:11455,0
DA:11458,0
DA:11459,0
DA:11460,0
DA:11463,0
DA:11464,0
DA:11465,0
DA:11466,0
DA:11467,0
DA:11468,0
DA:11469,0
DA:11470,0
DA:11471,0
DA:11473,0
DA:11474,0
DA:11475,0
DA:11476,0
DA:11478,0
DA:11479,0
DA:11480,0
DA:11481,0
DA:11482,0
DA:11483,0
DA:11485,0
DA:11488,0
DA:11489,0
DA:11498,0
DA:11499,0
DA:11500,0
DA:11504,0
DA:11505,0
DA:11506,0
DA:11507,0
DA:11508,0
DA:11509,0
DA:11510,0
DA:11511,0
DA:11512,0
DA:11513,0
DA:11514,0
DA:11515,0
DA:11516,0
DA:11517,0
DA:11518,0
DA:11519,0
DA:11522,0
DA:11523,0
DA:11524,0
DA:11525,0
DA:11528,0
DA:11529,0
DA:11530,0
DA:11531,0
DA:11534,0
DA:11536,0
DA:11537,0
DA:11538,0
DA:11539,0
DA:11540,0
DA:11541,0
DA:11542,0
DA:11543,0
DA:11544,0
DA:11545,0
DA:11547,0
DA:11548,0
DA:11550,0
DA:11553,0
DA:11555,0
DA:11557,0
DA:11560,0
DA:11563,0
DA:11566,0
DA:11569,0
DA:11572,0
DA:11575,0
DA:11578,0
DA:11581,0
DA:11582,0
DA:11583,0
DA:11584,0
DA:11585,0
DA:11586,0
DA:11587,0
DA:11588,0
DA:11589,0
DA:11592,0
DA:11595,0
DA:11596,0
DA:11597,0
DA:11599,0
DA:11600,0
DA:11601,0
DA:11602,0
DA:11603,0
DA:11604,0
DA:11605,0
DA:11606,0
DA:11607,0
DA:11611,0
DA:11612,0
DA:11613,0
DA:11614,0
DA:11615,0
DA:11618,0
DA:11619,0
DA:11620,0
DA:11621,0
DA:11622,0
DA:11623,0
DA:11625,0
DA:11649,0
DA:11660,0
DA:11661,0
DA:11662,0
DA:11663,0
DA:11665,0
DA:11679,0
DA:11680,0
DA:11681,0
DA:11682,0
DA:11683,0
DA:11684,0
DA:11685,0
DA:11686,0
DA:11687,0
DA:11688,0
DA:11689,0
DA:11690,0
DA:11694,0
DA:11696,0
DA:11697,0
DA:11701,0
DA:11702,0
DA:11704,0
DA:11705,0
DA:11706,0
DA:11707,0
DA:11708,0
DA:11709,0
DA:11710,0
DA:11711,0
DA:11713,0
DA:11714,0
DA:11715,0
DA:11716,0
DA:11717,0
DA:11718,0
DA:11720,0
DA:11721,0
DA:11722,0
DA:11723,0
DA:11724,0
DA:11725,0
DA:11726,0
DA:11727,0
DA:11728,0
DA:11730,0
DA:11731,0
DA:11732,0
DA:11733,0
DA:11734,0
DA:11735,0
DA:11738,0
DA:11741,0
DA:11742,0
DA:11743,0
DA:11744,0
DA:11745,0
DA:11746,0
DA:11747,0
DA:11748,0
DA:11749,0
DA:11751,0
DA:11752,0
DA:11754,0
DA:11755,0
DA:11756,0
DA:11757,0
DA:11758,0
DA:11761,0
DA:11762,0
DA:11763,0
DA:11764,0
DA:11765,0
DA:11766,0
DA:11767,0
DA:11768,0
DA:11769,0
DA:11770,0
DA:11773,0
DA:11774,0
DA:11775,0
DA:11776,0
DA:11777,0
DA:11779,0
DA:11780,0
DA:11781,0
DA:11782,0
DA:11783,0
DA:11784,0
DA:11785,0
DA:11786,0
DA:11787,0
DA:11788,0
DA:11791,0
DA:11792,0
DA:11793,0
DA:11794,0
DA:11795,0
DA:11796,0
DA:11797,0
DA:11798,0
DA:11799,0
DA:11800,0
DA:11801,0
DA:11802,0
DA:11806,0
DA:11807,0
DA:11808,0
DA:11809,0
DA:11810,0
DA:11811,0
DA:11816,0
DA:11817,0
DA:11818,0
DA:11819,0
DA:11820,0
DA:11821,0
DA:11822,0
DA:11823,0
DA:11824,0
DA:11825,0
DA:11826,0
DA:11827,0
DA:11828,0
DA:11830,0
DA:11831,0
DA:11832,0
DA:11833,0
DA:11834,0
DA:11835,0
DA:11838,0
DA:11841,0
DA:11842,0
DA:11843,0
DA:11844,0
DA:11845,0
DA:11846,0
DA:11847,0
DA:11848,0
DA:11849,0
DA:11850,0
DA:11851,0
DA:11855,0
DA:11856,0
DA:11857,0
DA:11858,0
DA:11859,0
DA:11860,0
DA:11864,0
DA:11865,0
DA:11866,0
DA:11867,0
DA:11868,0
DA:11869,0
DA:11870,0
DA:11871,0
DA:11872,0
DA:11873,0
DA:11874,0
DA:11875,0
DA:11876,0
DA:11878,0
DA:11879,0
DA:11880,0
DA:11881,0
DA:11882,0
DA:11883,0
DA:11886,0
DA:11889,0
DA:11890,0
DA:11891,0
DA:11892,0
DA:11893,0
DA:11894,0
DA:11895,0
DA:11896,0
DA:11899,0
DA:11900,0
DA:11901,0
DA:11902,0
DA:11903,0
DA:11904,0
DA:11907,0
DA:11908,0
DA:11909,0
DA:11912,0
DA:11913,0
DA:11914,0
DA:11915,0
DA:11916,0
DA:11917,0
DA:11918,0
DA:11919,0
DA:11920,0
DA:11921,0
DA:11922,0
DA:11923,0
DA:11924,0
DA:11925,0
DA:11926,0
DA:11929,0
DA:11932,0
DA:11933,0
DA:11934,0
DA:11935,0
DA:11936,0
DA:11937,0
DA:11938,0
DA:11939,0
DA:11942,0
DA:11943,0
DA:11944,0
DA:11945,0
DA:11946,0
DA:11947,0
DA:11950,0
DA:11951,0
DA:11952,0
DA:11955,0
DA:11956,0
DA:11957,0
DA:11958,0
DA:11959,0
DA:11960,0
DA:11961,0
DA:11962,0
DA:11963,0
DA:11964,0
DA:11965,0
DA:11966,0
DA:11967,0
DA:11968,0
DA:11971,0
DA:11978,0
DA:11979,0
DA:11980,0
DA:11981,0
DA:11982,0
DA:11983,0
DA:11984,0
DA:11985,0
DA:11986,0
DA:11987,0
DA:11988,0
DA:11992,0
DA:11993,0
DA:11994,0
DA:11995,0
DA:11996,0
DA:11997,0
DA:11998,0
DA:12000,0
DA:12001,0
DA:12002,0
DA:12003,0
DA:12004,0
DA:12005,0
DA:12006,0
DA:12007,0
DA:12008,0
DA:12009,0
DA:12012,0
DA:12015,0
DA:12016,0
DA:12017,0
DA:12018,0
DA:12019,0
DA:12020,0
DA:12021,0
DA:12022,0
DA:12023,0
DA:12024,0
DA:12025,0
DA:12029,0
DA:12030,0
DA:12032,0
DA:12033,0
DA:12034,0
DA:12035,0
DA:12036,0
DA:12037,0
DA:12038,0
DA:12041,0
DA:12042,0
DA:12043,0
DA:12044,0
DA:12046,0
DA:12053,0
DA:12054,0
DA:12055,0
DA:12056,0
DA:12057,0
DA:12058,0
DA:12059,0
DA:12060,0
DA:12061,0
DA:12062,0
DA:12063,0
DA:12064,0
DA:12068,0
DA:12069,0
DA:12070,0
DA:12071,0
DA:12074,0
DA:12075,0
DA:12076,0
DA:12077,0
DA:12078,0
DA:12079,0
DA:12080,0
DA:12081,0
DA:12082,0
DA:12083,0
DA:12084,0
DA:12086,0
DA:12087,0
DA:12089,0
DA:12090,0
DA:12091,0
DA:12092,0
DA:12093,0
DA:12096,0
DA:12097,0
DA:12098,0
DA:12099,0
DA:12100,0
DA:12101,0
DA:12102,0
DA:12103,0
DA:12104,0
DA:12105,0
DA:12106,0
DA:12110,0
DA:12111,0
DA:12112,0
DA:12113,0
DA:12114,0
DA:12117,0
DA:12118,0
DA:12119,0
DA:12120,0
DA:12123,0
DA:12125,0
DA:12126,0
DA:12128,0
DA:12129,0
DA:12130,0
DA:12131,0
DA:12132,0
DA:12135,0
DA:12136,0
DA:12137,0
DA:12138,0
DA:12139,0
DA:12140,0
DA:12141,0
DA:12142,0
DA:12143,0
DA:12144,0
DA:12145,0
DA:12149,0
DA:12150,0
DA:12151,0
DA:12152,0
DA:12153,0
DA:12156,0
DA:12157,0
DA:12158,0
DA:12159,0
DA:12162,0
DA:12164,0
DA:12165,0
DA:12167,0
DA:12168,0
DA:12169,0
DA:12170,0
DA:12171,0
DA:12174,0
DA:12175,0
DA:12176,0
DA:12177,0
DA:12178,0
DA:12179,0
DA:12180,0
DA:12181,0
DA:12182,0
DA:12183,0
DA:12184,0
DA:12188,0
DA:12189,0
DA:12190,0
DA:12191,0
DA:12192,0
DA:12195,0
DA:12196,0
DA:12197,0
DA:12198,0
DA:12201,0
DA:12203,0
DA:12204,0
DA:12205,0
DA:12206,0
DA:12207,0
DA:12208,0
DA:12209,0
DA:12211,0
DA:12212,0
DA:12213,0
DA:12214,0
DA:12215,0
DA:12216,0
DA:12217,0
DA:12218,0
DA:12227,0
DA:12228,0
DA:12229,0
DA:12230,0
DA:12231,0
DA:12232,0
DA:12233,0
DA:12234,0
DA:12235,0
DA:12236,0
DA:12237,0
DA:12238,0
DA:12242,0
DA:12243,0
DA:12244,0
DA:12245,0
DA:12246,0
DA:12247,0
DA:12250,0
DA:12251,0
DA:12252,0
DA:12253,0
DA:12254,0
DA:12255,0
DA:12256,0
DA:12257,0
DA:12258,0
DA:12259,0
DA:12263,0
DA:12264,0
DA:12265,0
DA:12266,0
DA:12267,0
DA:12268,0
DA:12269,0
DA:12270,0
DA:12271,0
DA:12273,0
DA:12274,0
DA:12275,0
DA:12276,0
DA:12277,0
DA:12278,0
DA:12281,0
DA:12288,0
DA:12289,0
DA:12290,0
DA:12291,0
DA:12292,0
DA:12293,0
DA:12294,0
DA:12297,0
DA:12298,0
DA:12299,0
DA:12300,0
DA:12301,0
DA:12302,0
DA:12303,0
DA:12304,0
DA:12311,0
DA:12312,0
DA:12313,0
DA:12314,0
DA:12315,0
DA:12316,0
DA:12317,0
DA:12318,0
DA:12319,0
DA:12320,0
DA:12321,0
DA:12322,0
DA:12324,0
DA:12325,0
DA:12326,0
DA:12327,0
DA:12328,0
DA:12329,0
DA:12330,0
DA:12331,0
DA:12332,0
DA:12336,0
DA:12337,0
DA:12338,0
DA:12339,0
DA:12340,0
DA:12341,0
DA:12342,0
DA:12343,0
DA:12344,0
DA:12345,0
DA:12346,0
DA:12347,0
DA:12348,0
DA:12349,0
DA:12350,0
DA:12351,0
DA:12352,0
DA:12353,0
DA:12354,0
DA:12355,0
DA:12356,0
DA:12357,0
DA:12358,0
DA:12359,0
DA:12362,0
DA:12372,0
DA:12373,0
DA:12374,0
DA:12375,0
DA:12376,0
DA:12377,0
DA:12378,0
DA:12379,0
DA:12380,0
DA:12381,0
DA:12382,0
DA:12383,0
DA:12385,0
DA:12386,0
DA:12387,0
DA:12388,0
DA:12389,0
DA:12390,0
DA:12391,0
DA:12392,0
DA:12393,0
DA:12396,0
DA:12397,0
DA:12398,0
DA:12399,0
DA:12400,0
DA:12401,0
DA:12402,0
DA:12403,0
DA:12404,0
DA:12405,0
DA:12406,0
DA:12410,0
DA:12411,0
DA:12413,0
DA:12414,0
DA:12415,0
DA:12416,0
DA:12417,0
DA:12418,0
DA:12419,0
DA:12420,0
DA:12421,0
DA:12423,0
DA:12424,0
DA:12425,0
DA:12426,0
DA:12427,0
DA:12428,0
DA:12432,0
DA:12433,0
DA:12434,0
DA:12435,0
DA:12437,0
DA:12438,0
DA:12439,0
DA:12441,0
DA:12442,0
DA:12443,0
DA:12444,0
DA:12445,0
DA:12446,0
DA:12447,0
DA:12448,0
DA:12449,0
DA:12450,0
DA:12451,0
DA:12452,0
DA:12454,0
DA:12455,0
DA:12456,0
DA:12457,0
DA:12458,0
DA:12459,0
DA:12460,0
DA:12461,0
DA:12462,0
DA:12463,0
DA:12464,0
DA:12465,0
DA:12466,0
DA:12467,0
DA:12468,0
DA:12469,0
DA:12470,0
DA:12471,0
DA:12472,0
DA:12473,0
DA:12474,0
DA:12475,0
DA:12476,0
DA:12477,0
DA:12478,0
DA:12479,0
DA:12480,0
DA:12483,0
DA:12485,0
DA:12486,0
DA:12487,0
DA:12488,0
DA:12489,0
DA:12490,0
DA:12491,0
DA:12492,0
DA:12493,0
DA:12494,0
DA:12501,0
DA:12503,0
DA:12504,0
DA:12505,0
DA:12506,0
DA:12507,0
DA:12508,0
DA:12510,0
DA:12511,0
DA:12512,0
DA:12513,0
DA:12514,0
DA:12515,0
DA:12516,0
DA:12517,0
DA:12519,0
DA:12520,0
DA:12521,0
DA:12522,0
DA:12524,0
DA:12526,0
DA:12527,0
DA:12528,0
DA:12530,0
DA:12531,0
DA:12532,0
DA:12533,0
DA:12534,0
DA:12535,0
DA:12536,0
DA:12538,0
DA:12539,0
DA:12540,0
DA:12542,0
DA:12543,0
DA:12545,0
DA:12546,0
DA:12549,0
DA:12550,0
DA:12551,0
DA:12552,0
DA:12553,0
DA:12554,0
DA:12556,0
DA:12557,0
DA:12559,0
DA:12561,0
DA:12562,0
DA:12563,0
DA:12564,0
DA:12565,0
DA:12566,0
DA:12567,0
DA:12568,0
DA:12570,0
DA:12572,0
DA:12573,0
DA:12574,0
DA:12575,0
DA:12576,0
DA:12577,0
DA:12578,0
DA:12580,0
DA:12581,0
DA:12583,0
DA:12585,0
DA:12587,0
DA:12588,0
DA:12589,0
DA:12590,0
DA:12591,0
DA:12593,0
DA:12594,0
DA:12596,0
DA:12597,0
DA:12598,0
DA:12599,0
DA:12600,0
DA:12601,0
DA:12602,0
DA:12603,0
DA:12604,0
DA:12605,0
DA:12606,0
DA:12607,0
DA:12608,0
DA:12609,0
DA:12610,0
DA:12611,0
DA:12612,0
DA:12613,0
DA:12614,0
DA:12615,0
DA:12616,0
DA:12617,0
DA:12618,0
DA:12619,0
DA:12620,0
DA:12621,0
DA:12622,0
DA:12623,0
DA:12624,0
DA:12625,0
DA:12626,0
DA:12627,0
DA:12628,0
DA:12629,0
DA:12630,0
DA:12634,0
DA:12635,0
DA:12636,0
DA:12637,0
DA:12639,0
DA:12641,0
DA:12650,0
DA:12651,0
DA:12652,0
DA:12653,0
DA:12654,0
DA:12656,0
DA:12657,0
DA:12658,0
DA:12659,0
DA:12660,0
DA:12661,0
DA:12664,0
DA:12666,0
DA:12667,0
DA:12668,0
DA:12669,0
DA:12670,0
DA:12671,0
DA:12672,0
DA:12673,0
DA:12675,0
DA:12677,0
DA:12678,0
DA:12679,0
DA:12680,0
DA:12681,0
DA:12682,0
DA:12683,0
DA:12684,0
DA:12685,0
DA:12689,0
DA:12690,0
DA:12691,0
DA:12693,0
DA:12695,0
DA:12696,0
DA:12709,0
DA:12710,0
DA:12711,0
DA:12712,0
DA:12713,0
DA:12714,0
DA:12717,0
DA:12718,0
DA:12720,0
DA:12722,0
DA:12723,0
DA:12724,0
DA:12725,0
DA:12726,0
DA:12727,0
DA:12728,0
DA:12730,0
DA:12731,0
DA:12732,0
DA:12733,0
DA:12734,0
DA:12735,0
DA:12736,0
DA:12737,0
DA:12738,0
DA:12739,0
DA:12740,0
DA:12741,0
DA:12742,0
DA:12743,0
DA:12744,0
DA:12745,0
DA:12746,0
DA:12747,0
DA:12748,0
DA:12749,0
DA:12751,0
DA:12753,0
DA:12754,0
DA:12755,0
DA:12756,0
DA:12757,0
DA:12758,0
DA:12759,0
DA:12760,0
DA:12761,0
DA:12762,0
DA:12763,0
DA:12764,0
DA:12765,0
DA:12766,0
DA:12767,0
DA:12768,0
DA:12769,0
DA:12770,0
DA:12771,0
DA:12772,0
DA:12773,0
DA:12774,0
DA:12775,0
DA:12776,0
DA:12777,0
DA:12778,0
DA:12779,0
DA:12780,0
DA:12781,0
DA:12782,0
DA:12784,0
DA:12785,0
DA:12786,0
DA:12787,0
DA:12788,0
DA:12789,0
DA:12790,0
DA:12791,0
DA:12792,0
DA:12793,0
DA:12794,0
DA:12795,0
DA:12796,0
DA:12797,0
DA:12798,0
DA:12799,0
DA:12800,0
DA:12801,0
DA:12802,0
DA:12803,0
DA:12804,0
DA:12805,0
DA:12806,0
DA:12807,0
DA:12808,0
DA:12809,0
DA:12810,0
DA:12811,0
DA:12812,0
DA:12815,0
DA:12817,0
DA:12818,0
DA:12819,0
DA:12820,0
DA:12821,0
DA:12822,0
DA:12823,0
DA:12824,0
DA:12825,0
DA:12826,0
DA:12827,0
DA:12828,0
DA:12830,0
DA:12831,0
DA:12832,0
DA:12833,0
DA:12835,0
DA:12836,0
DA:12837,0
DA:12838,0
DA:12840,0
DA:12841,0
DA:12842,0
DA:12843,0
DA:12844,0
DA:12845,0
DA:12847,0
DA:12848,0
DA:12849,0
DA:12850,0
DA:12851,0
DA:12852,0
DA:12854,0
DA:12855,0
DA:12856,0
DA:12858,0
DA:12859,0
DA:12861,0
DA:12862,0
DA:12863,0
DA:12864,0
DA:12869,0
DA:12870,0
DA:12871,0
DA:12874,0
DA:12876,0
DA:12877,0
DA:12878,0
DA:12879,0
DA:12881,0
DA:12884,0
DA:12885,0
DA:12886,0
DA:12887,0
DA:12888,0
DA:12889,0
DA:12892,0
DA:12893,0
DA:12894,0
DA:12895,0
DA:12896,0
DA:12897,0
DA:12898,0
DA:12899,0
DA:12900,0
DA:12901,0
DA:12902,0
DA:12903,0
DA:12905,0
DA:12912,0
DA:12913,0
DA:12914,0
DA:12915,0
DA:12916,0
DA:12917,0
DA:12918,0
DA:12919,0
DA:12920,0
DA:12921,0
DA:12922,0
DA:12923,0
DA:12924,0
DA:12925,0
DA:12926,0
DA:12928,0
DA:12929,0
DA:12930,0
DA:12931,0
DA:12933,0
DA:12945,0
DA:12946,0
DA:12947,0
DA:12948,0
DA:12949,0
DA:12950,0
DA:12951,0
DA:12952,0
DA:12953,0
DA:12954,0
DA:12955,0
DA:12956,0
DA:12957,0
DA:12958,0
DA:12959,0
DA:12962,0
DA:12963,0
DA:12964,0
DA:12966,0
DA:12967,0
DA:12968,0
DA:12969,0
DA:12970,0
DA:12971,0
DA:12972,0
DA:12973,0
DA:12974,0
DA:12975,0
DA:12976,0
DA:12979,0
DA:12981,0
DA:12982,0
DA:12983,0
DA:12984,0
DA:12985,0
DA:12986,0
DA:12987,0
DA:12988,0
DA:12989,0
DA:12990,0
DA:12991,0
DA:12992,0
DA:12993,0
DA:12994,0
DA:12995,0
DA:12996,0
DA:12999,0
DA:13000,0
DA:13001,0
DA:13002,0
DA:13003,0
DA:13004,0
DA:13005,0
DA:13006,0
DA:13007,0
DA:13008,0
DA:13009,0
DA:13010,0
DA:13011,0
DA:13012,0
DA:13013,0
DA:13014,0
DA:13015,0
DA:13016,0
DA:13017,0
DA:13018,0
DA:13019,0
DA:13020,0
DA:13021,0
DA:13035,0
DA:13036,0
DA:13037,0
DA:13038,0
DA:13039,0
DA:13041,0
DA:13042,0
DA:13043,0
DA:13045,0
DA:13046,0
DA:13047,0
DA:13048,0
DA:13049,0
DA:13050,0
DA:13052,0
DA:13053,0
DA:13055,0
DA:13056,0
DA:13057,0
DA:13058,0
DA:13059,0
DA:13060,0
DA:13061,0
DA:13062,0
DA:13063,0
DA:13064,0
DA:13065,0
DA:13066,0
DA:13067,0
DA:13068,0
DA:13069,0
DA:13070,0
DA:13071,0
DA:13072,0
DA:13073,0
DA:13074,0
DA:13075,0
DA:13076,0
DA:13077,0
DA:13078,0
DA:13080,0
DA:13094,0
DA:13095,0
DA:13096,0
DA:13097,0
DA:13099,0
DA:13100,0
DA:13101,0
DA:13103,0
DA:13104,0
DA:13105,0
DA:13106,0
DA:13107,0
DA:13108,0
DA:13110,0
DA:13111,0
DA:13112,0
DA:13113,0
DA:13114,0
DA:13115,0
DA:13116,0
DA:13117,0
DA:13118,0
DA:13119,0
DA:13120,0
DA:13121,0
DA:13122,0
DA:13123,0
DA:13124,0
DA:13126,0
DA:13127,0
DA:13128,0
DA:13129,0
DA:13130,0
DA:13131,0
DA:13132,0
DA:13133,0
DA:13134,0
DA:13135,0
DA:13136,0
DA:13137,0
DA:13138,0
DA:13140,0
DA:13141,0
DA:13142,0
DA:13143,0
DA:13144,0
DA:13146,0
DA:13153,0
DA:13155,0
DA:13156,0
DA:13157,0
DA:13158,0
DA:13159,0
DA:13160,0
DA:13162,0
DA:13163,0
DA:13164,0
DA:13165,0
DA:13166,0
DA:13167,0
DA:13169,0
DA:13170,0
DA:13182,0
DA:13196,0
DA:13197,0
DA:13204,0
DA:13205,0
DA:13206,0
DA:13207,0
DA:13208,0
DA:13209,0
DA:13212,0
DA:13213,0
DA:13214,0
DA:13215,0
DA:13216,0
DA:13217,0
DA:13220,0
DA:13221,0
DA:13222,0
DA:13223,0
DA:13224,0
DA:13225,0
DA:13226,0
DA:13227,0
DA:13228,0
DA:13230,0
DA:13231,0
DA:13234,0
DA:13235,0
DA:13236,0
DA:13237,0
DA:13238,0
DA:13240,0
DA:13241,0
DA:13242,0
DA:13243,0
DA:13244,0
DA:13245,0
DA:13246,0
DA:13247,0
DA:13248,0
DA:13251,0
DA:13252,0
DA:13253,0
DA:13254,0
DA:13255,0
DA:13259,0
DA:13260,0
DA:13261,0
DA:13264,0
DA:13265,0
DA:13266,0
DA:13267,0
DA:13268,0
DA:13269,0
DA:13270,0
DA:13271,0
DA:13272,0
DA:13273,0
DA:13274,0
DA:13276,0
DA:13279,0
DA:13280,0
DA:13281,0
DA:13282,0
DA:13283,0
DA:13286,0
DA:13287,0
DA:13288,0
DA:13289,0
DA:13290,0
DA:13291,0
DA:13293,0
DA:13294,0
DA:13295,0
DA:13297,0
DA:13298,0
DA:13301,0
DA:13302,0
DA:13303,0
DA:13304,0
DA:13305,0
DA:13306,0
DA:13307,0
DA:13308,0
DA:13309,0
DA:13310,0
DA:13311,0
DA:13312,0
DA:13313,0
DA:13315,0
DA:13316,0
DA:13317,0
DA:13319,0
DA:13320,0
DA:13322,0
DA:13326,0
DA:13327,0
DA:13328,0
DA:13330,0
DA:13331,0
DA:13332,0
DA:13333,0
DA:13335,0
DA:13338,0
DA:13340,0
DA:13341,0
DA:13342,0
DA:13343,0
DA:13345,0
DA:13346,0
DA:13347,0
DA:13349,0
DA:13350,0
DA:13351,0
DA:13353,0
DA:13354,0
DA:13361,0
DA:13362,0
DA:13363,0
DA:13364,0
DA:13365,0
DA:13366,0
DA:13368,0
DA:13372,0
DA:13373,0
DA:13376,0
DA:13377,0
DA:13378,0
DA:13379,0
DA:13380,0
DA:13382,0
DA:13383,0
DA:13386,0
DA:13387,0
DA:13388,0
DA:13389,0
DA:13390,0
DA:13392,0
DA:13394,0
DA:13395,0
DA:13396,0
DA:13397,0
DA:13401,0
DA:13402,0
DA:13403,0
DA:13406,0
DA:13407,0
DA:13408,0
DA:13409,0
DA:13410,0
DA:13411,0
DA:13412,0
DA:13413,0
DA:13414,0
DA:13415,0
DA:13416,0
DA:13417,0
DA:13418,0
DA:13422,0
DA:13423,0
DA:13424,0
DA:13425,0
DA:13427,0
DA:13429,0
DA:13430,0
DA:13431,0
DA:13432,0
DA:13433,0
DA:13435,0
DA:13436,0
DA:13439,0
DA:13440,0
DA:13441,0
DA:13443,0
DA:13444,0
DA:13445,0
DA:13446,0
DA:13447,0
DA:13448,0
DA:13449,0
DA:13450,0
DA:13451,0
DA:13452,0
DA:13453,0
DA:13455,0
DA:13457,0
DA:13459,0
DA:13462,0
DA:13463,0
DA:13464,0
DA:13465,0
DA:13466,0
DA:13467,0
DA:13468,0
DA:13469,0
DA:13470,0
DA:13475,0
DA:13476,0
DA:13477,0
DA:13479,0
DA:13480,0
DA:13481,0
DA:13482,0
DA:13483,0
DA:13485,0
DA:13486,0
DA:13488,0
DA:13491,0
DA:13492,0
DA:13496,0
DA:13497,0
DA:13498,0
DA:13499,0
DA:13501,0
DA:13504,0
DA:13505,0
DA:13506,0
DA:13507,0
DA:13508,0
DA:13509,0
DA:13510,0
DA:13511,0
DA:13513,0
DA:13516,0
DA:13517,0
DA:13518,0
DA:13520,0
DA:13521,0
DA:13522,0
DA:13523,0
DA:13527,0
DA:13528,0
DA:13529,0
DA:13530,0
DA:13531,0
DA:13532,0
DA:13535,0
DA:13536,0
DA:13537,0
DA:13538,0
DA:13539,0
DA:13540,0
DA:13546,0
DA:13547,0
DA:13548,0
DA:13549,0
DA:13550,0
DA:13551,0
DA:13552,0
DA:13553,0
DA:13554,0
DA:13557,0
DA:13558,0
DA:13560,0
DA:13561,0
DA:13562,0
DA:13563,0
DA:13567,0
DA:13568,0
DA:13569,0
DA:13570,0
DA:13572,0
DA:13573,0
DA:13574,0
DA:13575,0
DA:13576,0
DA:13579,0
DA:13586,0
DA:13589,0
DA:13591,0
DA:13592,0
DA:13593,0
DA:13594,0
DA:13595,0
DA:13596,0
DA:13597,0
DA:13599,0
DA:13601,0
DA:13604,0
DA:13605,0
DA:13606,0
DA:13607,0
DA:13608,0
DA:13609,0
DA:13610,0
DA:13611,0
DA:13612,0
DA:13613,0
DA:13616,0
DA:13617,0
DA:13618,0
DA:13619,0
DA:13620,0
DA:13621,0
DA:13622,0
DA:13623,0
DA:13624,0
DA:13625,0
DA:13626,0
DA:13627,0
DA:13628,0
DA:13630,0
DA:13631,0
DA:13638,0
DA:13639,0
DA:13640,0
DA:13641,0
DA:13642,0
DA:13643,0
DA:13653,0
DA:13656,0
DA:13657,0
DA:13658,0
DA:13659,0
DA:13662,0
DA:13663,0
DA:13664,0
DA:13665,0
DA:13666,0
DA:13667,0
DA:13668,0
DA:13670,0
DA:13671,0
DA:13672,0
DA:13673,0
DA:13680,0
DA:13681,0
DA:13682,0
DA:13684,0
DA:13685,0
DA:13687,0
DA:13688,0
DA:13689,0
DA:13690,0
DA:13691,0
DA:13693,0
DA:13694,0
DA:13695,0
DA:13697,0
DA:13699,0
DA:13703,0
DA:13704,0
DA:13706,0
DA:13708,0
DA:13711,0
DA:13714,0
DA:13723,0
DA:13724,0
DA:13725,0
DA:13726,0
DA:13727,0
DA:13728,0
DA:13729,0
DA:13731,0
DA:13734,0
DA:13735,0
DA:13736,0
DA:13737,0
DA:13738,0
DA:13739,0
DA:13740,0
DA:13741,0
DA:13743,0
DA:13744,0
DA:13745,0
DA:13748,0
DA:13751,0
DA:13752,0
DA:13753,0
DA:13754,0
DA:13755,0
DA:13756,0
DA:13757,0
DA:13758,0
DA:13760,0
DA:13761,0
DA:13768,0
DA:13775,0
DA:13776,0
DA:13783,0
DA:13784,0
DA:13785,0
DA:13786,0
DA:13787,0
DA:13788,0
DA:13789,0
DA:13790,0
DA:13792,0
DA:13793,0
DA:13796,0
DA:13797,0
DA:13799,0
DA:13801,0
DA:13802,0
DA:13804,0
DA:13805,0
DA:13808,0
DA:13809,0
DA:13813,0
DA:13814,0
DA:13815,0
DA:13818,0
DA:13821,0
DA:13822,0
DA:13826,0
DA:13827,0
DA:13828,0
DA:13829,0
DA:13830,0
DA:13831,0
DA:13832,0
DA:13836,0
DA:13837,0
DA:13842,0
DA:13843,0
DA:13845,0
DA:13852,0
DA:13854,0
DA:13855,0
DA:13856,0
DA:13857,0
DA:13858,0
DA:13859,0
DA:13860,0
DA:13861,0
DA:13862,0
DA:13863,0
DA:13864,0
DA:13865,0
DA:13866,0
DA:13867,0
DA:13868,0
DA:13869,0
DA:13870,0
DA:13871,0
DA:13873,0
DA:13874,0
DA:13875,0
DA:13876,0
DA:13877,0
DA:13880,0
DA:13881,0
DA:13882,0
DA:13883,0
DA:13884,0
DA:13885,0
DA:13886,0
DA:13887,0
DA:13888,0
DA:13889,0
DA:13892,0
DA:13893,0
DA:13894,0
DA:13900,0
DA:13901,0
DA:13902,0
DA:13903,0
DA:13905,0
DA:13906,0
DA:13908,0
DA:13909,0
DA:13910,0
DA:13912,0
DA:13913,0
DA:13917,0
DA:13918,0
DA:13919,0
DA:13920,0
DA:13921,0
DA:13922,0
DA:13925,0
DA:13926,0
DA:13927,0
DA:13928,0
DA:13929,0
DA:13930,0
DA:13931,0
DA:13932,0
DA:13933,0
DA:13936,0
DA:13937,0
DA:13938,0
DA:13942,0
DA:13943,0
DA:13944,0
DA:13945,0
DA:13946,0
DA:13947,0
DA:13958,0
DA:13959,0
DA:13960,0
DA:13961,0
DA:13962,0
DA:13963,0
DA:13964,0
DA:13969,0
DA:13970,0
DA:13971,0
DA:13972,0
DA:13973,0
DA:13974,0
DA:13978,0
DA:13979,0
DA:13980,0
DA:13981,0
DA:13982,0
DA:13983,0
DA:13984,0
DA:13985,0
DA:13986,0
DA:13987,0
DA:13988,0
DA:13989,0
DA:13991,0
DA:13992,0
DA:13993,0
DA:13994,0
DA:13995,0
DA:13996,0
DA:13997,0
DA:14001,0
DA:14002,0
DA:14005,0
DA:14006,0
DA:14007,0
DA:14008,0
DA:14009,0
DA:14010,0
DA:14011,0
DA:14012,0
DA:14018,0
DA:14019,0
DA:14020,0
DA:14021,0
DA:14022,0
DA:14023,0
DA:14025,0
DA:14026,0
DA:14027,0
DA:14028,0
DA:14029,0
DA:14030,0
DA:14032,0
DA:14033,0
DA:14034,0
DA:14035,0
DA:14036,0
DA:14037,0
DA:14038,0
DA:14039,0
DA:14040,0
DA:14041,0
DA:14042,0
DA:14046,0
DA:14047,0
DA:14048,0
DA:14049,0
DA:14052,0
DA:14060,0
DA:14061,0
DA:14062,0
DA:14063,0
DA:14064,0
DA:14065,0
DA:14066,0
DA:14067,0
DA:14068,0
DA:14071,0
DA:14072,0
DA:14073,0
DA:14074,0
DA:14076,0
DA:14077,0
DA:14078,0
DA:14079,0
DA:14080,0
DA:14081,0
DA:14085,0
DA:14086,0
DA:14087,0
DA:14088,0
DA:14089,0
DA:14091,0
DA:14092,0
DA:14093,0
DA:14098,0
DA:14099,0
DA:14100,0
DA:14101,0
DA:14102,0
DA:14104,0
DA:14105,0
DA:14106,0
DA:14107,0
DA:14108,0
DA:14109,0
DA:14110,0
DA:14112,0
DA:14113,0
DA:14115,0
DA:14118,0
DA:14119,0
DA:14120,0
DA:14121,0
DA:14122,0
DA:14123,0
DA:14126,0
DA:14129,0
DA:14130,0
DA:14131,0
DA:14132,0
DA:14133,0
DA:14134,0
DA:14135,0
DA:14136,0
DA:14137,0
DA:14138,0
DA:14139,0
DA:14141,0
DA:14142,0
DA:14146,0
DA:14147,0
DA:14148,0
DA:14149,0
DA:14150,0
DA:14151,0
DA:14152,0
DA:14153,0
DA:14157,0
DA:14159,0
DA:14160,0
DA:14163,0
DA:14164,0
DA:14165,0
DA:14167,0
DA:14168,0
DA:14172,0
DA:14173,0
DA:14174,0
DA:14175,0
DA:14176,0
DA:14177,0
DA:14179,0
DA:14180,0
DA:14185,0
DA:14186,0
DA:14187,0
DA:14188,0
DA:14190,0
DA:14193,0
DA:14194,0
DA:14200,0
DA:14203,0
DA:14204,0
DA:14209,0
DA:14210,0
DA:14211,0
DA:14212,0
DA:14213,0
DA:14214,0
DA:14215,0
DA:14216,0
DA:14217,0
DA:14218,0
DA:14219,0
DA:14220,0
DA:14221,0
DA:14225,0
DA:14226,0
DA:14232,0
DA:14233,0
DA:14235,0
DA:14236,0
DA:14237,0
DA:14238,0
DA:14239,0
DA:14245,0
DA:14253,0
DA:14254,0
DA:14255,0
DA:14257,0
DA:14258,0
DA:14259,0
DA:14260,0
DA:14261,0
DA:14262,0
DA:14263,0
DA:14264,0
DA:14265,0
DA:14266,0
DA:14267,0
DA:14268,0
DA:14269,0
DA:14275,0
DA:14276,0
DA:14281,0
DA:14282,0
DA:14283,0
DA:14284,0
DA:14285,0
DA:14286,0
DA:14287,0
DA:14288,0
DA:14289,0
DA:14291,0
DA:14292,0
DA:14293,0
DA:14294,0
DA:14295,0
DA:14296,0
DA:14299,0
DA:14300,0
DA:14301,0
DA:14302,0
DA:14303,0
DA:14304,0
DA:14305,0
DA:14307,0
DA:14308,0
DA:14311,0
DA:14312,0
DA:14313,0
DA:14314,0
DA:14315,0
DA:14316,0
DA:14317,0
DA:14319,0
DA:14321,0
DA:14322,0
DA:14323,0
DA:14324,0
DA:14325,0
DA:14326,0
DA:14327,0
DA:14328,0
DA:14329,0
DA:14330,0
DA:14331,0
DA:14332,0
DA:14333,0
DA:14334,0
DA:14335,0
DA:14336,0
DA:14339,0
DA:14340,0
DA:14341,0
DA:14344,0
DA:14345,0
DA:14346,0
DA:14347,0
DA:14348,0
DA:14351,0
DA:14352,0
DA:14353,0
DA:14354,0
DA:14355,0
DA:14356,0
DA:14357,0
DA:14358,0
DA:14360,0
DA:14364,0
DA:14365,0
DA:14366,0
DA:14367,0
DA:14369,0
DA:14370,0
DA:14371,0
DA:14372,0
DA:14373,0
DA:14374,0
DA:14375,0
DA:14376,0
DA:14377,0
DA:14378,0
DA:14379,0
DA:14380,0
DA:14381,0
DA:14384,0
DA:14385,0
DA:14386,0
DA:14387,0
DA:14388,0
DA:14390,0
DA:14391,0
DA:14392,0
DA:14393,0
DA:14397,0
DA:14399,0
DA:14400,0
DA:14401,0
DA:14402,0
DA:14403,0
DA:14404,0
DA:14406,0
DA:14407,0
DA:14408,0
DA:14409,0
DA:14411,0
DA:14412,0
DA:14413,0
DA:14414,0
DA:14415,0
DA:14416,0
DA:14417,0
DA:14418,0
DA:14423,0
DA:14424,0
DA:14429,0
DA:14430,0
DA:14431,0
DA:14432,0
DA:14433,0
DA:14434,0
DA:14435,0
DA:14436,0
DA:14437,0
DA:14438,0
DA:14439,0
DA:14440,0
DA:14442,0
DA:14443,0
DA:14444,0
DA:14445,0
DA:14446,0
DA:14447,0
DA:14449,0
DA:14450,0
DA:14451,0
DA:14452,0
DA:14453,0
DA:14454,0
DA:14456,0
DA:14458,0
DA:14460,0
DA:14461,0
DA:14462,0
DA:14463,0
DA:14464,0
DA:14465,0
DA:14466,0
DA:14467,0
DA:14468,0
DA:14469,0
DA:14470,0
DA:14473,0
DA:14474,0
DA:14475,0
DA:14476,0
DA:14477,0
DA:14478,0
DA:14480,0
DA:14482,0
DA:14483,0
DA:14484,0
DA:14485,0
DA:14486,0
DA:14487,0
DA:14488,0
DA:14489,0
DA:14490,0
DA:14492,0
DA:14495,0
DA:14497,0
DA:14500,0
DA:14501,0
DA:14502,0
DA:14503,0
DA:14504,0
DA:14505,0
DA:14507,0
DA:14514,0
DA:14515,0
DA:14516,0
DA:14517,0
DA:14518,0
DA:14519,0
DA:14521,0
DA:14522,0
DA:14527,0
DA:14528,0
DA:14529,0
DA:14531,0
DA:14532,0
DA:14538,0
DA:14541,0
DA:14545,0
DA:14550,0
DA:14551,0
DA:14557,0
DA:14558,0
DA:14560,0
DA:14561,0
BRF:0
BRH:0
LF:9977
LH:0
end_of_record
SF:/Users/davidirvine/Desktop/Devel/projects/x0x/src/bootstrap.rs
FN:127,_RNCNCNCNvMs_NtCsfB8W1BOG4Wp_3x0x9bootstrapNtBa_18BootstrapConnector16connect_multiple000Bc_
FN:124,_RNCNCNvMs_NtCsfB8W1BOG4Wp_3x0x9bootstrapNtB8_18BootstrapConnector16connect_multiple00Ba_
FN:140,_RNCNCNvMs_NtCsfB8W1BOG4Wp_3x0x9bootstrapNtB8_18BootstrapConnector16connect_multiple0s_0Ba_
FN:121,_RNCNvMs_NtCsfB8W1BOG4Wp_3x0x9bootstrapNtB6_18BootstrapConnector16connect_multiple0B8_
FN:80,_RNCNvMs_NtCsfB8W1BOG4Wp_3x0x9bootstrapNtB6_18BootstrapConnector18connect_with_retry0B8_
FN:58,_RNvMs_NtCsfB8W1BOG4Wp_3x0x9bootstrapNtB4_18BootstrapConnector11with_config
FN:121,_RNvMs_NtCsfB8W1BOG4Wp_3x0x9bootstrapNtB4_18BootstrapConnector16connect_multiple
FN:76,_RNvMs_NtCsfB8W1BOG4Wp_3x0x9bootstrapNtB4_18BootstrapConnector18connect_with_retry
FN:47,_RNvMs_NtCsfB8W1BOG4Wp_3x0x9bootstrapNtB4_18BootstrapConnector3new
FN:28,_RNvXNtCsfB8W1BOG4Wp_3x0x9bootstrapNtB2_15BootstrapConfigNtNtCsl8K0bEFm1U0_4core7default7Default7default
FN:146,_RNvXs0_NtCsfB8W1BOG4Wp_3x0x9bootstrapNtB5_18BootstrapConnectorNtNtCsl8K0bEFm1U0_4core7default7Default7default
FN:127,_RNCNCNCNvMs_NtCs6t3ktUJwJ8n_3x0x9bootstrapNtBa_18BootstrapConnector16connect_multiple000Bc_
FN:124,_RNCNCNvMs_NtCs6t3ktUJwJ8n_3x0x9bootstrapNtB8_18BootstrapConnector16connect_multiple00Ba_
FN:140,_RNCNCNvMs_NtCs6t3ktUJwJ8n_3x0x9bootstrapNtB8_18BootstrapConnector16connect_multiple0s_0Ba_
FN:121,_RNCNvMs_NtCs6t3ktUJwJ8n_3x0x9bootstrapNtB6_18BootstrapConnector16connect_multiple0B8_
FN:80,_RNCNvMs_NtCs6t3ktUJwJ8n_3x0x9bootstrapNtB6_18BootstrapConnector18connect_with_retry0B8_
FN:121,_RNvMs_NtCs6t3ktUJwJ8n_3x0x9bootstrapNtB4_18BootstrapConnector16connect_multiple
FN:76,_RNvMs_NtCs6t3ktUJwJ8n_3x0x9bootstrapNtB4_18BootstrapConnector18connect_with_retry
FN:58,_RNvMs_NtCs6t3ktUJwJ8n_3x0x9bootstrapNtB4_18BootstrapConnector11with_config
FN:47,_RNvMs_NtCs6t3ktUJwJ8n_3x0x9bootstrapNtB4_18BootstrapConnector3new
FN:28,_RNvXNtCs6t3ktUJwJ8n_3x0x9bootstrapNtB2_15BootstrapConfigNtNtCsl8K0bEFm1U0_4core7default7Default7default
FN:146,_RNvXs0_NtCs6t3ktUJwJ8n_3x0x9bootstrapNtB5_18BootstrapConnectorNtNtCsl8K0bEFm1U0_4core7default7Default7default
FN:226,_RNvNtNtCs6t3ktUJwJ8n_3x0x9bootstrap5testss_25test_max_backoff_clamping
FN:165,_RNvNtNtCs6t3ktUJwJ8n_3x0x9bootstrap5testss_28test_bootstrap_config_custom
FN:177,_RNvNtNtCs6t3ktUJwJ8n_3x0x9bootstrap5testss_28test_bootstrap_connector_new
FN:156,_RNvNtNtCs6t3ktUJwJ8n_3x0x9bootstrap5testss_29test_bootstrap_config_default
FN:195,_RNvNtNtCs6t3ktUJwJ8n_3x0x9bootstrap5testss_32test_bootstrap_connector_default
FN:183,_RNvNtNtCs6t3ktUJwJ8n_3x0x9bootstrap5testss_36test_bootstrap_connector_with_config
FN:201,_RNvNtNtCs6t3ktUJwJ8n_3x0x9bootstrap5testss_36test_exponential_backoff_calculation
FNDA:0,_RNCNCNCNvMs_NtCsfB8W1BOG4Wp_3x0x9bootstrapNtBa_18BootstrapConnector16connect_multiple000Bc_
FNDA:0,_RNCNCNvMs_NtCsfB8W1BOG4Wp_3x0x9bootstrapNtB8_18BootstrapConnector16connect_multiple00Ba_
FNDA:0,_RNCNCNvMs_NtCsfB8W1BOG4Wp_3x0x9bootstrapNtB8_18BootstrapConnector16connect_multiple0s_0Ba_
FNDA:0,_RNCNvMs_NtCsfB8W1BOG4Wp_3x0x9bootstrapNtB6_18BootstrapConnector16connect_multiple0B8_
FNDA:0,_RNCNvMs_NtCsfB8W1BOG4Wp_3x0x9bootstrapNtB6_18BootstrapConnector18connect_with_retry0B8_
FNDA:0,_RNvMs_NtCsfB8W1BOG4Wp_3x0x9bootstrapNtB4_18BootstrapConnector11with_config
FNDA:0,_RNvMs_NtCsfB8W1BOG4Wp_3x0x9bootstrapNtB4_18BootstrapConnector16connect_multiple
FNDA:0,_RNvMs_NtCsfB8W1BOG4Wp_3x0x9bootstrapNtB4_18BootstrapConnector18connect_with_retry
FNDA:0,_RNvMs_NtCsfB8W1BOG4Wp_3x0x9bootstrapNtB4_18BootstrapConnector3new
FNDA:0,_RNvXNtCsfB8W1BOG4Wp_3x0x9bootstrapNtB2_15BootstrapConfigNtNtCsl8K0bEFm1U0_4core7default7Default7default
FNDA:0,_RNvXs0_NtCsfB8W1BOG4Wp_3x0x9bootstrapNtB5_18BootstrapConnectorNtNtCsl8K0bEFm1U0_4core7default7Default7default
FNDA:0,_RNCNCNCNvMs_NtCs6t3ktUJwJ8n_3x0x9bootstrapNtBa_18BootstrapConnector16connect_multiple000Bc_
FNDA:0,_RNCNCNvMs_NtCs6t3ktUJwJ8n_3x0x9bootstrapNtB8_18BootstrapConnector16connect_multiple00Ba_
FNDA:0,_RNCNCNvMs_NtCs6t3ktUJwJ8n_3x0x9bootstrapNtB8_18BootstrapConnector16connect_multiple0s_0Ba_
FNDA:0,_RNCNvMs_NtCs6t3ktUJwJ8n_3x0x9bootstrapNtB6_18BootstrapConnector16connect_multiple0B8_
FNDA:0,_RNCNvMs_NtCs6t3ktUJwJ8n_3x0x9bootstrapNtB6_18BootstrapConnector18connect_with_retry0B8_
FNDA:0,_RNvMs_NtCs6t3ktUJwJ8n_3x0x9bootstrapNtB4_18BootstrapConnector16connect_multiple
FNDA:0,_RNvMs_NtCs6t3ktUJwJ8n_3x0x9bootstrapNtB4_18BootstrapConnector18connect_with_retry
FNDA:1,_RNvMs_NtCs6t3ktUJwJ8n_3x0x9bootstrapNtB4_18BootstrapConnector11with_config
FNDA:2,_RNvMs_NtCs6t3ktUJwJ8n_3x0x9bootstrapNtB4_18BootstrapConnector3new
FNDA:3,_RNvXNtCs6t3ktUJwJ8n_3x0x9bootstrapNtB2_15BootstrapConfigNtNtCsl8K0bEFm1U0_4core7default7Default7default
FNDA:1,_RNvXs0_NtCs6t3ktUJwJ8n_3x0x9bootstrapNtB5_18BootstrapConnectorNtNtCsl8K0bEFm1U0_4core7default7Default7default
FNDA:1,_RNvNtNtCs6t3ktUJwJ8n_3x0x9bootstrap5testss_25test_max_backoff_clamping
FNDA:1,_RNvNtNtCs6t3ktUJwJ8n_3x0x9bootstrap5testss_28test_bootstrap_config_custom
FNDA:1,_RNvNtNtCs6t3ktUJwJ8n_3x0x9bootstrap5testss_28test_bootstrap_connector_new
FNDA:1,_RNvNtNtCs6t3ktUJwJ8n_3x0x9bootstrap5testss_29test_bootstrap_config_default
FNDA:1,_RNvNtNtCs6t3ktUJwJ8n_3x0x9bootstrap5testss_32test_bootstrap_connector_default
FNDA:1,_RNvNtNtCs6t3ktUJwJ8n_3x0x9bootstrap5testss_36test_bootstrap_connector_with_config
FNDA:1,_RNvNtNtCs6t3ktUJwJ8n_3x0x9bootstrap5testss_36test_exponential_backoff_calculation
FNF:18
FNH:11
DA:28,3
DA:29,3
DA:30,3
DA:31,3
DA:32,3
DA:33,3
DA:34,3
DA:35,3
DA:47,2
DA:48,2
DA:49,2
DA:50,2
DA:51,2
DA:58,1
DA:59,1
DA:60,1
DA:76,0
DA:77,0
DA:78,0
DA:79,0
DA:80,0
DA:81,0
DA:82,0
DA:85,0
DA:86,0
DA:87,0
DA:89,0
DA:90,0
DA:91,0
DA:92,0
DA:93,0
DA:94,0
DA:95,0
DA:96,0
DA:99,0
DA:100,0
DA:101,0
DA:102,0
DA:103,0
DA:104,0
DA:105,0
DA:109,0
DA:121,0
DA:122,0
DA:123,0
DA:124,0
DA:125,0
DA:126,0
DA:127,0
DA:128,0
DA:129,0
DA:130,0
DA:131,0
DA:132,0
DA:133,0
DA:134,0
DA:135,0
DA:137,0
DA:138,0
DA:139,0
DA:140,0
DA:141,0
DA:142,0
DA:146,1
DA:147,1
DA:148,1
DA:156,1
DA:157,1
DA:158,1
DA:159,1
DA:160,1
DA:161,1
DA:162,1
DA:165,1
DA:166,1
DA:167,1
DA:168,1
DA:169,1
DA:170,1
DA:171,1
DA:172,1
DA:173,1
DA:174,1
DA:177,1
DA:178,1
DA:179,1
DA:180,1
DA:183,1
DA:184,1
DA:185,1
DA:186,1
DA:187,1
DA:188,1
DA:189,1
DA:190,1
DA:191,1
DA:192,1
DA:195,1
DA:196,1
DA:197,1
DA:198,1
DA:201,1
DA:202,1
DA:203,1
DA:204,1
DA:205,1
DA:206,1
DA:207,1
DA:209,1
DA:210,1
DA:213,1
DA:214,1
DA:217,1
DA:218,1
DA:221,1
DA:222,1
DA:223,1
DA:226,1
DA:227,1
DA:228,1
DA:229,1
DA:230,1
DA:231,1
DA:232,1
DA:234,1
DA:237,5
DA:238,5
DA:239,5
DA:240,5
DA:241,5
DA:242,5
DA:245,1
DA:246,1
BRF:0
BRH:0
LF:138
LH:86
end_of_record
SF:/Users/davidirvine/Desktop/Devel/projects/x0x/src/cli/commands/connect.rs
FN:40,_RNCNCNvNtNtNtCsfB8W1BOG4Wp_3x0x3cli8commands7connect7connect00Bb_
FN:45,_RNCNCNvNtNtNtCsfB8W1BOG4Wp_3x0x3cli8commands7connect7connect0s0_0Bb_
FN:66,_RNCNCNvNtNtNtCsfB8W1BOG4Wp_3x0x3cli8commands7connect7connect0s1_0Bb_
FN:43,_RNCNCNvNtNtNtCsfB8W1BOG4Wp_3x0x3cli8commands7connect7connect0s_0Bb_
FN:8,_RNCNvNtNtNtCsfB8W1BOG4Wp_3x0x3cli8commands7connect7connect0B9_
FN:8,_RNvNtNtNtCsfB8W1BOG4Wp_3x0x3cli8commands7connect7connect
FN:40,_RNCNCNvNtNtNtCs6t3ktUJwJ8n_3x0x3cli8commands7connect7connect00Bb_
FN:45,_RNCNCNvNtNtNtCs6t3ktUJwJ8n_3x0x3cli8commands7connect7connect0s0_0Bb_
FN:66,_RNCNCNvNtNtNtCs6t3ktUJwJ8n_3x0x3cli8commands7connect7connect0s1_0Bb_
FN:43,_RNCNCNvNtNtNtCs6t3ktUJwJ8n_3x0x3cli8commands7connect7connect0s_0Bb_
FN:8,_RNCNvNtNtNtCs6t3ktUJwJ8n_3x0x3cli8commands7connect7connect0B9_
FN:93,_RNCNCNCNvNtNtNtNtCs6t3ktUJwJ8n_3x0x3cli8commands7connect5tests17start_mock_server000Bf_
FN:109,_RNCNCNCNvNtNtNtNtCs6t3ktUJwJ8n_3x0x3cli8commands7connect5tests17start_mock_server0s_00Bf_
FN:91,_RNCNCNvNtNtNtNtCs6t3ktUJwJ8n_3x0x3cli8commands7connect5tests17start_mock_server00Bd_
FN:107,_RNCNCNvNtNtNtNtCs6t3ktUJwJ8n_3x0x3cli8commands7connect5tests17start_mock_server0s_0Bd_
FN:87,_RNCNvNtNtNtNtCs6t3ktUJwJ8n_3x0x3cli8commands7connect5tests17start_mock_server0Bb_
FN:132,_RNCNvNtNtNtNtCs6t3ktUJwJ8n_3x0x3cli8commands7connect5testss_26connect_rejects_zero_words0Bb_
FN:120,_RNCNvNtNtNtNtCs6t3ktUJwJ8n_3x0x3cli8commands7connect5testss_32connect_rejects_wrong_word_count0Bb_
FN:87,_RNvNtNtNtNtCs6t3ktUJwJ8n_3x0x3cli8commands7connect5tests17start_mock_server
FN:132,_RNvNtNtNtNtCs6t3ktUJwJ8n_3x0x3cli8commands7connect5testss_26connect_rejects_zero_words
FN:120,_RNvNtNtNtNtCs6t3ktUJwJ8n_3x0x3cli8commands7connect5testss_32connect_rejects_wrong_word_count
FN:8,_RNvNtNtNtCs6t3ktUJwJ8n_3x0x3cli8commands7connect7connect
FNDA:0,_RNCNCNvNtNtNtCsfB8W1BOG4Wp_3x0x3cli8commands7connect7connect00Bb_
FNDA:0,_RNCNCNvNtNtNtCsfB8W1BOG4Wp_3x0x3cli8commands7connect7connect0s0_0Bb_
FNDA:0,_RNCNCNvNtNtNtCsfB8W1BOG4Wp_3x0x3cli8commands7connect7connect0s1_0Bb_
FNDA:0,_RNCNCNvNtNtNtCsfB8W1BOG4Wp_3x0x3cli8commands7connect7connect0s_0Bb_
FNDA:0,_RNCNvNtNtNtCsfB8W1BOG4Wp_3x0x3cli8commands7connect7connect0B9_
FNDA:0,_RNvNtNtNtCsfB8W1BOG4Wp_3x0x3cli8commands7connect7connect
FNDA:0,_RNCNCNvNtNtNtCs6t3ktUJwJ8n_3x0x3cli8commands7connect7connect00Bb_
FNDA:0,_RNCNCNvNtNtNtCs6t3ktUJwJ8n_3x0x3cli8commands7connect7connect0s0_0Bb_
FNDA:0,_RNCNCNvNtNtNtCs6t3ktUJwJ8n_3x0x3cli8commands7connect7connect0s1_0Bb_
FNDA:0,_RNCNCNvNtNtNtCs6t3ktUJwJ8n_3x0x3cli8commands7connect7connect0s_0Bb_
FNDA:2,_RNCNvNtNtNtCs6t3ktUJwJ8n_3x0x3cli8commands7connect7connect0B9_
FNDA:0,_RNCNCNCNvNtNtNtNtCs6t3ktUJwJ8n_3x0x3cli8commands7connect5tests17start_mock_server000Bf_
FNDA:2,_RNCNCNCNvNtNtNtNtCs6t3ktUJwJ8n_3x0x3cli8commands7connect5tests17start_mock_server0s_00Bf_
FNDA:0,_RNCNCNvNtNtNtNtCs6t3ktUJwJ8n_3x0x3cli8commands7connect5tests17start_mock_server00Bd_
FNDA:2,_RNCNCNvNtNtNtNtCs6t3ktUJwJ8n_3x0x3cli8commands7connect5tests17start_mock_server0s_0Bd_
FNDA:2,_RNCNvNtNtNtNtCs6t3ktUJwJ8n_3x0x3cli8commands7connect5tests17start_mock_server0Bb_
FNDA:1,_RNCNvNtNtNtNtCs6t3ktUJwJ8n_3x0x3cli8commands7connect5testss_26connect_rejects_zero_words0Bb_
FNDA:1,_RNCNvNtNtNtNtCs6t3ktUJwJ8n_3x0x3cli8commands7connect5testss_32connect_rejects_wrong_word_count0Bb_
FNDA:2,_RNvNtNtNtNtCs6t3ktUJwJ8n_3x0x3cli8commands7connect5tests17start_mock_server
FNDA:1,_RNvNtNtNtNtCs6t3ktUJwJ8n_3x0x3cli8commands7connect5testss_26connect_rejects_zero_words
FNDA:1,_RNvNtNtNtNtCs6t3ktUJwJ8n_3x0x3cli8commands7connect5testss_32connect_rejects_wrong_word_count
FNDA:2,_RNvNtNtNtCs6t3ktUJwJ8n_3x0x3cli8commands7connect7connect
FNF:16
FNH:10
DA:8,2
DA:9,2
DA:10,2
DA:12,2
DA:14,0
DA:16,0
DA:18,0
DA:19,0
DA:21,0
DA:22,0
DA:23,0
DA:24,0
DA:26,0
DA:29,0
DA:30,0
DA:31,0
DA:33,0
DA:34,0
DA:36,0
DA:37,0
DA:38,0
DA:39,0
DA:40,0
DA:41,0
DA:42,0
DA:43,0
DA:44,0
DA:45,0
DA:46,0
DA:47,0
DA:48,0
DA:49,0
DA:52,0
DA:53,0
DA:55,0
DA:63,0
DA:64,0
DA:65,0
DA:66,0
DA:67,0
DA:69,0
DA:70,0
DA:72,0
DA:73,0
DA:74,0
DA:75,0
DA:76,2
DA:87,2
DA:90,2
DA:91,2
DA:92,0
DA:93,0
DA:94,0
DA:95,0
DA:96,0
DA:97,0
DA:98,0
DA:99,0
DA:100,0
DA:101,0
DA:103,2
DA:104,2
DA:105,2
DA:107,2
DA:108,2
DA:109,2
DA:110,2
DA:111,0
DA:112,0
DA:114,2
DA:116,2
DA:117,2
DA:120,1
DA:121,1
DA:122,1
DA:123,1
DA:125,1
DA:126,1
DA:127,1
DA:128,1
DA:129,1
DA:132,1
DA:133,1
DA:134,1
DA:135,1
DA:136,1
DA:137,1
DA:138,1
BRF:0
BRH:0
LF:101
LH:42
end_of_record
SF:/Users/davidirvine/Desktop/Devel/projects/x0x/src/cli/commands/constitution.rs
FN:56,_RNCNvNtNtNtCsfB8W1BOG4Wp_3x0x3cli8commands12constitution11page_output0B9_
FN:57,_RNCNvNtNtNtCsfB8W1BOG4Wp_3x0x3cli8commands12constitution11page_outputs_0B9_
FN:52,_RNvNtNtNtCsfB8W1BOG4Wp_3x0x3cli8commands12constitution11page_output
FN:43,_RNvNtNtNtCsfB8W1BOG4Wp_3x0x3cli8commands12constitution14terminal_width
FN:34,_RNvNtNtNtCsfB8W1BOG4Wp_3x0x3cli8commands12constitution19render_for_terminal
FN:9,_RNvNtNtNtCsfB8W1BOG4Wp_3x0x3cli8commands12constitution7display
FN:52,_RNvNtNtNtCs6t3ktUJwJ8n_3x0x3cli8commands12constitution11page_output
FN:43,_RNvNtNtNtCs6t3ktUJwJ8n_3x0x3cli8commands12constitution14terminal_width
FN:34,_RNvNtNtNtCs6t3ktUJwJ8n_3x0x3cli8commands12constitution19render_for_terminal
FN:9,_RNvNtNtNtCs6t3ktUJwJ8n_3x0x3cli8commands12constitution7display
FN:56,_RNCNvNtNtNtCs6t3ktUJwJ8n_3x0x3cli8commands12constitution11page_output0B9_
FN:57,_RNCNvNtNtNtCs6t3ktUJwJ8n_3x0x3cli8commands12constitution11page_outputs_0B9_
FN:127,_RNvNtNtNtNtCs6t3ktUJwJ8n_3x0x3cli8commands12constitution5testss_18display_raw_output
FN:121,_RNvNtNtNtNtCs6t3ktUJwJ8n_3x0x3cli8commands12constitution5testss_19display_json_output
FN:114,_RNvNtNtNtNtCs6t3ktUJwJ8n_3x0x3cli8commands12constitution5testss_33render_for_terminal_handles_empty
FN:105,_RNvNtNtNtNtCs6t3ktUJwJ8n_3x0x3cli8commands12constitution5testss_37render_for_terminal_returns_non_empty
FN:97,_RNvNtNtNtNtCs6t3ktUJwJ8n_3x0x3cli8commands12constitution5testss_39terminal_width_returns_reasonable_value
FNDA:0,_RNCNvNtNtNtCsfB8W1BOG4Wp_3x0x3cli8commands12constitution11page_output0B9_
FNDA:0,_RNCNvNtNtNtCsfB8W1BOG4Wp_3x0x3cli8commands12constitution11page_outputs_0B9_
FNDA:0,_RNvNtNtNtCsfB8W1BOG4Wp_3x0x3cli8commands12constitution11page_output
FNDA:0,_RNvNtNtNtCsfB8W1BOG4Wp_3x0x3cli8commands12constitution14terminal_width
FNDA:0,_RNvNtNtNtCsfB8W1BOG4Wp_3x0x3cli8commands12constitution19render_for_terminal
FNDA:0,_RNvNtNtNtCsfB8W1BOG4Wp_3x0x3cli8commands12constitution7display
FNDA:0,_RNvNtNtNtCs6t3ktUJwJ8n_3x0x3cli8commands12constitution11page_output
FNDA:3,_RNvNtNtNtCs6t3ktUJwJ8n_3x0x3cli8commands12constitution14terminal_width
FNDA:2,_RNvNtNtNtCs6t3ktUJwJ8n_3x0x3cli8commands12constitution19render_for_terminal
FNDA:2,_RNvNtNtNtCs6t3ktUJwJ8n_3x0x3cli8commands12constitution7display
FNDA:0,_RNCNvNtNtNtCs6t3ktUJwJ8n_3x0x3cli8commands12constitution11page_output0B9_
FNDA:0,_RNCNvNtNtNtCs6t3ktUJwJ8n_3x0x3cli8commands12constitution11page_outputs_0B9_
FNDA:1,_RNvNtNtNtNtCs6t3ktUJwJ8n_3x0x3cli8commands12constitution5testss_18display_raw_output
FNDA:1,_RNvNtNtNtNtCs6t3ktUJwJ8n_3x0x3cli8commands12constitution5testss_19display_json_output
FNDA:1,_RNvNtNtNtNtCs6t3ktUJwJ8n_3x0x3cli8commands12constitution5testss_33render_for_terminal_handles_empty
FNDA:1,_RNvNtNtNtNtCs6t3ktUJwJ8n_3x0x3cli8commands12constitution5testss_37render_for_terminal_returns_non_empty
FNDA:1,_RNvNtNtNtNtCs6t3ktUJwJ8n_3x0x3cli8commands12constitution5testss_39terminal_width_returns_reasonable_value
FNF:11
FNH:8
DA:9,2
DA:10,2
DA:11,1
DA:12,1
DA:13,1
DA:14,1
DA:16,1
DA:17,1
DA:18,1
DA:20,1
DA:21,1
DA:22,1
DA:23,0
DA:26,0
DA:29,0
DA:31,0
DA:32,2
DA:34,2
DA:37,2
DA:38,2
DA:39,2
DA:40,2
DA:41,2
DA:43,3
DA:45,3
DA:46,0
DA:48,3
DA:50,3
DA:52,0
DA:54,0
DA:55,0
DA:56,0
DA:57,0
DA:58,0
DA:59,0
DA:61,0
DA:63,0
DA:65,0
DA:66,0
DA:68,0
DA:71,0
DA:72,0
DA:73,0
DA:74,0
DA:76,0
DA:77,0
DA:78,0
DA:79,0
DA:80,0
DA:82,0
DA:83,0
DA:84,0
DA:85,0
DA:88,0
DA:89,0
DA:97,1
DA:98,1
DA:100,1
DA:101,1
DA:102,1
DA:105,1
DA:106,1
DA:107,1
DA:108,1
DA:109,1
DA:110,1
DA:111,1
DA:114,1
DA:115,1
DA:117,1
DA:118,1
DA:121,1
DA:122,1
DA:123,1
DA:124,1
DA:127,1
DA:128,1
DA:129,1
DA:130,1
BRF:0
BRH:0
LF:81
LH:47
end_of_record
SF:/Users/davidirvine/Desktop/Devel/projects/x0x/src/cli/commands/contacts.rs
FN:82,_RNvNtNtNtCsfB8W1BOG4Wp_3x0x3cli8commands8contacts11revocations
FN:104,_RNvNtNtNtCsfB8W1BOG4Wp_3x0x3cli8commands8contacts14trust_evaluate
FN:15,_RNvNtNtNtCsfB8W1BOG4Wp_3x0x3cli8commands8contacts3add
FN:7,_RNvNtNtNtCsfB8W1BOG4Wp_3x0x3cli8commands8contacts4list
FN:63,_RNvNtNtNtCsfB8W1BOG4Wp_3x0x3cli8commands8contacts6remove
FN:71,_RNvNtNtNtCsfB8W1BOG4Wp_3x0x3cli8commands8contacts6revoke
FN:35,_RNvNtNtNtCsfB8W1BOG4Wp_3x0x3cli8commands8contacts6update
FN:92,_RNvNtNtNtCsfB8W1BOG4Wp_3x0x3cli8commands8contacts9trust_set
FN:82,_RNCNvNtNtNtCsfB8W1BOG4Wp_3x0x3cli8commands8contacts11revocations0B9_
FN:104,_RNCNvNtNtNtCsfB8W1BOG4Wp_3x0x3cli8commands8contacts14trust_evaluate0B9_
FN:20,_RNCNvNtNtNtCsfB8W1BOG4Wp_3x0x3cli8commands8contacts3add0B9_
FN:7,_RNCNvNtNtNtCsfB8W1BOG4Wp_3x0x3cli8commands8contacts4list0B9_
FN:63,_RNCNvNtNtNtCsfB8W1BOG4Wp_3x0x3cli8commands8contacts6remove0B9_
FN:71,_RNCNvNtNtNtCsfB8W1BOG4Wp_3x0x3cli8commands8contacts6revoke0B9_
FN:40,_RNCNvNtNtNtCsfB8W1BOG4Wp_3x0x3cli8commands8contacts6update0B9_
FN:92,_RNCNvNtNtNtCsfB8W1BOG4Wp_3x0x3cli8commands8contacts9trust_set0B9_
FN:129,_RNCNCNCNvNtNtNtNtCs6t3ktUJwJ8n_3x0x3cli8commands8contacts5tests17start_mock_server000Bf_
FN:145,_RNCNCNCNvNtNtNtNtCs6t3ktUJwJ8n_3x0x3cli8commands8contacts5tests17start_mock_server0s_00Bf_
FN:127,_RNCNCNvNtNtNtNtCs6t3ktUJwJ8n_3x0x3cli8commands8contacts5tests17start_mock_server00Bd_
FN:143,_RNCNCNvNtNtNtNtCs6t3ktUJwJ8n_3x0x3cli8commands8contacts5tests17start_mock_server0s_0Bd_
FN:123,_RNCNvNtNtNtNtCs6t3ktUJwJ8n_3x0x3cli8commands8contacts5tests17start_mock_server0Bb_
FN:185,_RNCNvNtNtNtNtCs6t3ktUJwJ8n_3x0x3cli8commands8contacts5testss_25add_returns_mock_response0Bb_
FN:157,_RNCNvNtNtNtNtCs6t3ktUJwJ8n_3x0x3cli8commands8contacts5testss_26list_returns_mock_response0Bb_
FN:203,_RNCNvNtNtNtNtCs6t3ktUJwJ8n_3x0x3cli8commands8contacts5testss_28remove_returns_mock_response0Bb_
FN:212,_RNCNvNtNtNtNtCs6t3ktUJwJ8n_3x0x3cli8commands8contacts5testss_28revoke_returns_mock_response0Bb_
FN:194,_RNCNvNtNtNtNtCs6t3ktUJwJ8n_3x0x3cli8commands8contacts5testss_28update_returns_mock_response0Bb_
FN:221,_RNCNvNtNtNtNtCs6t3ktUJwJ8n_3x0x3cli8commands8contacts5testss_31trust_set_returns_mock_response0Bb_
FN:165,_RNCNvNtNtNtNtCs6t3ktUJwJ8n_3x0x3cli8commands8contacts5testss_33revocations_returns_mock_response0Bb_
FN:175,_RNCNvNtNtNtNtCs6t3ktUJwJ8n_3x0x3cli8commands8contacts5testss_36trust_evaluate_returns_mock_response0Bb_
FN:82,_RNCNvNtNtNtCs6t3ktUJwJ8n_3x0x3cli8commands8contacts11revocations0B9_
FN:104,_RNCNvNtNtNtCs6t3ktUJwJ8n_3x0x3cli8commands8contacts14trust_evaluate0B9_
FN:20,_RNCNvNtNtNtCs6t3ktUJwJ8n_3x0x3cli8commands8contacts3add0B9_
FN:7,_RNCNvNtNtNtCs6t3ktUJwJ8n_3x0x3cli8commands8contacts4list0B9_
FN:63,_RNCNvNtNtNtCs6t3ktUJwJ8n_3x0x3cli8commands8contacts6remove0B9_
FN:71,_RNCNvNtNtNtCs6t3ktUJwJ8n_3x0x3cli8commands8contacts6revoke0B9_
FN:40,_RNCNvNtNtNtCs6t3ktUJwJ8n_3x0x3cli8commands8contacts6update0B9_
FN:92,_RNCNvNtNtNtCs6t3ktUJwJ8n_3x0x3cli8commands8contacts9trust_set0B9_
FN:82,_RNvNtNtNtCs6t3ktUJwJ8n_3x0x3cli8commands8contacts11revocations
FN:104,_RNvNtNtNtCs6t3ktUJwJ8n_3x0x3cli8commands8contacts14trust_evaluate
FN:15,_RNvNtNtNtCs6t3ktUJwJ8n_3x0x3cli8commands8contacts3add
FN:7,_RNvNtNtNtCs6t3ktUJwJ8n_3x0x3cli8commands8contacts4list
FN:63,_RNvNtNtNtCs6t3ktUJwJ8n_3x0x3cli8commands8contacts6remove
FN:71,_RNvNtNtNtCs6t3ktUJwJ8n_3x0x3cli8commands8contacts6revoke
FN:35,_RNvNtNtNtCs6t3ktUJwJ8n_3x0x3cli8commands8contacts6update
FN:92,_RNvNtNtNtCs6t3ktUJwJ8n_3x0x3cli8commands8contacts9trust_set
FN:123,_RNvNtNtNtNtCs6t3ktUJwJ8n_3x0x3cli8commands8contacts5tests17start_mock_server
FN:185,_RNvNtNtNtNtCs6t3ktUJwJ8n_3x0x3cli8commands8contacts5testss_25add_returns_mock_response
FN:157,_RNvNtNtNtNtCs6t3ktUJwJ8n_3x0x3cli8commands8contacts5testss_26list_returns_mock_response
FN:203,_RNvNtNtNtNtCs6t3ktUJwJ8n_3x0x3cli8commands8contacts5testss_28remove_returns_mock_response
FN:212,_RNvNtNtNtNtCs6t3ktUJwJ8n_3x0x3cli8commands8contacts5testss_28revoke_returns_mock_response
FN:194,_RNvNtNtNtNtCs6t3ktUJwJ8n_3x0x3cli8commands8contacts5testss_28update_returns_mock_response
FN:221,_RNvNtNtNtNtCs6t3ktUJwJ8n_3x0x3cli8commands8contacts5testss_31trust_set_returns_mock_response
FN:165,_RNvNtNtNtNtCs6t3ktUJwJ8n_3x0x3cli8commands8contacts5testss_33revocations_returns_mock_response
FN:175,_RNvNtNtNtNtCs6t3ktUJwJ8n_3x0x3cli8commands8contacts5testss_36trust_evaluate_returns_mock_response
FNDA:0,_RNvNtNtNtCsfB8W1BOG4Wp_3x0x3cli8commands8contacts11revocations
FNDA:0,_RNvNtNtNtCsfB8W1BOG4Wp_3x0x3cli8commands8contacts14trust_evaluate
FNDA:0,_RNvNtNtNtCsfB8W1BOG4Wp_3x0x3cli8commands8contacts3add
FNDA:0,_RNvNtNtNtCsfB8W1BOG4Wp_3x0x3cli8commands8contacts4list
FNDA:0,_RNvNtNtNtCsfB8W1BOG4Wp_3x0x3cli8commands8contacts6remove
FNDA:0,_RNvNtNtNtCsfB8W1BOG4Wp_3x0x3cli8commands8contacts6revoke
FNDA:0,_RNvNtNtNtCsfB8W1BOG4Wp_3x0x3cli8commands8contacts6update
FNDA:0,_RNvNtNtNtCsfB8W1BOG4Wp_3x0x3cli8commands8contacts9trust_set
FNDA:0,_RNCNvNtNtNtCsfB8W1BOG4Wp_3x0x3cli8commands8contacts11revocations0B9_
FNDA:0,_RNCNvNtNtNtCsfB8W1BOG4Wp_3x0x3cli8commands8contacts14trust_evaluate0B9_
FNDA:0,_RNCNvNtNtNtCsfB8W1BOG4Wp_3x0x3cli8commands8contacts3add0B9_
FNDA:0,_RNCNvNtNtNtCsfB8W1BOG4Wp_3x0x3cli8commands8contacts4list0B9_
FNDA:0,_RNCNvNtNtNtCsfB8W1BOG4Wp_3x0x3cli8commands8contacts6remove0B9_
FNDA:0,_RNCNvNtNtNtCsfB8W1BOG4Wp_3x0x3cli8commands8contacts6revoke0B9_
FNDA:0,_RNCNvNtNtNtCsfB8W1BOG4Wp_3x0x3cli8commands8contacts6update0B9_
FNDA:0,_RNCNvNtNtNtCsfB8W1BOG4Wp_3x0x3cli8commands8contacts9trust_set0B9_
FNDA:16,_RNCNCNCNvNtNtNtNtCs6t3ktUJwJ8n_3x0x3cli8commands8contacts5tests17start_mock_server000Bf_
FNDA:8,_RNCNCNCNvNtNtNtNtCs6t3ktUJwJ8n_3x0x3cli8commands8contacts5tests17start_mock_server0s_00Bf_
FNDA:16,_RNCNCNvNtNtNtNtCs6t3ktUJwJ8n_3x0x3cli8commands8contacts5tests17start_mock_server00Bd_
FNDA:8,_RNCNCNvNtNtNtNtCs6t3ktUJwJ8n_3x0x3cli8commands8contacts5tests17start_mock_server0s_0Bd_
FNDA:8,_RNCNvNtNtNtNtCs6t3ktUJwJ8n_3x0x3cli8commands8contacts5tests17start_mock_server0Bb_
FNDA:1,_RNCNvNtNtNtNtCs6t3ktUJwJ8n_3x0x3cli8commands8contacts5testss_25add_returns_mock_response0Bb_
FNDA:1,_RNCNvNtNtNtNtCs6t3ktUJwJ8n_3x0x3cli8commands8contacts5testss_26list_returns_mock_response0Bb_
FNDA:1,_RNCNvNtNtNtNtCs6t3ktUJwJ8n_3x0x3cli8commands8contacts5testss_28remove_returns_mock_response0Bb_
FNDA:1,_RNCNvNtNtNtNtCs6t3ktUJwJ8n_3x0x3cli8commands8contacts5testss_28revoke_returns_mock_response0Bb_
FNDA:1,_RNCNvNtNtNtNtCs6t3ktUJwJ8n_3x0x3cli8commands8contacts5testss_28update_returns_mock_response0Bb_
FNDA:1,_RNCNvNtNtNtNtCs6t3ktUJwJ8n_3x0x3cli8commands8contacts5testss_31trust_set_returns_mock_response0Bb_
FNDA:1,_RNCNvNtNtNtNtCs6t3ktUJwJ8n_3x0x3cli8commands8contacts5testss_33revocations_returns_mock_response0Bb_
FNDA:1,_RNCNvNtNtNtNtCs6t3ktUJwJ8n_3x0x3cli8commands8contacts5testss_36trust_evaluate_returns_mock_response0Bb_
FNDA:1,_RNCNvNtNtNtCs6t3ktUJwJ8n_3x0x3cli8commands8contacts11revocations0B9_
FNDA:1,_RNCNvNtNtNtCs6t3ktUJwJ8n_3x0x3cli8commands8contacts14trust_evaluate0B9_
FNDA:1,_RNCNvNtNtNtCs6t3ktUJwJ8n_3x0x3cli8commands8contacts3add0B9_
FNDA:1,_RNCNvNtNtNtCs6t3ktUJwJ8n_3x0x3cli8commands8contacts4list0B9_
FNDA:1,_RNCNvNtNtNtCs6t3ktUJwJ8n_3x0x3cli8commands8contacts6remove0B9_
FNDA:1,_RNCNvNtNtNtCs6t3ktUJwJ8n_3x0x3cli8commands8contacts6revoke0B9_
FNDA:1,_RNCNvNtNtNtCs6t3ktUJwJ8n_3x0x3cli8commands8contacts6update0B9_
FNDA:1,_RNCNvNtNtNtCs6t3ktUJwJ8n_3x0x3cli8commands8contacts9trust_set0B9_
FNDA:1,_RNvNtNtNtCs6t3ktUJwJ8n_3x0x3cli8commands8contacts11revocations
FNDA:1,_RNvNtNtNtCs6t3ktUJwJ8n_3x0x3cli8commands8contacts14trust_evaluate
FNDA:1,_RNvNtNtNtCs6t3ktUJwJ8n_3x0x3cli8commands8contacts3add
FNDA:1,_RNvNtNtNtCs6t3ktUJwJ8n_3x0x3cli8commands8contacts4list
FNDA:1,_RNvNtNtNtCs6t3ktUJwJ8n_3x0x3cli8commands8contacts6remove
FNDA:1,_RNvNtNtNtCs6t3ktUJwJ8n_3x0x3cli8commands8contacts6revoke
FNDA:1,_RNvNtNtNtCs6t3ktUJwJ8n_3x0x3cli8commands8contacts6update
FNDA:1,_RNvNtNtNtCs6t3ktUJwJ8n_3x0x3cli8commands8contacts9trust_set
FNDA:8,_RNvNtNtNtNtCs6t3ktUJwJ8n_3x0x3cli8commands8contacts5tests17start_mock_server
FNDA:1,_RNvNtNtNtNtCs6t3ktUJwJ8n_3x0x3cli8commands8contacts5testss_25add_returns_mock_response
FNDA:1,_RNvNtNtNtNtCs6t3ktUJwJ8n_3x0x3cli8commands8contacts5testss_26list_returns_mock_response
FNDA:1,_RNvNtNtNtNtCs6t3ktUJwJ8n_3x0x3cli8commands8contacts5testss_28remove_returns_mock_response
FNDA:1,_RNvNtNtNtNtCs6t3ktUJwJ8n_3x0x3cli8commands8contacts5testss_28revoke_returns_mock_response
FNDA:1,_RNvNtNtNtNtCs6t3ktUJwJ8n_3x0x3cli8commands8contacts5testss_28update_returns_mock_response
FNDA:1,_RNvNtNtNtNtCs6t3ktUJwJ8n_3x0x3cli8commands8contacts5testss_31trust_set_returns_mock_response
FNDA:1,_RNvNtNtNtNtCs6t3ktUJwJ8n_3x0x3cli8commands8contacts5testss_33revocations_returns_mock_response
FNDA:1,_RNvNtNtNtNtCs6t3ktUJwJ8n_3x0x3cli8commands8contacts5testss_36trust_evaluate_returns_mock_response
FNF:38
FNH:38
DA:7,1
DA:8,1
DA:9,1
DA:10,1
DA:11,1
DA:12,1
DA:15,1
DA:16,1
DA:17,1
DA:18,1
DA:19,1
DA:20,1
DA:21,1
DA:22,1
DA:23,1
DA:24,1
DA:26,1
DA:27,1
DA:28,1
DA:29,1
DA:30,1
DA:31,1
DA:32,1
DA:35,1
DA:36,1
DA:37,1
DA:38,1
DA:39,1
DA:40,1
DA:41,1
DA:42,1
DA:43,1
DA:44,1
DA:45,1
DA:46,1
DA:47,1
DA:48,1
DA:49,1
DA:50,0
DA:51,0
DA:52,0
DA:53,0
DA:54,1
DA:55,1
DA:56,1
DA:57,1
DA:58,1
DA:59,1
DA:60,1
DA:63,1
DA:64,1
DA:65,1
DA:66,1
DA:67,1
DA:68,1
DA:71,1
DA:72,1
DA:73,1
DA:74,1
DA:75,1
DA:76,1
DA:77,1
DA:78,1
DA:79,1
DA:82,1
DA:83,1
DA:84,1
DA:85,1
DA:86,1
DA:87,1
DA:88,1
DA:89,1
DA:92,1
DA:93,1
DA:94,1
DA:95,1
DA:96,1
DA:98,1
DA:99,1
DA:100,1
DA:101,1
DA:104,1
DA:105,1
DA:106,1
DA:107,1
DA:108,1
DA:110,1
DA:111,1
DA:112,1
DA:113,1
DA:123,8
DA:126,8
DA:127,16
DA:128,16
DA:129,16
DA:130,16
DA:131,16
DA:132,16
DA:133,16
DA:134,16
DA:135,16
DA:136,16
DA:137,16
DA:139,8
DA:140,8
DA:141,8
DA:143,8
DA:144,8
DA:145,8
DA:146,8
DA:147,0
DA:148,0
DA:150,8
DA:152,8
DA:153,8
DA:157,1
DA:158,1
DA:159,1
DA:160,1
DA:161,1
DA:162,1
DA:163,1
DA:165,1
DA:166,1
DA:167,1
DA:168,1
DA:169,1
DA:170,1
DA:171,1
DA:175,1
DA:176,1
DA:177,1
DA:178,1
DA:179,1
DA:180,1
DA:181,1
DA:185,1
DA:186,1
DA:187,1
DA:188,1
DA:189,1
DA:190,1
DA:191,1
DA:194,1
DA:195,1
DA:196,1
DA:197,1
DA:198,1
DA:199,1
DA:200,1
DA:203,1
DA:204,1
DA:205,1
DA:206,1
DA:207,1
DA:208,1
DA:209,1
DA:212,1
DA:213,1
DA:214,1
DA:215,1
DA:216,1
DA:217,1
DA:218,1
DA:221,1
DA:222,1
DA:223,1
DA:224,1
DA:225,1
DA:226,1
DA:227,1
BRF:0
BRH:0
LF:199
LH:193
end_of_record
SF:/Users/davidirvine/Desktop/Devel/projects/x0x/src/cli/commands/daemon.rs
FN:409,_RNvNtNtNtCsfB8W1BOG4Wp_3x0x3cli8commands6daemon14port_file_path
FN:354,_RNvNtNtNtCsfB8W1BOG4Wp_3x0x3cli8commands6daemon16autostart_remove
FN:392,_RNvNtNtNtCsfB8W1BOG4Wp_3x0x3cli8commands6daemon19discovered_base_url
FN:76,_RNvNtNtNtCsfB8W1BOG4Wp_3x0x3cli8commands6daemon4stop
FN:10,_RNvNtNtNtCsfB8W1BOG4Wp_3x0x3cli8commands6daemon5start
FN:94,_RNvNtNtNtCsfB8W1BOG4Wp_3x0x3cli8commands6daemon6doctor
FN:214,_RNvNtNtNtCsfB8W1BOG4Wp_3x0x3cli8commands6daemon9autostart
FN:419,_RNvNtNtNtCsfB8W1BOG4Wp_3x0x3cli8commands6daemon9find_x0xd
FN:153,_RNvNtNtNtCsfB8W1BOG4Wp_3x0x3cli8commands6daemon9instances
FN:70,_RNCNCNvNtNtNtCsfB8W1BOG4Wp_3x0x3cli8commands6daemon5start00Bb_
FN:113,_RNCNCNvNtNtNtCsfB8W1BOG4Wp_3x0x3cli8commands6daemon6doctor00Bb_
FN:127,_RNCNCNvNtNtNtCsfB8W1BOG4Wp_3x0x3cli8commands6daemon6doctor0s0_0Bb_
FN:140,_RNCNCNvNtNtNtCsfB8W1BOG4Wp_3x0x3cli8commands6daemon6doctor0s1_0Bb_
FN:141,_RNCNCNvNtNtNtCsfB8W1BOG4Wp_3x0x3cli8commands6daemon6doctor0s2_0Bb_
FN:124,_RNCNCNvNtNtNtCsfB8W1BOG4Wp_3x0x3cli8commands6daemon6doctor0s_0Bb_
FN:183,_RNCNCNvNtNtNtCsfB8W1BOG4Wp_3x0x3cli8commands6daemon9instances00Bb_
FN:354,_RNCNvNtNtNtCsfB8W1BOG4Wp_3x0x3cli8commands6daemon16autostart_remove0B9_
FN:76,_RNCNvNtNtNtCsfB8W1BOG4Wp_3x0x3cli8commands6daemon4stop0B9_
FN:10,_RNCNvNtNtNtCsfB8W1BOG4Wp_3x0x3cli8commands6daemon5start0B9_
FN:94,_RNCNvNtNtNtCsfB8W1BOG4Wp_3x0x3cli8commands6daemon6doctor0B9_
FN:214,_RNCNvNtNtNtCsfB8W1BOG4Wp_3x0x3cli8commands6daemon9autostart0B9_
FN:153,_RNCNvNtNtNtCsfB8W1BOG4Wp_3x0x3cli8commands6daemon9instances0B9_
FN:10,_RNvNtNtNtCs6t3ktUJwJ8n_3x0x3cli8commands6daemon5start
FN:214,_RNvNtNtNtCs6t3ktUJwJ8n_3x0x3cli8commands6daemon9autostart
FN:409,_RNvNtNtNtCs6t3ktUJwJ8n_3x0x3cli8commands6daemon14port_file_path
FN:354,_RNvNtNtNtCs6t3ktUJwJ8n_3x0x3cli8commands6daemon16autostart_remove
FN:392,_RNvNtNtNtCs6t3ktUJwJ8n_3x0x3cli8commands6daemon19discovered_base_url
FN:76,_RNvNtNtNtCs6t3ktUJwJ8n_3x0x3cli8commands6daemon4stop
FN:94,_RNvNtNtNtCs6t3ktUJwJ8n_3x0x3cli8commands6daemon6doctor
FN:419,_RNvNtNtNtCs6t3ktUJwJ8n_3x0x3cli8commands6daemon9find_x0xd
FN:153,_RNvNtNtNtCs6t3ktUJwJ8n_3x0x3cli8commands6daemon9instances
FN:70,_RNCNCNvNtNtNtCs6t3ktUJwJ8n_3x0x3cli8commands6daemon5start00Bb_
FN:113,_RNCNCNvNtNtNtCs6t3ktUJwJ8n_3x0x3cli8commands6daemon6doctor00Bb_
FN:127,_RNCNCNvNtNtNtCs6t3ktUJwJ8n_3x0x3cli8commands6daemon6doctor0s0_0Bb_
FN:140,_RNCNCNvNtNtNtCs6t3ktUJwJ8n_3x0x3cli8commands6daemon6doctor0s1_0Bb_
FN:141,_RNCNCNvNtNtNtCs6t3ktUJwJ8n_3x0x3cli8commands6daemon6doctor0s2_0Bb_
FN:124,_RNCNCNvNtNtNtCs6t3ktUJwJ8n_3x0x3cli8commands6daemon6doctor0s_0Bb_
FN:183,_RNCNCNvNtNtNtCs6t3ktUJwJ8n_3x0x3cli8commands6daemon9instances00Bb_
FN:354,_RNCNvNtNtNtCs6t3ktUJwJ8n_3x0x3cli8commands6daemon16autostart_remove0B9_
FN:76,_RNCNvNtNtNtCs6t3ktUJwJ8n_3x0x3cli8commands6daemon4stop0B9_
FN:10,_RNCNvNtNtNtCs6t3ktUJwJ8n_3x0x3cli8commands6daemon5start0B9_
FN:94,_RNCNvNtNtNtCs6t3ktUJwJ8n_3x0x3cli8commands6daemon6doctor0B9_
FN:214,_RNCNvNtNtNtCs6t3ktUJwJ8n_3x0x3cli8commands6daemon9autostart0B9_
FN:153,_RNCNvNtNtNtCs6t3ktUJwJ8n_3x0x3cli8commands6daemon9instances0B9_
FN:484,_RNCNCNCNvNtNtNtNtCs6t3ktUJwJ8n_3x0x3cli8commands6daemon5tests17start_mock_server000Bf_
FN:500,_RNCNCNCNvNtNtNtNtCs6t3ktUJwJ8n_3x0x3cli8commands6daemon5tests17start_mock_server0s_00Bf_
FN:482,_RNCNCNvNtNtNtNtCs6t3ktUJwJ8n_3x0x3cli8commands6daemon5tests17start_mock_server00Bd_
FN:498,_RNCNCNvNtNtNtNtCs6t3ktUJwJ8n_3x0x3cli8commands6daemon5tests17start_mock_server0s_0Bd_
FN:478,_RNCNvNtNtNtNtCs6t3ktUJwJ8n_3x0x3cli8commands6daemon5tests17start_mock_server0Bb_
FN:520,_RNCNvNtNtNtNtCs6t3ktUJwJ8n_3x0x3cli8commands6daemon5testss_22doctor_runs_all_checks0Bb_
FN:511,_RNCNvNtNtNtNtCs6t3ktUJwJ8n_3x0x3cli8commands6daemon5testss_27stop_sends_shutdown_request0Bb_
FN:542,_RNCNvNtNtNtNtCs6t3ktUJwJ8n_3x0x3cli8commands6daemon5testss_31autostart_remove_does_not_panic0Bb_
FN:468,_RNCNvNtNtNtNtCs6t3ktUJwJ8n_3x0x3cli8commands6daemon5testss_38find_x0xd_returns_error_when_not_found0Bb_
FN:535,_RNCNvNtNtNtNtCs6t3ktUJwJ8n_3x0x3cli8commands6daemon5testss_42instances_returns_empty_when_no_port_files0Bb_
FN:478,_RNvNtNtNtNtCs6t3ktUJwJ8n_3x0x3cli8commands6daemon5tests17start_mock_server
FN:452,_RNvNtNtNtNtCs6t3ktUJwJ8n_3x0x3cli8commands6daemon5testss_20port_file_path_named
FN:520,_RNvNtNtNtNtCs6t3ktUJwJ8n_3x0x3cli8commands6daemon5testss_22doctor_runs_all_checks
FN:444,_RNvNtNtNtNtCs6t3ktUJwJ8n_3x0x3cli8commands6daemon5testss_22port_file_path_default
FN:511,_RNvNtNtNtNtCs6t3ktUJwJ8n_3x0x3cli8commands6daemon5testss_27stop_sends_shutdown_request
FN:542,_RNvNtNtNtNtCs6t3ktUJwJ8n_3x0x3cli8commands6daemon5testss_31autostart_remove_does_not_panic
FN:466,_RNvNtNtNtNtCs6t3ktUJwJ8n_3x0x3cli8commands6daemon5testss_38find_x0xd_returns_error_when_not_found
FN:535,_RNvNtNtNtNtCs6t3ktUJwJ8n_3x0x3cli8commands6daemon5testss_42instances_returns_empty_when_no_port_files
FN:460,_RNvNtNtNtNtCs6t3ktUJwJ8n_3x0x3cli8commands6daemon5testss_49discovered_base_url_returns_none_for_missing_file
FNDA:0,_RNvNtNtNtCsfB8W1BOG4Wp_3x0x3cli8commands6daemon14port_file_path
FNDA:0,_RNvNtNtNtCsfB8W1BOG4Wp_3x0x3cli8commands6daemon16autostart_remove
FNDA:0,_RNvNtNtNtCsfB8W1BOG4Wp_3x0x3cli8commands6daemon19discovered_base_url
FNDA:0,_RNvNtNtNtCsfB8W1BOG4Wp_3x0x3cli8commands6daemon4stop
FNDA:0,_RNvNtNtNtCsfB8W1BOG4Wp_3x0x3cli8commands6daemon5start
FNDA:0,_RNvNtNtNtCsfB8W1BOG4Wp_3x0x3cli8commands6daemon6doctor
FNDA:0,_RNvNtNtNtCsfB8W1BOG4Wp_3x0x3cli8commands6daemon9autostart
FNDA:0,_RNvNtNtNtCsfB8W1BOG4Wp_3x0x3cli8commands6daemon9find_x0xd
FNDA:0,_RNvNtNtNtCsfB8W1BOG4Wp_3x0x3cli8commands6daemon9instances
FNDA:0,_RNCNCNvNtNtNtCsfB8W1BOG4Wp_3x0x3cli8commands6daemon5start00Bb_
FNDA:0,_RNCNCNvNtNtNtCsfB8W1BOG4Wp_3x0x3cli8commands6daemon6doctor00Bb_
FNDA:0,_RNCNCNvNtNtNtCsfB8W1BOG4Wp_3x0x3cli8commands6daemon6doctor0s0_0Bb_
FNDA:0,_RNCNCNvNtNtNtCsfB8W1BOG4Wp_3x0x3cli8commands6daemon6doctor0s1_0Bb_
FNDA:0,_RNCNCNvNtNtNtCsfB8W1BOG4Wp_3x0x3cli8commands6daemon6doctor0s2_0Bb_
FNDA:0,_RNCNCNvNtNtNtCsfB8W1BOG4Wp_3x0x3cli8commands6daemon6doctor0s_0Bb_
FNDA:0,_RNCNCNvNtNtNtCsfB8W1BOG4Wp_3x0x3cli8commands6daemon9instances00Bb_
FNDA:0,_RNCNvNtNtNtCsfB8W1BOG4Wp_3x0x3cli8commands6daemon16autostart_remove0B9_
FNDA:0,_RNCNvNtNtNtCsfB8W1BOG4Wp_3x0x3cli8commands6daemon4stop0B9_
FNDA:0,_RNCNvNtNtNtCsfB8W1BOG4Wp_3x0x3cli8commands6daemon5start0B9_
FNDA:0,_RNCNvNtNtNtCsfB8W1BOG4Wp_3x0x3cli8commands6daemon6doctor0B9_
FNDA:0,_RNCNvNtNtNtCsfB8W1BOG4Wp_3x0x3cli8commands6daemon9autostart0B9_
FNDA:0,_RNCNvNtNtNtCsfB8W1BOG4Wp_3x0x3cli8commands6daemon9instances0B9_
FNDA:0,_RNvNtNtNtCs6t3ktUJwJ8n_3x0x3cli8commands6daemon5start
FNDA:0,_RNvNtNtNtCs6t3ktUJwJ8n_3x0x3cli8commands6daemon9autostart
FNDA:3,_RNvNtNtNtCs6t3ktUJwJ8n_3x0x3cli8commands6daemon14port_file_path
FNDA:1,_RNvNtNtNtCs6t3ktUJwJ8n_3x0x3cli8commands6daemon16autostart_remove
FNDA:1,_RNvNtNtNtCs6t3ktUJwJ8n_3x0x3cli8commands6daemon19discovered_base_url
FNDA:1,_RNvNtNtNtCs6t3ktUJwJ8n_3x0x3cli8commands6daemon4stop
FNDA:1,_RNvNtNtNtCs6t3ktUJwJ8n_3x0x3cli8commands6daemon6doctor
FNDA:1,_RNvNtNtNtCs6t3ktUJwJ8n_3x0x3cli8commands6daemon9find_x0xd
FNDA:1,_RNvNtNtNtCs6t3ktUJwJ8n_3x0x3cli8commands6daemon9instances
FNDA:0,_RNCNCNvNtNtNtCs6t3ktUJwJ8n_3x0x3cli8commands6daemon5start00Bb_
FNDA:1,_RNCNCNvNtNtNtCs6t3ktUJwJ8n_3x0x3cli8commands6daemon6doctor00Bb_
FNDA:1,_RNCNCNvNtNtNtCs6t3ktUJwJ8n_3x0x3cli8commands6daemon6doctor0s0_0Bb_
FNDA:1,_RNCNCNvNtNtNtCs6t3ktUJwJ8n_3x0x3cli8commands6daemon6doctor0s1_0Bb_
FNDA:1,_RNCNCNvNtNtNtCs6t3ktUJwJ8n_3x0x3cli8commands6daemon6doctor0s2_0Bb_
FNDA:1,_RNCNCNvNtNtNtCs6t3ktUJwJ8n_3x0x3cli8commands6daemon6doctor0s_0Bb_
FNDA:207,_RNCNCNvNtNtNtCs6t3ktUJwJ8n_3x0x3cli8commands6daemon9instances00Bb_
FNDA:1,_RNCNvNtNtNtCs6t3ktUJwJ8n_3x0x3cli8commands6daemon16autostart_remove0B9_
FNDA:1,_RNCNvNtNtNtCs6t3ktUJwJ8n_3x0x3cli8commands6daemon4stop0B9_
FNDA:0,_RNCNvNtNtNtCs6t3ktUJwJ8n_3x0x3cli8commands6daemon5start0B9_
FNDA:1,_RNCNvNtNtNtCs6t3ktUJwJ8n_3x0x3cli8commands6daemon6doctor0B9_
FNDA:0,_RNCNvNtNtNtCs6t3ktUJwJ8n_3x0x3cli8commands6daemon9autostart0B9_
FNDA:1,_RNCNvNtNtNtCs6t3ktUJwJ8n_3x0x3cli8commands6daemon9instances0B9_
FNDA:6,_RNCNCNCNvNtNtNtNtCs6t3ktUJwJ8n_3x0x3cli8commands6daemon5tests17start_mock_server000Bf_
FNDA:2,_RNCNCNCNvNtNtNtNtCs6t3ktUJwJ8n_3x0x3cli8commands6daemon5tests17start_mock_server0s_00Bf_
FNDA:6,_RNCNCNvNtNtNtNtCs6t3ktUJwJ8n_3x0x3cli8commands6daemon5tests17start_mock_server00Bd_
FNDA:2,_RNCNCNvNtNtNtNtCs6t3ktUJwJ8n_3x0x3cli8commands6daemon5tests17start_mock_server0s_0Bd_
FNDA:2,_RNCNvNtNtNtNtCs6t3ktUJwJ8n_3x0x3cli8commands6daemon5tests17start_mock_server0Bb_
FNDA:1,_RNCNvNtNtNtNtCs6t3ktUJwJ8n_3x0x3cli8commands6daemon5testss_22doctor_runs_all_checks0Bb_
FNDA:1,_RNCNvNtNtNtNtCs6t3ktUJwJ8n_3x0x3cli8commands6daemon5testss_27stop_sends_shutdown_request0Bb_
FNDA:1,_RNCNvNtNtNtNtCs6t3ktUJwJ8n_3x0x3cli8commands6daemon5testss_31autostart_remove_does_not_panic0Bb_
FNDA:1,_RNCNvNtNtNtNtCs6t3ktUJwJ8n_3x0x3cli8commands6daemon5testss_38find_x0xd_returns_error_when_not_found0Bb_
FNDA:1,_RNCNvNtNtNtNtCs6t3ktUJwJ8n_3x0x3cli8commands6daemon5testss_42instances_returns_empty_when_no_port_files0Bb_
FNDA:2,_RNvNtNtNtNtCs6t3ktUJwJ8n_3x0x3cli8commands6daemon5tests17start_mock_server
FNDA:1,_RNvNtNtNtNtCs6t3ktUJwJ8n_3x0x3cli8commands6daemon5testss_20port_file_path_named
FNDA:1,_RNvNtNtNtNtCs6t3ktUJwJ8n_3x0x3cli8commands6daemon5testss_22doctor_runs_all_checks
FNDA:1,_RNvNtNtNtNtCs6t3ktUJwJ8n_3x0x3cli8commands6daemon5testss_22port_file_path_default
FNDA:1,_RNvNtNtNtNtCs6t3ktUJwJ8n_3x0x3cli8commands6daemon5testss_27stop_sends_shutdown_request
FNDA:1,_RNvNtNtNtNtCs6t3ktUJwJ8n_3x0x3cli8commands6daemon5testss_31autostart_remove_does_not_panic
FNDA:1,_RNvNtNtNtNtCs6t3ktUJwJ8n_3x0x3cli8commands6daemon5testss_38find_x0xd_returns_error_when_not_found
FNDA:1,_RNvNtNtNtNtCs6t3ktUJwJ8n_3x0x3cli8commands6daemon5testss_42instances_returns_empty_when_no_port_files
FNDA:1,_RNvNtNtNtNtCs6t3ktUJwJ8n_3x0x3cli8commands6daemon5testss_49discovered_base_url_returns_none_for_missing_file
FNF:41
FNH:36
DA:10,0
DA:12,0
DA:15,0
DA:16,0
DA:17,0
DA:18,0
DA:19,0
DA:20,0
DA:21,0
DA:22,0
DA:24,0
DA:25,0
DA:26,0
DA:27,0
DA:28,0
DA:29,0
DA:30,0
DA:32,0
DA:37,0
DA:38,0
DA:48,0
DA:51,0
DA:52,0
DA:54,0
DA:57,0
DA:58,0
DA:59,0
DA:60,0
DA:62,0
DA:63,0
DA:64,0
DA:65,0
DA:66,0
DA:69,0
DA:70,0
DA:71,0
DA:72,0
DA:73,0
DA:76,1
DA:77,1
DA:78,1
DA:79,1
DA:80,0
DA:82,0
DA:83,0
DA:84,0
DA:85,0
DA:86,0
DA:90,1
DA:91,1
DA:94,1
DA:95,1
DA:98,1
DA:99,1
DA:100,1
DA:101,0
DA:102,0
DA:103,0
DA:108,1
DA:109,1
DA:110,1
DA:111,1
DA:112,1
DA:113,1
DA:114,1
DA:115,1
DA:117,0
DA:121,1
DA:122,1
DA:123,1
DA:124,1
DA:125,1
DA:126,1
DA:127,1
DA:128,1
DA:129,1
DA:131,0
DA:135,1
DA:136,1
DA:137,1
DA:138,1
DA:139,1
DA:140,1
DA:141,1
DA:142,1
DA:143,1
DA:145,0
DA:148,1
DA:149,1
DA:150,1
DA:153,1
DA:154,1
DA:156,1
DA:159,1
DA:160,1
DA:161,0
DA:162,1
DA:165,1
DA:166,432
DA:167,432
DA:168,432
DA:169,432
DA:170,224
DA:171,224
DA:172,207
DA:173,207
DA:174,208
DA:176,0
DA:178,1
DA:179,0
DA:180,0
DA:181,1
DA:183,207
DA:184,1
DA:186,1
DA:187,1
DA:188,1
DA:190,207
DA:191,207
DA:192,207
DA:193,207
DA:194,207
DA:195,207
DA:196,207
DA:197,207
DA:198,207
DA:199,207
DA:201,0
DA:202,207
DA:205,0
DA:207,207
DA:210,1
DA:211,1
DA:214,0
DA:215,0
DA:216,0
DA:273,0
DA:274,0
DA:275,0
DA:276,0
DA:278,0
DA:279,0
DA:280,0
DA:281,0
DA:282,0
DA:283,0
DA:284,0
DA:286,0
DA:287,0
DA:288,0
DA:289,0
DA:291,0
DA:292,0
DA:293,0
DA:295,0
DA:296,0
DA:298,0
DA:319,0
DA:320,0
DA:322,0
DA:325,0
DA:326,0
DA:327,0
DA:330,0
DA:331,0
DA:332,0
DA:333,0
DA:334,0
DA:335,0
DA:336,0
DA:338,0
DA:339,0
DA:340,0
DA:341,0
DA:350,0
DA:351,0
DA:354,1
DA:374,1
DA:375,1
DA:376,1
DA:377,1
DA:378,0
DA:379,0
DA:380,0
DA:381,0
DA:382,1
DA:383,1
DA:389,1
DA:390,1
DA:392,1
DA:393,1
DA:394,1
DA:395,1
DA:396,0
DA:398,0
DA:399,0
DA:400,0
DA:401,0
DA:402,0
DA:403,0
DA:404,0
DA:406,0
DA:407,1
DA:409,3
DA:410,3
DA:411,3
DA:412,2
DA:413,1
DA:415,3
DA:416,3
DA:419,1
DA:421,1
DA:422,1
DA:423,1
DA:424,1
DA:425,0
DA:426,1
DA:427,0
DA:428,0
DA:431,1
DA:432,1
DA:433,0
DA:435,0
DA:436,1
DA:444,1
DA:445,1
DA:446,1
DA:447,1
DA:448,1
DA:449,1
DA:452,1
DA:453,1
DA:454,1
DA:455,1
DA:456,1
DA:457,1
DA:460,1
DA:461,1
DA:462,1
DA:463,1
DA:466,1
DA:468,1
DA:469,1
DA:470,1
DA:472,1
DA:473,1
DA:478,2
DA:481,2
DA:482,6
DA:483,6
DA:484,6
DA:485,6
DA:486,6
DA:487,6
DA:488,6
DA:489,6
DA:490,6
DA:491,6
DA:492,6
DA:494,2
DA:495,2
DA:496,2
DA:498,2
DA:499,2
DA:500,2
DA:501,2
DA:502,0
DA:503,0
DA:505,2
DA:507,2
DA:508,2
DA:511,1
DA:512,1
DA:513,1
DA:514,1
DA:515,1
DA:516,1
DA:517,1
DA:520,1
DA:521,1
DA:522,1
DA:523,1
DA:524,1
DA:525,1
DA:527,1
DA:528,1
DA:529,1
DA:530,1
DA:531,1
DA:535,1
DA:537,1
DA:538,1
DA:539,1
DA:542,1
DA:544,1
DA:545,1
DA:546,1
BRF:0
BRH:0
LF:323
LH:201
end_of_record
SF:/Users/davidirvine/Desktop/Devel/projects/x0x/src/cli/commands/direct.rs
FN:45,_RNvNtNtNtCsfB8W1BOG4Wp_3x0x3cli8commands6direct11connections
FN:24,_RNvNtNtNtCsfB8W1BOG4Wp_3x0x3cli8commands6direct4send
FN:53,_RNvNtNtNtCsfB8W1BOG4Wp_3x0x3cli8commands6direct6events
FN:8,_RNvNtNtNtCsfB8W1BOG4Wp_3x0x3cli8commands6direct7connect
FN:45,_RNCNvNtNtNtCsfB8W1BOG4Wp_3x0x3cli8commands6direct11connections0B9_
FN:29,_RNCNvNtNtNtCsfB8W1BOG4Wp_3x0x3cli8commands6direct4send0B9_
FN:53,_RNCNvNtNtNtCsfB8W1BOG4Wp_3x0x3cli8commands6direct6events0B9_
FN:8,_RNCNvNtNtNtCsfB8W1BOG4Wp_3x0x3cli8commands6direct7connect0B9_
FN:24,_RNvNtNtNtCs6t3ktUJwJ8n_3x0x3cli8commands6direct4send
FN:8,_RNvNtNtNtCs6t3ktUJwJ8n_3x0x3cli8commands6direct7connect
FN:45,_RNCNvNtNtNtCs6t3ktUJwJ8n_3x0x3cli8commands6direct11connections0B9_
FN:29,_RNCNvNtNtNtCs6t3ktUJwJ8n_3x0x3cli8commands6direct4send0B9_
FN:53,_RNCNvNtNtNtCs6t3ktUJwJ8n_3x0x3cli8commands6direct6events0B9_
FN:8,_RNCNvNtNtNtCs6t3ktUJwJ8n_3x0x3cli8commands6direct7connect0B9_
FN:99,_RNvNtNtNtNtCs6t3ktUJwJ8n_3x0x3cli8commands6direct5tests17start_mock_server
FN:141,_RNvNtNtNtNtCs6t3ktUJwJ8n_3x0x3cli8commands6direct5testss_28events_returns_mock_response
FN:133,_RNvNtNtNtNtCs6t3ktUJwJ8n_3x0x3cli8commands6direct5testss_33connections_returns_mock_response
FN:105,_RNCNCNCNvNtNtNtNtCs6t3ktUJwJ8n_3x0x3cli8commands6direct5tests17start_mock_server000Bf_
FN:121,_RNCNCNCNvNtNtNtNtCs6t3ktUJwJ8n_3x0x3cli8commands6direct5tests17start_mock_server0s_00Bf_
FN:103,_RNCNCNvNtNtNtNtCs6t3ktUJwJ8n_3x0x3cli8commands6direct5tests17start_mock_server00Bd_
FN:119,_RNCNCNvNtNtNtNtCs6t3ktUJwJ8n_3x0x3cli8commands6direct5tests17start_mock_server0s_0Bd_
FN:99,_RNCNvNtNtNtNtCs6t3ktUJwJ8n_3x0x3cli8commands6direct5tests17start_mock_server0Bb_
FN:141,_RNCNvNtNtNtNtCs6t3ktUJwJ8n_3x0x3cli8commands6direct5testss_28events_returns_mock_response0Bb_
FN:133,_RNCNvNtNtNtNtCs6t3ktUJwJ8n_3x0x3cli8commands6direct5testss_33connections_returns_mock_response0Bb_
FN:45,_RNvNtNtNtCs6t3ktUJwJ8n_3x0x3cli8commands6direct11connections
FN:53,_RNvNtNtNtCs6t3ktUJwJ8n_3x0x3cli8commands6direct6events
FNDA:0,_RNvNtNtNtCsfB8W1BOG4Wp_3x0x3cli8commands6direct11connections
FNDA:0,_RNvNtNtNtCsfB8W1BOG4Wp_3x0x3cli8commands6direct4send
FNDA:0,_RNvNtNtNtCsfB8W1BOG4Wp_3x0x3cli8commands6direct6events
FNDA:0,_RNvNtNtNtCsfB8W1BOG4Wp_3x0x3cli8commands6direct7connect
FNDA:0,_RNCNvNtNtNtCsfB8W1BOG4Wp_3x0x3cli8commands6direct11connections0B9_
FNDA:0,_RNCNvNtNtNtCsfB8W1BOG4Wp_3x0x3cli8commands6direct4send0B9_
FNDA:0,_RNCNvNtNtNtCsfB8W1BOG4Wp_3x0x3cli8commands6direct6events0B9_
FNDA:0,_RNCNvNtNtNtCsfB8W1BOG4Wp_3x0x3cli8commands6direct7connect0B9_
FNDA:0,_RNvNtNtNtCs6t3ktUJwJ8n_3x0x3cli8commands6direct4send
FNDA:0,_RNvNtNtNtCs6t3ktUJwJ8n_3x0x3cli8commands6direct7connect
FNDA:1,_RNCNvNtNtNtCs6t3ktUJwJ8n_3x0x3cli8commands6direct11connections0B9_
FNDA:0,_RNCNvNtNtNtCs6t3ktUJwJ8n_3x0x3cli8commands6direct4send0B9_
FNDA:1,_RNCNvNtNtNtCs6t3ktUJwJ8n_3x0x3cli8commands6direct6events0B9_
FNDA:0,_RNCNvNtNtNtCs6t3ktUJwJ8n_3x0x3cli8commands6direct7connect0B9_
FNDA:2,_RNvNtNtNtNtCs6t3ktUJwJ8n_3x0x3cli8commands6direct5tests17start_mock_server
FNDA:1,_RNvNtNtNtNtCs6t3ktUJwJ8n_3x0x3cli8commands6direct5testss_28events_returns_mock_response
FNDA:1,_RNvNtNtNtNtCs6t3ktUJwJ8n_3x0x3cli8commands6direct5testss_33connections_returns_mock_response
FNDA:4,_RNCNCNCNvNtNtNtNtCs6t3ktUJwJ8n_3x0x3cli8commands6direct5tests17start_mock_server000Bf_
FNDA:2,_RNCNCNCNvNtNtNtNtCs6t3ktUJwJ8n_3x0x3cli8commands6direct5tests17start_mock_server0s_00Bf_
FNDA:4,_RNCNCNvNtNtNtNtCs6t3ktUJwJ8n_3x0x3cli8commands6direct5tests17start_mock_server00Bd_
FNDA:2,_RNCNCNvNtNtNtNtCs6t3ktUJwJ8n_3x0x3cli8commands6direct5tests17start_mock_server0s_0Bd_
FNDA:2,_RNCNvNtNtNtNtCs6t3ktUJwJ8n_3x0x3cli8commands6direct5tests17start_mock_server0Bb_
FNDA:1,_RNCNvNtNtNtNtCs6t3ktUJwJ8n_3x0x3cli8commands6direct5testss_28events_returns_mock_response0Bb_
FNDA:1,_RNCNvNtNtNtNtCs6t3ktUJwJ8n_3x0x3cli8commands6direct5testss_33connections_returns_mock_response0Bb_
FNDA:1,_RNvNtNtNtCs6t3ktUJwJ8n_3x0x3cli8commands6direct11connections
FNDA:1,_RNvNtNtNtCs6t3ktUJwJ8n_3x0x3cli8commands6direct6events
FNF:18
FNH:14
DA:8,0
DA:9,0
DA:10,0
DA:11,0
DA:12,0
DA:13,0
DA:14,0
DA:24,0
DA:25,0
DA:26,0
DA:27,0
DA:28,0
DA:29,0
DA:30,0
DA:31,0
DA:32,0
DA:33,0
DA:34,0
DA:36,0
DA:37,0
DA:38,0
DA:39,0
DA:40,0
DA:41,0
DA:42,0
DA:45,1
DA:46,1
DA:47,1
DA:48,1
DA:49,1
DA:50,1
DA:53,1
DA:54,1
DA:55,1
DA:59,1
DA:60,1
DA:61,1
DA:63,2
DA:64,1
DA:65,1
DA:67,1
DA:68,0
DA:69,0
DA:71,0
DA:72,0
DA:73,0
DA:74,0
DA:76,0
DA:77,0
DA:78,0
DA:79,0
DA:80,0
DA:83,0
DA:88,1
DA:89,1
DA:99,2
DA:102,2
DA:103,4
DA:104,4
DA:105,4
DA:106,4
DA:107,4
DA:108,4
DA:109,4
DA:110,4
DA:111,4
DA:112,4
DA:113,4
DA:115,2
DA:116,2
DA:117,2
DA:119,2
DA:120,2
DA:121,2
DA:122,2
DA:123,0
DA:124,0
DA:126,2
DA:128,2
DA:129,2
DA:133,1
DA:134,1
DA:135,1
DA:136,1
DA:137,1
DA:138,1
DA:139,1
DA:141,1
DA:142,1
DA:143,1
DA:144,1
DA:145,1
DA:146,1
DA:147,1
BRF:0
BRH:0
LF:106
LH:65
end_of_record
SF:/Users/davidirvine/Desktop/Devel/projects/x0x/src/cli/commands/discovery.rs
FN:46,_RNvNtNtNtCsfB8W1BOG4Wp_3x0x3cli8commands9discovery12reachability
FN:21,_RNvNtNtNtCsfB8W1BOG4Wp_3x0x3cli8commands9discovery3get
FN:36,_RNvNtNtNtCsfB8W1BOG4Wp_3x0x3cli8commands9discovery4find
FN:7,_RNvNtNtNtCsfB8W1BOG4Wp_3x0x3cli8commands9discovery4list
FN:64,_RNvNtNtNtCsfB8W1BOG4Wp_3x0x3cli8commands9discovery7by_user
FN:56,_RNvNtNtNtCsfB8W1BOG4Wp_3x0x3cli8commands9discovery7machine
FN:46,_RNCNvNtNtNtCsfB8W1BOG4Wp_3x0x3cli8commands9discovery12reachability0B9_
FN:21,_RNCNvNtNtNtCsfB8W1BOG4Wp_3x0x3cli8commands9discovery3get0B9_
FN:36,_RNCNvNtNtNtCsfB8W1BOG4Wp_3x0x3cli8commands9discovery4find0B9_
FN:7,_RNCNvNtNtNtCsfB8W1BOG4Wp_3x0x3cli8commands9discovery4list0B9_
FN:64,_RNCNvNtNtNtCsfB8W1BOG4Wp_3x0x3cli8commands9discovery7by_user0B9_
FN:56,_RNCNvNtNtNtCsfB8W1BOG4Wp_3x0x3cli8commands9discovery7machine0B9_
FN:79,_RNvNtNtNtNtCs6t3ktUJwJ8n_3x0x3cli8commands9discovery5tests17start_mock_server
FN:123,_RNvNtNtNtNtCs6t3ktUJwJ8n_3x0x3cli8commands9discovery5testss_25get_returns_mock_response
FN:131,_RNvNtNtNtNtCs6t3ktUJwJ8n_3x0x3cli8commands9discovery5testss_26find_returns_mock_response
FN:113,_RNvNtNtNtNtCs6t3ktUJwJ8n_3x0x3cli8commands9discovery5testss_26list_returns_mock_response
FN:155,_RNvNtNtNtNtCs6t3ktUJwJ8n_3x0x3cli8commands9discovery5testss_29by_user_returns_mock_response
FN:147,_RNvNtNtNtNtCs6t3ktUJwJ8n_3x0x3cli8commands9discovery5testss_29machine_returns_mock_response
FN:139,_RNvNtNtNtNtCs6t3ktUJwJ8n_3x0x3cli8commands9discovery5testss_34reachability_returns_mock_response
FN:85,_RNCNCNCNvNtNtNtNtCs6t3ktUJwJ8n_3x0x3cli8commands9discovery5tests17start_mock_server000Bf_
FN:101,_RNCNCNCNvNtNtNtNtCs6t3ktUJwJ8n_3x0x3cli8commands9discovery5tests17start_mock_server0s_00Bf_
FN:83,_RNCNCNvNtNtNtNtCs6t3ktUJwJ8n_3x0x3cli8commands9discovery5tests17start_mock_server00Bd_
FN:99,_RNCNCNvNtNtNtNtCs6t3ktUJwJ8n_3x0x3cli8commands9discovery5tests17start_mock_server0s_0Bd_
FN:79,_RNCNvNtNtNtNtCs6t3ktUJwJ8n_3x0x3cli8commands9discovery5tests17start_mock_server0Bb_
FN:123,_RNCNvNtNtNtNtCs6t3ktUJwJ8n_3x0x3cli8commands9discovery5testss_25get_returns_mock_response0Bb_
FN:131,_RNCNvNtNtNtNtCs6t3ktUJwJ8n_3x0x3cli8commands9discovery5testss_26find_returns_mock_response0Bb_
FN:113,_RNCNvNtNtNtNtCs6t3ktUJwJ8n_3x0x3cli8commands9discovery5testss_26list_returns_mock_response0Bb_
FN:155,_RNCNvNtNtNtNtCs6t3ktUJwJ8n_3x0x3cli8commands9discovery5testss_29by_user_returns_mock_response0Bb_
FN:147,_RNCNvNtNtNtNtCs6t3ktUJwJ8n_3x0x3cli8commands9discovery5testss_29machine_returns_mock_response0Bb_
FN:139,_RNCNvNtNtNtNtCs6t3ktUJwJ8n_3x0x3cli8commands9discovery5testss_34reachability_returns_mock_response0Bb_
FN:46,_RNvNtNtNtCs6t3ktUJwJ8n_3x0x3cli8commands9discovery12reachability
FN:21,_RNvNtNtNtCs6t3ktUJwJ8n_3x0x3cli8commands9discovery3get
FN:36,_RNvNtNtNtCs6t3ktUJwJ8n_3x0x3cli8commands9discovery4find
FN:7,_RNvNtNtNtCs6t3ktUJwJ8n_3x0x3cli8commands9discovery4list
FN:64,_RNvNtNtNtCs6t3ktUJwJ8n_3x0x3cli8commands9discovery7by_user
FN:56,_RNvNtNtNtCs6t3ktUJwJ8n_3x0x3cli8commands9discovery7machine
FN:46,_RNCNvNtNtNtCs6t3ktUJwJ8n_3x0x3cli8commands9discovery12reachability0B9_
FN:21,_RNCNvNtNtNtCs6t3ktUJwJ8n_3x0x3cli8commands9discovery3get0B9_
FN:36,_RNCNvNtNtNtCs6t3ktUJwJ8n_3x0x3cli8commands9discovery4find0B9_
FN:7,_RNCNvNtNtNtCs6t3ktUJwJ8n_3x0x3cli8commands9discovery4list0B9_
FN:64,_RNCNvNtNtNtCs6t3ktUJwJ8n_3x0x3cli8commands9discovery7by_user0B9_
FN:56,_RNCNvNtNtNtCs6t3ktUJwJ8n_3x0x3cli8commands9discovery7machine0B9_
FNDA:0,_RNvNtNtNtCsfB8W1BOG4Wp_3x0x3cli8commands9discovery12reachability
FNDA:0,_RNvNtNtNtCsfB8W1BOG4Wp_3x0x3cli8commands9discovery3get
FNDA:0,_RNvNtNtNtCsfB8W1BOG4Wp_3x0x3cli8commands9discovery4find
FNDA:0,_RNvNtNtNtCsfB8W1BOG4Wp_3x0x3cli8commands9discovery4list
FNDA:0,_RNvNtNtNtCsfB8W1BOG4Wp_3x0x3cli8commands9discovery7by_user
FNDA:0,_RNvNtNtNtCsfB8W1BOG4Wp_3x0x3cli8commands9discovery7machine
FNDA:0,_RNCNvNtNtNtCsfB8W1BOG4Wp_3x0x3cli8commands9discovery12reachability0B9_
FNDA:0,_RNCNvNtNtNtCsfB8W1BOG4Wp_3x0x3cli8commands9discovery3get0B9_
FNDA:0,_RNCNvNtNtNtCsfB8W1BOG4Wp_3x0x3cli8commands9discovery4find0B9_
FNDA:0,_RNCNvNtNtNtCsfB8W1BOG4Wp_3x0x3cli8commands9discovery4list0B9_
FNDA:0,_RNCNvNtNtNtCsfB8W1BOG4Wp_3x0x3cli8commands9discovery7by_user0B9_
FNDA:0,_RNCNvNtNtNtCsfB8W1BOG4Wp_3x0x3cli8commands9discovery7machine0B9_
FNDA:6,_RNvNtNtNtNtCs6t3ktUJwJ8n_3x0x3cli8commands9discovery5tests17start_mock_server
FNDA:1,_RNvNtNtNtNtCs6t3ktUJwJ8n_3x0x3cli8commands9discovery5testss_25get_returns_mock_response
FNDA:1,_RNvNtNtNtNtCs6t3ktUJwJ8n_3x0x3cli8commands9discovery5testss_26find_returns_mock_response
FNDA:1,_RNvNtNtNtNtCs6t3ktUJwJ8n_3x0x3cli8commands9discovery5testss_26list_returns_mock_response
FNDA:1,_RNvNtNtNtNtCs6t3ktUJwJ8n_3x0x3cli8commands9discovery5testss_29by_user_returns_mock_response
FNDA:1,_RNvNtNtNtNtCs6t3ktUJwJ8n_3x0x3cli8commands9discovery5testss_29machine_returns_mock_response
FNDA:1,_RNvNtNtNtNtCs6t3ktUJwJ8n_3x0x3cli8commands9discovery5testss_34reachability_returns_mock_response
FNDA:12,_RNCNCNCNvNtNtNtNtCs6t3ktUJwJ8n_3x0x3cli8commands9discovery5tests17start_mock_server000Bf_
FNDA:6,_RNCNCNCNvNtNtNtNtCs6t3ktUJwJ8n_3x0x3cli8commands9discovery5tests17start_mock_server0s_00Bf_
FNDA:12,_RNCNCNvNtNtNtNtCs6t3ktUJwJ8n_3x0x3cli8commands9discovery5tests17start_mock_server00Bd_
FNDA:6,_RNCNCNvNtNtNtNtCs6t3ktUJwJ8n_3x0x3cli8commands9discovery5tests17start_mock_server0s_0Bd_
FNDA:6,_RNCNvNtNtNtNtCs6t3ktUJwJ8n_3x0x3cli8commands9discovery5tests17start_mock_server0Bb_
FNDA:1,_RNCNvNtNtNtNtCs6t3ktUJwJ8n_3x0x3cli8commands9discovery5testss_25get_returns_mock_response0Bb_
FNDA:1,_RNCNvNtNtNtNtCs6t3ktUJwJ8n_3x0x3cli8commands9discovery5testss_26find_returns_mock_response0Bb_
FNDA:1,_RNCNvNtNtNtNtCs6t3ktUJwJ8n_3x0x3cli8commands9discovery5testss_26list_returns_mock_response0Bb_
FNDA:1,_RNCNvNtNtNtNtCs6t3ktUJwJ8n_3x0x3cli8commands9discovery5testss_29by_user_returns_mock_response0Bb_
FNDA:1,_RNCNvNtNtNtNtCs6t3ktUJwJ8n_3x0x3cli8commands9discovery5testss_29machine_returns_mock_response0Bb_
FNDA:1,_RNCNvNtNtNtNtCs6t3ktUJwJ8n_3x0x3cli8commands9discovery5testss_34reachability_returns_mock_response0Bb_
FNDA:1,_RNvNtNtNtCs6t3ktUJwJ8n_3x0x3cli8commands9discovery12reachability
FNDA:1,_RNvNtNtNtCs6t3ktUJwJ8n_3x0x3cli8commands9discovery3get
FNDA:1,_RNvNtNtNtCs6t3ktUJwJ8n_3x0x3cli8commands9discovery4find
FNDA:1,_RNvNtNtNtCs6t3ktUJwJ8n_3x0x3cli8commands9discovery4list
FNDA:1,_RNvNtNtNtCs6t3ktUJwJ8n_3x0x3cli8commands9discovery7by_user
FNDA:1,_RNvNtNtNtCs6t3ktUJwJ8n_3x0x3cli8commands9discovery7machine
FNDA:1,_RNCNvNtNtNtCs6t3ktUJwJ8n_3x0x3cli8commands9discovery12reachability0B9_
FNDA:1,_RNCNvNtNtNtCs6t3ktUJwJ8n_3x0x3cli8commands9discovery3get0B9_
FNDA:1,_RNCNvNtNtNtCs6t3ktUJwJ8n_3x0x3cli8commands9discovery4find0B9_
FNDA:1,_RNCNvNtNtNtCs6t3ktUJwJ8n_3x0x3cli8commands9discovery4list0B9_
FNDA:1,_RNCNvNtNtNtCs6t3ktUJwJ8n_3x0x3cli8commands9discovery7by_user0B9_
FNDA:1,_RNCNvNtNtNtCs6t3ktUJwJ8n_3x0x3cli8commands9discovery7machine0B9_
FNF:30
FNH:30
DA:7,1
DA:8,1
DA:9,1
DA:10,0
DA:11,0
DA:12,0
DA:14,1
DA:16,1
DA:17,1
DA:18,1
DA:21,1
DA:22,1
DA:23,1
DA:24,1
DA:25,0
DA:26,0
DA:27,0
DA:29,1
DA:31,1
DA:32,1
DA:33,1
DA:36,1
DA:37,1
DA:38,1
DA:39,1
DA:40,1
DA:41,1
DA:42,1
DA:43,1
DA:46,1
DA:47,1
DA:48,1
DA:49,1
DA:50,1
DA:51,1
DA:52,1
DA:53,1
DA:56,1
DA:57,1
DA:58,1
DA:59,1
DA:60,1
DA:61,1
DA:64,1
DA:65,1
DA:66,1
DA:67,1
DA:68,1
DA:69,1
DA:79,6
DA:82,6
DA:83,12
DA:84,12
DA:85,12
DA:86,12
DA:87,12
DA:88,12
DA:89,12
DA:90,12
DA:91,12
DA:92,12
DA:93,12
DA:95,6
DA:96,6
DA:97,6
DA:99,6
DA:100,6
DA:101,6
DA:102,6
DA:103,0
DA:104,0
DA:106,6
DA:108,6
DA:109,6
DA:113,1
DA:114,1
DA:115,1
DA:116,1
DA:117,1
DA:118,1
DA:119,1
DA:123,1
DA:124,1
DA:125,1
DA:126,1
DA:127,1
DA:128,1
DA:129,1
DA:131,1
DA:132,1
DA:133,1
DA:134,1
DA:135,1
DA:136,1
DA:137,1
DA:139,1
DA:140,1
DA:141,1
DA:142,1
DA:143,1
DA:144,1
DA:145,1
DA:147,1
DA:148,1
DA:149,1
DA:150,1
DA:151,1
DA:152,1
DA:153,1
DA:155,1
DA:156,1
DA:157,1
DA:158,1
DA:159,1
DA:160,1
DA:161,1
BRF:0
BRH:0
LF:138
LH:130
end_of_record
SF:/Users/davidirvine/Desktop/Devel/projects/x0x/src/cli/commands/exec.rs
FN:103,_RNvNtNtNtCsfB8W1BOG4Wp_3x0x3cli8commands4exec11diagnostics
FN:26,_RNvNtNtNtCsfB8W1BOG4Wp_3x0x3cli8commands4exec3run
FN:85,_RNvNtNtNtCsfB8W1BOG4Wp_3x0x3cli8commands4exec6cancel
FN:96,_RNvNtNtNtCsfB8W1BOG4Wp_3x0x3cli8commands4exec8sessions
FN:41,_RNCNCNvNtNtNtCsfB8W1BOG4Wp_3x0x3cli8commands4exec3run00Bb_
FN:58,_RNCNCNvNtNtNtCsfB8W1BOG4Wp_3x0x3cli8commands4exec3run0s0_0Bb_
FN:64,_RNCNCNvNtNtNtCsfB8W1BOG4Wp_3x0x3cli8commands4exec3run0s1_0Bb_
FN:70,_RNCNCNvNtNtNtCsfB8W1BOG4Wp_3x0x3cli8commands4exec3run0s2_0Bb_
FN:73,_RNCNCNvNtNtNtCsfB8W1BOG4Wp_3x0x3cli8commands4exec3run0s3_0Bb_
FN:76,_RNCNCNvNtNtNtCsfB8W1BOG4Wp_3x0x3cli8commands4exec3run0s4_0Bb_
FN:50,_RNCNCNvNtNtNtCsfB8W1BOG4Wp_3x0x3cli8commands4exec3run0s_0Bb_
FN:103,_RNCNvNtNtNtCsfB8W1BOG4Wp_3x0x3cli8commands4exec11diagnostics0B9_
FN:32,_RNCNvNtNtNtCsfB8W1BOG4Wp_3x0x3cli8commands4exec3run0B9_
FN:85,_RNCNvNtNtNtCsfB8W1BOG4Wp_3x0x3cli8commands4exec6cancel0B9_
FN:96,_RNCNvNtNtNtCsfB8W1BOG4Wp_3x0x3cli8commands4exec8sessions0B9_
FN:26,_RNvNtNtNtCs6t3ktUJwJ8n_3x0x3cli8commands4exec3run
FN:41,_RNCNCNvNtNtNtCs6t3ktUJwJ8n_3x0x3cli8commands4exec3run00Bb_
FN:58,_RNCNCNvNtNtNtCs6t3ktUJwJ8n_3x0x3cli8commands4exec3run0s0_0Bb_
FN:64,_RNCNCNvNtNtNtCs6t3ktUJwJ8n_3x0x3cli8commands4exec3run0s1_0Bb_
FN:70,_RNCNCNvNtNtNtCs6t3ktUJwJ8n_3x0x3cli8commands4exec3run0s2_0Bb_
FN:73,_RNCNCNvNtNtNtCs6t3ktUJwJ8n_3x0x3cli8commands4exec3run0s3_0Bb_
FN:76,_RNCNCNvNtNtNtCs6t3ktUJwJ8n_3x0x3cli8commands4exec3run0s4_0Bb_
FN:50,_RNCNCNvNtNtNtCs6t3ktUJwJ8n_3x0x3cli8commands4exec3run0s_0Bb_
FN:103,_RNCNvNtNtNtCs6t3ktUJwJ8n_3x0x3cli8commands4exec11diagnostics0B9_
FN:32,_RNCNvNtNtNtCs6t3ktUJwJ8n_3x0x3cli8commands4exec3run0B9_
FN:85,_RNCNvNtNtNtCs6t3ktUJwJ8n_3x0x3cli8commands4exec6cancel0B9_
FN:96,_RNCNvNtNtNtCs6t3ktUJwJ8n_3x0x3cli8commands4exec8sessions0B9_
FN:117,_RNvNtNtNtNtCs6t3ktUJwJ8n_3x0x3cli8commands4exec5tests17start_mock_server
FN:169,_RNvNtNtNtNtCs6t3ktUJwJ8n_3x0x3cli8commands4exec5testss_28cancel_returns_mock_response
FN:151,_RNvNtNtNtNtCs6t3ktUJwJ8n_3x0x3cli8commands4exec5testss_30sessions_returns_mock_response
FN:159,_RNvNtNtNtNtCs6t3ktUJwJ8n_3x0x3cli8commands4exec5testss_33diagnostics_returns_mock_response
FN:123,_RNCNCNCNvNtNtNtNtCs6t3ktUJwJ8n_3x0x3cli8commands4exec5tests17start_mock_server000Bf_
FN:139,_RNCNCNCNvNtNtNtNtCs6t3ktUJwJ8n_3x0x3cli8commands4exec5tests17start_mock_server0s_00Bf_
FN:121,_RNCNCNvNtNtNtNtCs6t3ktUJwJ8n_3x0x3cli8commands4exec5tests17start_mock_server00Bd_
FN:137,_RNCNCNvNtNtNtNtCs6t3ktUJwJ8n_3x0x3cli8commands4exec5tests17start_mock_server0s_0Bd_
FN:117,_RNCNvNtNtNtNtCs6t3ktUJwJ8n_3x0x3cli8commands4exec5tests17start_mock_server0Bb_
FN:169,_RNCNvNtNtNtNtCs6t3ktUJwJ8n_3x0x3cli8commands4exec5testss_28cancel_returns_mock_response0Bb_
FN:151,_RNCNvNtNtNtNtCs6t3ktUJwJ8n_3x0x3cli8commands4exec5testss_30sessions_returns_mock_response0Bb_
FN:159,_RNCNvNtNtNtNtCs6t3ktUJwJ8n_3x0x3cli8commands4exec5testss_33diagnostics_returns_mock_response0Bb_
FN:103,_RNvNtNtNtCs6t3ktUJwJ8n_3x0x3cli8commands4exec11diagnostics
FN:85,_RNvNtNtNtCs6t3ktUJwJ8n_3x0x3cli8commands4exec6cancel
FN:96,_RNvNtNtNtCs6t3ktUJwJ8n_3x0x3cli8commands4exec8sessions
FNDA:0,_RNvNtNtNtCsfB8W1BOG4Wp_3x0x3cli8commands4exec11diagnostics
FNDA:0,_RNvNtNtNtCsfB8W1BOG4Wp_3x0x3cli8commands4exec3run
FNDA:0,_RNvNtNtNtCsfB8W1BOG4Wp_3x0x3cli8commands4exec6cancel
FNDA:0,_RNvNtNtNtCsfB8W1BOG4Wp_3x0x3cli8commands4exec8sessions
FNDA:0,_RNCNCNvNtNtNtCsfB8W1BOG4Wp_3x0x3cli8commands4exec3run00Bb_
FNDA:0,_RNCNCNvNtNtNtCsfB8W1BOG4Wp_3x0x3cli8commands4exec3run0s0_0Bb_
FNDA:0,_RNCNCNvNtNtNtCsfB8W1BOG4Wp_3x0x3cli8commands4exec3run0s1_0Bb_
FNDA:0,_RNCNCNvNtNtNtCsfB8W1BOG4Wp_3x0x3cli8commands4exec3run0s2_0Bb_
FNDA:0,_RNCNCNvNtNtNtCsfB8W1BOG4Wp_3x0x3cli8commands4exec3run0s3_0Bb_
FNDA:0,_RNCNCNvNtNtNtCsfB8W1BOG4Wp_3x0x3cli8commands4exec3run0s4_0Bb_
FNDA:0,_RNCNCNvNtNtNtCsfB8W1BOG4Wp_3x0x3cli8commands4exec3run0s_0Bb_
FNDA:0,_RNCNvNtNtNtCsfB8W1BOG4Wp_3x0x3cli8commands4exec11diagnostics0B9_
FNDA:0,_RNCNvNtNtNtCsfB8W1BOG4Wp_3x0x3cli8commands4exec3run0B9_
FNDA:0,_RNCNvNtNtNtCsfB8W1BOG4Wp_3x0x3cli8commands4exec6cancel0B9_
FNDA:0,_RNCNvNtNtNtCsfB8W1BOG4Wp_3x0x3cli8commands4exec8sessions0B9_
FNDA:0,_RNvNtNtNtCs6t3ktUJwJ8n_3x0x3cli8commands4exec3run
FNDA:0,_RNCNCNvNtNtNtCs6t3ktUJwJ8n_3x0x3cli8commands4exec3run00Bb_
FNDA:0,_RNCNCNvNtNtNtCs6t3ktUJwJ8n_3x0x3cli8commands4exec3run0s0_0Bb_
FNDA:0,_RNCNCNvNtNtNtCs6t3ktUJwJ8n_3x0x3cli8commands4exec3run0s1_0Bb_
FNDA:0,_RNCNCNvNtNtNtCs6t3ktUJwJ8n_3x0x3cli8commands4exec3run0s2_0Bb_
FNDA:0,_RNCNCNvNtNtNtCs6t3ktUJwJ8n_3x0x3cli8commands4exec3run0s3_0Bb_
FNDA:0,_RNCNCNvNtNtNtCs6t3ktUJwJ8n_3x0x3cli8commands4exec3run0s4_0Bb_
FNDA:0,_RNCNCNvNtNtNtCs6t3ktUJwJ8n_3x0x3cli8commands4exec3run0s_0Bb_
FNDA:1,_RNCNvNtNtNtCs6t3ktUJwJ8n_3x0x3cli8commands4exec11diagnostics0B9_
FNDA:0,_RNCNvNtNtNtCs6t3ktUJwJ8n_3x0x3cli8commands4exec3run0B9_
FNDA:1,_RNCNvNtNtNtCs6t3ktUJwJ8n_3x0x3cli8commands4exec6cancel0B9_
FNDA:1,_RNCNvNtNtNtCs6t3ktUJwJ8n_3x0x3cli8commands4exec8sessions0B9_
FNDA:3,_RNvNtNtNtNtCs6t3ktUJwJ8n_3x0x3cli8commands4exec5tests17start_mock_server
FNDA:1,_RNvNtNtNtNtCs6t3ktUJwJ8n_3x0x3cli8commands4exec5testss_28cancel_returns_mock_response
FNDA:1,_RNvNtNtNtNtCs6t3ktUJwJ8n_3x0x3cli8commands4exec5testss_30sessions_returns_mock_response
FNDA:1,_RNvNtNtNtNtCs6t3ktUJwJ8n_3x0x3cli8commands4exec5testss_33diagnostics_returns_mock_response
FNDA:3,_RNCNCNCNvNtNtNtNtCs6t3ktUJwJ8n_3x0x3cli8commands4exec5tests17start_mock_server000Bf_
FNDA:3,_RNCNCNCNvNtNtNtNtCs6t3ktUJwJ8n_3x0x3cli8commands4exec5tests17start_mock_server0s_00Bf_
FNDA:3,_RNCNCNvNtNtNtNtCs6t3ktUJwJ8n_3x0x3cli8commands4exec5tests17start_mock_server00Bd_
FNDA:3,_RNCNCNvNtNtNtNtCs6t3ktUJwJ8n_3x0x3cli8commands4exec5tests17start_mock_server0s_0Bd_
FNDA:3,_RNCNvNtNtNtNtCs6t3ktUJwJ8n_3x0x3cli8commands4exec5tests17start_mock_server0Bb_
FNDA:1,_RNCNvNtNtNtNtCs6t3ktUJwJ8n_3x0x3cli8commands4exec5testss_28cancel_returns_mock_response0Bb_
FNDA:1,_RNCNvNtNtNtNtCs6t3ktUJwJ8n_3x0x3cli8commands4exec5testss_30sessions_returns_mock_response0Bb_
FNDA:1,_RNCNvNtNtNtNtCs6t3ktUJwJ8n_3x0x3cli8commands4exec5testss_33diagnostics_returns_mock_response0Bb_
FNDA:1,_RNvNtNtNtCs6t3ktUJwJ8n_3x0x3cli8commands4exec11diagnostics
FNDA:1,_RNvNtNtNtCs6t3ktUJwJ8n_3x0x3cli8commands4exec6cancel
FNDA:1,_RNvNtNtNtCs6t3ktUJwJ8n_3x0x3cli8commands4exec8sessions
FNF:27
FNH:18
DA:26,0
DA:27,0
DA:28,0
DA:29,0
DA:30,0
DA:31,0
DA:32,0
DA:33,0
DA:34,0
DA:37,0
DA:38,0
DA:39,0
DA:40,0
DA:41,0
DA:42,0
DA:44,0
DA:46,0
DA:47,0
DA:48,0
DA:49,0
DA:50,0
DA:52,0
DA:53,0
DA:54,0
DA:55,0
DA:56,0
DA:58,0
DA:59,0
DA:60,0
DA:61,0
DA:62,0
DA:63,0
DA:64,0
DA:65,0
DA:66,0
DA:67,0
DA:68,0
DA:69,0
DA:70,0
DA:71,0
DA:72,0
DA:73,0
DA:74,0
DA:75,0
DA:76,0
DA:77,0
DA:78,0
DA:79,0
DA:80,0
DA:81,0
DA:82,0
DA:85,1
DA:86,1
DA:87,1
DA:88,1
DA:89,1
DA:90,1
DA:91,1
DA:92,1
DA:93,1
DA:96,1
DA:97,1
DA:98,1
DA:99,1
DA:100,1
DA:103,1
DA:104,1
DA:105,1
DA:106,1
DA:107,1
DA:117,3
DA:120,3
DA:121,3
DA:122,3
DA:123,3
DA:124,3
DA:125,3
DA:126,3
DA:127,3
DA:128,3
DA:129,3
DA:130,3
DA:131,3
DA:133,3
DA:134,3
DA:135,3
DA:137,3
DA:138,3
DA:139,3
DA:140,3
DA:141,0
DA:142,0
DA:144,3
DA:146,3
DA:147,3
DA:151,1
DA:152,1
DA:153,1
DA:154,1
DA:155,1
DA:156,1
DA:157,1
DA:159,1
DA:160,1
DA:161,1
DA:162,1
DA:163,1
DA:164,1
DA:165,1
DA:169,1
DA:170,1
DA:171,1
DA:172,1
DA:173,1
DA:174,1
DA:175,1
BRF:0
BRH:0
LF:137
LH:76
end_of_record
SF:/Users/davidirvine/Desktop/Devel/projects/x0x/src/cli/commands/files.rs
FN:105,_RNvNtNtNtCsfB8W1BOG4Wp_3x0x3cli8commands5files11accept_file
FN:115,_RNvNtNtNtCsfB8W1BOG4Wp_3x0x3cli8commands5files11reject_file
FN:44,_RNvNtNtNtCsfB8W1BOG4Wp_3x0x3cli8commands5files12receive_file
FN:95,_RNvNtNtNtCsfB8W1BOG4Wp_3x0x3cli8commands5files15transfer_status
FN:9,_RNvNtNtNtCsfB8W1BOG4Wp_3x0x3cli8commands5files9send_file
FN:87,_RNvNtNtNtCsfB8W1BOG4Wp_3x0x3cli8commands5files9transfers
FN:62,_RNCNCNCNvNtNtNtCsfB8W1BOG4Wp_3x0x3cli8commands5files12receive_file0s_00Bd_
FN:65,_RNCNCNCNvNtNtNtCsfB8W1BOG4Wp_3x0x3cli8commands5files12receive_file0s_0s0_0Bd_
FN:66,_RNCNCNCNvNtNtNtCsfB8W1BOG4Wp_3x0x3cli8commands5files12receive_file0s_0s1_0Bd_
FN:63,_RNCNCNCNvNtNtNtCsfB8W1BOG4Wp_3x0x3cli8commands5files12receive_file0s_0s_0Bd_
FN:54,_RNCNCNvNtNtNtCsfB8W1BOG4Wp_3x0x3cli8commands5files12receive_file00Bb_
FN:75,_RNCNCNvNtNtNtCsfB8W1BOG4Wp_3x0x3cli8commands5files12receive_file0s0_0Bb_
FN:76,_RNCNCNvNtNtNtCsfB8W1BOG4Wp_3x0x3cli8commands5files12receive_file0s1_0Bb_
FN:77,_RNCNCNvNtNtNtCsfB8W1BOG4Wp_3x0x3cli8commands5files12receive_file0s2_0Bb_
FN:60,_RNCNCNvNtNtNtCsfB8W1BOG4Wp_3x0x3cli8commands5files12receive_file0s_0Bb_
FN:18,_RNCNCNvNtNtNtCsfB8W1BOG4Wp_3x0x3cli8commands5files9send_file00Bb_
FN:19,_RNCNCNvNtNtNtCsfB8W1BOG4Wp_3x0x3cli8commands5files9send_file0s_0Bb_
FN:105,_RNCNvNtNtNtCsfB8W1BOG4Wp_3x0x3cli8commands5files11accept_file0B9_
FN:119,_RNCNvNtNtNtCsfB8W1BOG4Wp_3x0x3cli8commands5files11reject_file0B9_
FN:48,_RNCNvNtNtNtCsfB8W1BOG4Wp_3x0x3cli8commands5files12receive_file0B9_
FN:95,_RNCNvNtNtNtCsfB8W1BOG4Wp_3x0x3cli8commands5files15transfer_status0B9_
FN:9,_RNCNvNtNtNtCsfB8W1BOG4Wp_3x0x3cli8commands5files9send_file0B9_
FN:87,_RNCNvNtNtNtCsfB8W1BOG4Wp_3x0x3cli8commands5files9transfers0B9_
FN:44,_RNvNtNtNtCs6t3ktUJwJ8n_3x0x3cli8commands5files12receive_file
FN:9,_RNvNtNtNtCs6t3ktUJwJ8n_3x0x3cli8commands5files9send_file
FN:139,_RNvNtNtNtNtCs6t3ktUJwJ8n_3x0x3cli8commands5files5tests17start_mock_server
FN:173,_RNvNtNtNtNtCs6t3ktUJwJ8n_3x0x3cli8commands5files5testss_31transfers_returns_mock_response
FN:191,_RNvNtNtNtNtCs6t3ktUJwJ8n_3x0x3cli8commands5files5testss_33accept_file_returns_mock_response
FN:199,_RNvNtNtNtNtCs6t3ktUJwJ8n_3x0x3cli8commands5files5testss_33reject_file_returns_mock_response
FN:181,_RNvNtNtNtNtCs6t3ktUJwJ8n_3x0x3cli8commands5files5testss_37transfer_status_returns_mock_response
FN:105,_RNvNtNtNtCs6t3ktUJwJ8n_3x0x3cli8commands5files11accept_file
FN:115,_RNvNtNtNtCs6t3ktUJwJ8n_3x0x3cli8commands5files11reject_file
FN:95,_RNvNtNtNtCs6t3ktUJwJ8n_3x0x3cli8commands5files15transfer_status
FN:87,_RNvNtNtNtCs6t3ktUJwJ8n_3x0x3cli8commands5files9transfers
FN:62,_RNCNCNCNvNtNtNtCs6t3ktUJwJ8n_3x0x3cli8commands5files12receive_file0s_00Bd_
FN:65,_RNCNCNCNvNtNtNtCs6t3ktUJwJ8n_3x0x3cli8commands5files12receive_file0s_0s0_0Bd_
FN:66,_RNCNCNCNvNtNtNtCs6t3ktUJwJ8n_3x0x3cli8commands5files12receive_file0s_0s1_0Bd_
FN:63,_RNCNCNCNvNtNtNtCs6t3ktUJwJ8n_3x0x3cli8commands5files12receive_file0s_0s_0Bd_
FN:54,_RNCNCNvNtNtNtCs6t3ktUJwJ8n_3x0x3cli8commands5files12receive_file00Bb_
FN:75,_RNCNCNvNtNtNtCs6t3ktUJwJ8n_3x0x3cli8commands5files12receive_file0s0_0Bb_
FN:76,_RNCNCNvNtNtNtCs6t3ktUJwJ8n_3x0x3cli8commands5files12receive_file0s1_0Bb_
FN:77,_RNCNCNvNtNtNtCs6t3ktUJwJ8n_3x0x3cli8commands5files12receive_file0s2_0Bb_
FN:60,_RNCNCNvNtNtNtCs6t3ktUJwJ8n_3x0x3cli8commands5files12receive_file0s_0Bb_
FN:18,_RNCNCNvNtNtNtCs6t3ktUJwJ8n_3x0x3cli8commands5files9send_file00Bb_
FN:19,_RNCNCNvNtNtNtCs6t3ktUJwJ8n_3x0x3cli8commands5files9send_file0s_0Bb_
FN:105,_RNCNvNtNtNtCs6t3ktUJwJ8n_3x0x3cli8commands5files11accept_file0B9_
FN:119,_RNCNvNtNtNtCs6t3ktUJwJ8n_3x0x3cli8commands5files11reject_file0B9_
FN:48,_RNCNvNtNtNtCs6t3ktUJwJ8n_3x0x3cli8commands5files12receive_file0B9_
FN:95,_RNCNvNtNtNtCs6t3ktUJwJ8n_3x0x3cli8commands5files15transfer_status0B9_
FN:9,_RNCNvNtNtNtCs6t3ktUJwJ8n_3x0x3cli8commands5files9send_file0B9_
FN:87,_RNCNvNtNtNtCs6t3ktUJwJ8n_3x0x3cli8commands5files9transfers0B9_
FN:145,_RNCNCNCNvNtNtNtNtCs6t3ktUJwJ8n_3x0x3cli8commands5files5tests17start_mock_server000Bf_
FN:161,_RNCNCNCNvNtNtNtNtCs6t3ktUJwJ8n_3x0x3cli8commands5files5tests17start_mock_server0s_00Bf_
FN:143,_RNCNCNvNtNtNtNtCs6t3ktUJwJ8n_3x0x3cli8commands5files5tests17start_mock_server00Bd_
FN:159,_RNCNCNvNtNtNtNtCs6t3ktUJwJ8n_3x0x3cli8commands5files5tests17start_mock_server0s_0Bd_
FN:139,_RNCNvNtNtNtNtCs6t3ktUJwJ8n_3x0x3cli8commands5files5tests17start_mock_server0Bb_
FN:173,_RNCNvNtNtNtNtCs6t3ktUJwJ8n_3x0x3cli8commands5files5testss_31transfers_returns_mock_response0Bb_
FN:191,_RNCNvNtNtNtNtCs6t3ktUJwJ8n_3x0x3cli8commands5files5testss_33accept_file_returns_mock_response0Bb_
FN:199,_RNCNvNtNtNtNtCs6t3ktUJwJ8n_3x0x3cli8commands5files5testss_33reject_file_returns_mock_response0Bb_
FN:181,_RNCNvNtNtNtNtCs6t3ktUJwJ8n_3x0x3cli8commands5files5testss_37transfer_status_returns_mock_response0Bb_
FNDA:0,_RNvNtNtNtCsfB8W1BOG4Wp_3x0x3cli8commands5files11accept_file
FNDA:0,_RNvNtNtNtCsfB8W1BOG4Wp_3x0x3cli8commands5files11reject_file
FNDA:0,_RNvNtNtNtCsfB8W1BOG4Wp_3x0x3cli8commands5files12receive_file
FNDA:0,_RNvNtNtNtCsfB8W1BOG4Wp_3x0x3cli8commands5files15transfer_status
FNDA:0,_RNvNtNtNtCsfB8W1BOG4Wp_3x0x3cli8commands5files9send_file
FNDA:0,_RNvNtNtNtCsfB8W1BOG4Wp_3x0x3cli8commands5files9transfers
FNDA:0,_RNCNCNCNvNtNtNtCsfB8W1BOG4Wp_3x0x3cli8commands5files12receive_file0s_00Bd_
FNDA:0,_RNCNCNCNvNtNtNtCsfB8W1BOG4Wp_3x0x3cli8commands5files12receive_file0s_0s0_0Bd_
FNDA:0,_RNCNCNCNvNtNtNtCsfB8W1BOG4Wp_3x0x3cli8commands5files12receive_file0s_0s1_0Bd_
FNDA:0,_RNCNCNCNvNtNtNtCsfB8W1BOG4Wp_3x0x3cli8commands5files12receive_file0s_0s_0Bd_
FNDA:0,_RNCNCNvNtNtNtCsfB8W1BOG4Wp_3x0x3cli8commands5files12receive_file00Bb_
FNDA:0,_RNCNCNvNtNtNtCsfB8W1BOG4Wp_3x0x3cli8commands5files12receive_file0s0_0Bb_
FNDA:0,_RNCNCNvNtNtNtCsfB8W1BOG4Wp_3x0x3cli8commands5files12receive_file0s1_0Bb_
FNDA:0,_RNCNCNvNtNtNtCsfB8W1BOG4Wp_3x0x3cli8commands5files12receive_file0s2_0Bb_
FNDA:0,_RNCNCNvNtNtNtCsfB8W1BOG4Wp_3x0x3cli8commands5files12receive_file0s_0Bb_
FNDA:0,_RNCNCNvNtNtNtCsfB8W1BOG4Wp_3x0x3cli8commands5files9send_file00Bb_
FNDA:0,_RNCNCNvNtNtNtCsfB8W1BOG4Wp_3x0x3cli8commands5files9send_file0s_0Bb_
FNDA:0,_RNCNvNtNtNtCsfB8W1BOG4Wp_3x0x3cli8commands5files11accept_file0B9_
FNDA:0,_RNCNvNtNtNtCsfB8W1BOG4Wp_3x0x3cli8commands5files11reject_file0B9_
FNDA:0,_RNCNvNtNtNtCsfB8W1BOG4Wp_3x0x3cli8commands5files12receive_file0B9_
FNDA:0,_RNCNvNtNtNtCsfB8W1BOG4Wp_3x0x3cli8commands5files15transfer_status0B9_
FNDA:0,_RNCNvNtNtNtCsfB8W1BOG4Wp_3x0x3cli8commands5files9send_file0B9_
FNDA:0,_RNCNvNtNtNtCsfB8W1BOG4Wp_3x0x3cli8commands5files9transfers0B9_
FNDA:0,_RNvNtNtNtCs6t3ktUJwJ8n_3x0x3cli8commands5files12receive_file
FNDA:0,_RNvNtNtNtCs6t3ktUJwJ8n_3x0x3cli8commands5files9send_file
FNDA:4,_RNvNtNtNtNtCs6t3ktUJwJ8n_3x0x3cli8commands5files5tests17start_mock_server
FNDA:1,_RNvNtNtNtNtCs6t3ktUJwJ8n_3x0x3cli8commands5files5testss_31transfers_returns_mock_response
FNDA:1,_RNvNtNtNtNtCs6t3ktUJwJ8n_3x0x3cli8commands5files5testss_33accept_file_returns_mock_response
FNDA:1,_RNvNtNtNtNtCs6t3ktUJwJ8n_3x0x3cli8commands5files5testss_33reject_file_returns_mock_response
FNDA:1,_RNvNtNtNtNtCs6t3ktUJwJ8n_3x0x3cli8commands5files5testss_37transfer_status_returns_mock_response
FNDA:1,_RNvNtNtNtCs6t3ktUJwJ8n_3x0x3cli8commands5files11accept_file
FNDA:1,_RNvNtNtNtCs6t3ktUJwJ8n_3x0x3cli8commands5files11reject_file
FNDA:1,_RNvNtNtNtCs6t3ktUJwJ8n_3x0x3cli8commands5files15transfer_status
FNDA:1,_RNvNtNtNtCs6t3ktUJwJ8n_3x0x3cli8commands5files9transfers
FNDA:0,_RNCNCNCNvNtNtNtCs6t3ktUJwJ8n_3x0x3cli8commands5files12receive_file0s_00Bd_
FNDA:0,_RNCNCNCNvNtNtNtCs6t3ktUJwJ8n_3x0x3cli8commands5files12receive_file0s_0s0_0Bd_
FNDA:0,_RNCNCNCNvNtNtNtCs6t3ktUJwJ8n_3x0x3cli8commands5files12receive_file0s_0s1_0Bd_
FNDA:0,_RNCNCNCNvNtNtNtCs6t3ktUJwJ8n_3x0x3cli8commands5files12receive_file0s_0s_0Bd_
FNDA:0,_RNCNCNvNtNtNtCs6t3ktUJwJ8n_3x0x3cli8commands5files12receive_file00Bb_
FNDA:0,_RNCNCNvNtNtNtCs6t3ktUJwJ8n_3x0x3cli8commands5files12receive_file0s0_0Bb_
FNDA:0,_RNCNCNvNtNtNtCs6t3ktUJwJ8n_3x0x3cli8commands5files12receive_file0s1_0Bb_
FNDA:0,_RNCNCNvNtNtNtCs6t3ktUJwJ8n_3x0x3cli8commands5files12receive_file0s2_0Bb_
FNDA:0,_RNCNCNvNtNtNtCs6t3ktUJwJ8n_3x0x3cli8commands5files12receive_file0s_0Bb_
FNDA:0,_RNCNCNvNtNtNtCs6t3ktUJwJ8n_3x0x3cli8commands5files9send_file00Bb_
FNDA:0,_RNCNCNvNtNtNtCs6t3ktUJwJ8n_3x0x3cli8commands5files9send_file0s_0Bb_
FNDA:1,_RNCNvNtNtNtCs6t3ktUJwJ8n_3x0x3cli8commands5files11accept_file0B9_
FNDA:1,_RNCNvNtNtNtCs6t3ktUJwJ8n_3x0x3cli8commands5files11reject_file0B9_
FNDA:0,_RNCNvNtNtNtCs6t3ktUJwJ8n_3x0x3cli8commands5files12receive_file0B9_
FNDA:1,_RNCNvNtNtNtCs6t3ktUJwJ8n_3x0x3cli8commands5files15transfer_status0B9_
FNDA:0,_RNCNvNtNtNtCs6t3ktUJwJ8n_3x0x3cli8commands5files9send_file0B9_
FNDA:1,_RNCNvNtNtNtCs6t3ktUJwJ8n_3x0x3cli8commands5files9transfers0B9_
FNDA:8,_RNCNCNCNvNtNtNtNtCs6t3ktUJwJ8n_3x0x3cli8commands5files5tests17start_mock_server000Bf_
FNDA:4,_RNCNCNCNvNtNtNtNtCs6t3ktUJwJ8n_3x0x3cli8commands5files5tests17start_mock_server0s_00Bf_
FNDA:8,_RNCNCNvNtNtNtNtCs6t3ktUJwJ8n_3x0x3cli8commands5files5tests17start_mock_server00Bd_
FNDA:4,_RNCNCNvNtNtNtNtCs6t3ktUJwJ8n_3x0x3cli8commands5files5tests17start_mock_server0s_0Bd_
FNDA:4,_RNCNvNtNtNtNtCs6t3ktUJwJ8n_3x0x3cli8commands5files5tests17start_mock_server0Bb_
FNDA:1,_RNCNvNtNtNtNtCs6t3ktUJwJ8n_3x0x3cli8commands5files5testss_31transfers_returns_mock_response0Bb_
FNDA:1,_RNCNvNtNtNtNtCs6t3ktUJwJ8n_3x0x3cli8commands5files5testss_33accept_file_returns_mock_response0Bb_
FNDA:1,_RNCNvNtNtNtNtCs6t3ktUJwJ8n_3x0x3cli8commands5files5testss_33reject_file_returns_mock_response0Bb_
FNDA:1,_RNCNvNtNtNtNtCs6t3ktUJwJ8n_3x0x3cli8commands5files5testss_37transfer_status_returns_mock_response0Bb_
FNF:37
FNH:22
DA:9,0
DA:10,0
DA:12,0
DA:13,0
DA:14,0
DA:16,0
DA:17,0
DA:18,0
DA:19,0
DA:21,0
DA:22,0
DA:25,0
DA:26,0
DA:27,0
DA:29,0
DA:30,0
DA:31,0
DA:32,0
DA:33,0
DA:34,0
DA:35,0
DA:38,0
DA:39,0
DA:40,0
DA:41,0
DA:44,0
DA:45,0
DA:46,0
DA:47,0
DA:48,0
DA:49,0
DA:51,0
DA:52,0
DA:53,0
DA:54,0
DA:55,0
DA:56,0
DA:58,0
DA:59,0
DA:60,0
DA:61,0
DA:62,0
DA:63,0
DA:64,0
DA:65,0
DA:66,0
DA:67,0
DA:68,0
DA:70,0
DA:71,0
DA:72,0
DA:73,0
DA:74,0
DA:75,0
DA:76,0
DA:77,0
DA:78,0
DA:80,0
DA:81,0
DA:83,0
DA:84,0
DA:87,1
DA:88,1
DA:89,1
DA:90,1
DA:91,1
DA:92,1
DA:95,1
DA:96,1
DA:97,1
DA:98,1
DA:99,1
DA:100,1
DA:101,1
DA:102,1
DA:105,1
DA:106,1
DA:107,1
DA:108,1
DA:109,1
DA:110,1
DA:111,1
DA:112,1
DA:115,1
DA:116,1
DA:117,1
DA:118,1
DA:119,1
DA:120,1
DA:121,1
DA:122,1
DA:124,1
DA:125,1
DA:126,1
DA:127,1
DA:128,1
DA:129,1
DA:139,4
DA:142,4
DA:143,8
DA:144,8
DA:145,8
DA:146,8
DA:147,8
DA:148,8
DA:149,8
DA:150,8
DA:151,8
DA:152,8
DA:153,8
DA:155,4
DA:156,4
DA:157,4
DA:159,4
DA:160,4
DA:161,4
DA:162,4
DA:163,0
DA:164,0
DA:166,4
DA:168,4
DA:169,4
DA:173,1
DA:174,1
DA:175,1
DA:176,1
DA:177,1
DA:178,1
DA:179,1
DA:181,1
DA:182,1
DA:183,1
DA:184,1
DA:185,1
DA:186,1
DA:187,1
DA:191,1
DA:192,1
DA:193,1
DA:194,1
DA:195,1
DA:196,1
DA:197,1
DA:199,1
DA:200,1
DA:201,1
DA:202,1
DA:203,1
DA:204,1
DA:205,1
BRF:0
BRH:0
LF:179
LH:103
end_of_record
SF:/Users/davidirvine/Desktop/Devel/projects/x0x/src/cli/commands/find.rs
FN:8,_RNvNtNtNtCsfB8W1BOG4Wp_3x0x3cli8commands4find4find
FN:14,_RNCNCNvNtNtNtCsfB8W1BOG4Wp_3x0x3cli8commands4find4find00Bb_
FN:84,_RNCNCNvNtNtNtCsfB8W1BOG4Wp_3x0x3cli8commands4find4find0s0_0Bb_
FN:85,_RNCNCNvNtNtNtCsfB8W1BOG4Wp_3x0x3cli8commands4find4find0s1_0Bb_
FN:71,_RNCNCNvNtNtNtCsfB8W1BOG4Wp_3x0x3cli8commands4find4find0s_0Bb_
FN:8,_RNCNvNtNtNtCsfB8W1BOG4Wp_3x0x3cli8commands4find4find0B9_
FN:8,_RNvNtNtNtCs6t3ktUJwJ8n_3x0x3cli8commands4find4find
FN:122,_RNCNCNCNvNtNtNtNtCs6t3ktUJwJ8n_3x0x3cli8commands4find5tests17start_mock_server000Bf_
FN:138,_RNCNCNCNvNtNtNtNtCs6t3ktUJwJ8n_3x0x3cli8commands4find5tests17start_mock_server0s_00Bf_
FN:120,_RNCNCNvNtNtNtNtCs6t3ktUJwJ8n_3x0x3cli8commands4find5tests17start_mock_server00Bd_
FN:136,_RNCNCNvNtNtNtNtCs6t3ktUJwJ8n_3x0x3cli8commands4find5tests17start_mock_server0s_0Bd_
FN:116,_RNCNvNtNtNtNtCs6t3ktUJwJ8n_3x0x3cli8commands4find5tests17start_mock_server0Bb_
FN:150,_RNCNvNtNtNtNtCs6t3ktUJwJ8n_3x0x3cli8commands4find5testss_29find_rejects_wrong_word_count0Bb_
FN:162,_RNCNvNtNtNtNtCs6t3ktUJwJ8n_3x0x3cli8commands4find5testss_37find_rejects_wrong_separator_position0Bb_
FN:173,_RNCNvNtNtNtNtCs6t3ktUJwJ8n_3x0x3cli8commands4find5testss_43find_with_valid_words_returns_mock_response0Bb_
FN:116,_RNvNtNtNtNtCs6t3ktUJwJ8n_3x0x3cli8commands4find5tests17start_mock_server
FN:150,_RNvNtNtNtNtCs6t3ktUJwJ8n_3x0x3cli8commands4find5testss_29find_rejects_wrong_word_count
FN:162,_RNvNtNtNtNtCs6t3ktUJwJ8n_3x0x3cli8commands4find5testss_37find_rejects_wrong_separator_position
FN:173,_RNvNtNtNtNtCs6t3ktUJwJ8n_3x0x3cli8commands4find5testss_43find_with_valid_words_returns_mock_response
FN:14,_RNCNCNvNtNtNtCs6t3ktUJwJ8n_3x0x3cli8commands4find4find00Bb_
FN:84,_RNCNCNvNtNtNtCs6t3ktUJwJ8n_3x0x3cli8commands4find4find0s0_0Bb_
FN:85,_RNCNCNvNtNtNtCs6t3ktUJwJ8n_3x0x3cli8commands4find4find0s1_0Bb_
FN:71,_RNCNCNvNtNtNtCs6t3ktUJwJ8n_3x0x3cli8commands4find4find0s_0Bb_
FN:8,_RNCNvNtNtNtCs6t3ktUJwJ8n_3x0x3cli8commands4find4find0B9_
FNDA:0,_RNvNtNtNtCsfB8W1BOG4Wp_3x0x3cli8commands4find4find
FNDA:0,_RNCNCNvNtNtNtCsfB8W1BOG4Wp_3x0x3cli8commands4find4find00Bb_
FNDA:0,_RNCNCNvNtNtNtCsfB8W1BOG4Wp_3x0x3cli8commands4find4find0s0_0Bb_
FNDA:0,_RNCNCNvNtNtNtCsfB8W1BOG4Wp_3x0x3cli8commands4find4find0s1_0Bb_
FNDA:0,_RNCNCNvNtNtNtCsfB8W1BOG4Wp_3x0x3cli8commands4find4find0s_0Bb_
FNDA:0,_RNCNvNtNtNtCsfB8W1BOG4Wp_3x0x3cli8commands4find4find0B9_
FNDA:3,_RNvNtNtNtCs6t3ktUJwJ8n_3x0x3cli8commands4find4find
FNDA:4,_RNCNCNCNvNtNtNtNtCs6t3ktUJwJ8n_3x0x3cli8commands4find5tests17start_mock_server000Bf_
FNDA:3,_RNCNCNCNvNtNtNtNtCs6t3ktUJwJ8n_3x0x3cli8commands4find5tests17start_mock_server0s_00Bf_
FNDA:4,_RNCNCNvNtNtNtNtCs6t3ktUJwJ8n_3x0x3cli8commands4find5tests17start_mock_server00Bd_
FNDA:3,_RNCNCNvNtNtNtNtCs6t3ktUJwJ8n_3x0x3cli8commands4find5tests17start_mock_server0s_0Bd_
FNDA:3,_RNCNvNtNtNtNtCs6t3ktUJwJ8n_3x0x3cli8commands4find5tests17start_mock_server0Bb_
FNDA:1,_RNCNvNtNtNtNtCs6t3ktUJwJ8n_3x0x3cli8commands4find5testss_29find_rejects_wrong_word_count0Bb_
FNDA:1,_RNCNvNtNtNtNtCs6t3ktUJwJ8n_3x0x3cli8commands4find5testss_37find_rejects_wrong_separator_position0Bb_
FNDA:1,_RNCNvNtNtNtNtCs6t3ktUJwJ8n_3x0x3cli8commands4find5testss_43find_with_valid_words_returns_mock_response0Bb_
FNDA:3,_RNvNtNtNtNtCs6t3ktUJwJ8n_3x0x3cli8commands4find5tests17start_mock_server
FNDA:1,_RNvNtNtNtNtCs6t3ktUJwJ8n_3x0x3cli8commands4find5testss_29find_rejects_wrong_word_count
FNDA:1,_RNvNtNtNtNtCs6t3ktUJwJ8n_3x0x3cli8commands4find5testss_37find_rejects_wrong_separator_position
FNDA:1,_RNvNtNtNtNtCs6t3ktUJwJ8n_3x0x3cli8commands4find5testss_43find_with_valid_words_returns_mock_response
FNDA:14,_RNCNCNvNtNtNtCs6t3ktUJwJ8n_3x0x3cli8commands4find4find00Bb_
FNDA:0,_RNCNCNvNtNtNtCs6t3ktUJwJ8n_3x0x3cli8commands4find4find0s0_0Bb_
FNDA:0,_RNCNCNvNtNtNtCs6t3ktUJwJ8n_3x0x3cli8commands4find4find0s1_0Bb_
FNDA:1,_RNCNCNvNtNtNtCs6t3ktUJwJ8n_3x0x3cli8commands4find4find0s_0Bb_
FNDA:3,_RNCNvNtNtNtCs6t3ktUJwJ8n_3x0x3cli8commands4find4find0B9_
FNF:18
FNH:16
DA:8,3
DA:9,3
DA:11,3
DA:14,14
DA:16,3
DA:17,0
DA:18,0
DA:20,0
DA:22,0
DA:23,0
DA:24,0
DA:26,0
DA:28,0
DA:29,3
DA:30,2
DA:33,2
DA:35,1
DA:38,1
DA:39,1
DA:40,1
DA:41,1
DA:42,1
DA:45,1
DA:46,0
DA:47,0
DA:48,0
DA:49,0
DA:50,0
DA:52,1
DA:55,1
DA:56,1
DA:57,1
DA:58,0
DA:59,1
DA:62,1
DA:63,1
DA:64,1
DA:66,1
DA:67,1
DA:69,1
DA:70,1
DA:71,1
DA:72,1
DA:73,0
DA:76,1
DA:77,1
DA:78,0
DA:81,0
DA:82,0
DA:83,0
DA:84,0
DA:85,0
DA:86,0
DA:87,0
DA:88,0
DA:89,0
DA:91,0
DA:92,0
DA:93,0
DA:96,1
DA:97,1
DA:98,1
DA:99,1
DA:100,0
DA:101,0
DA:102,0
DA:103,0
DA:105,1
DA:106,3
DA:116,3
DA:119,3
DA:120,4
DA:121,4
DA:122,4
DA:123,4
DA:124,4
DA:125,4
DA:126,4
DA:127,4
DA:128,4
DA:129,4
DA:130,4
DA:132,3
DA:133,3
DA:134,3
DA:136,3
DA:137,3
DA:138,3
DA:139,3
DA:140,0
DA:141,0
DA:143,3
DA:145,3
DA:146,3
DA:150,1
DA:151,1
DA:152,1
DA:153,1
DA:155,1
DA:156,1
DA:157,1
DA:158,1
DA:159,1
DA:162,1
DA:163,1
DA:164,1
DA:165,1
DA:167,1
DA:168,1
DA:169,1
DA:173,1
DA:175,1
DA:176,1
DA:177,1
DA:179,1
DA:181,1
DA:182,1
BRF:0
BRH:0
LF:132
LH:96
end_of_record
SF:/Users/davidirvine/Desktop/Devel/projects/x0x/src/cli/commands/group.rs
FN:87,_RNvNtNtNtCsfB8W1BOG4Wp_3x0x3cli8commands5group10add_member
FN:446,_RNvNtNtNtCsfB8W1BOG4Wp_3x0x3cli8commands5group10state_seal
FN:388,_RNvNtNtNtCsfB8W1BOG4Wp_3x0x3cli8commands5group11card_import
FN:106,_RNvNtNtNtCsfB8W1BOG4Wp_3x0x3cli8commands5group13remove_member
FN:504,_RNvNtNtNtCsfB8W1BOG4Wp_3x0x3cli8commands5group13secure_reseal
FN:308,_RNvNtNtNtCsfB8W1BOG4Wp_3x0x3cli8commands5group14cancel_request
FN:298,_RNvNtNtNtCsfB8W1BOG4Wp_3x0x3cli8commands5group14reject_request
FN:266,_RNvNtNtNtCsfB8W1BOG4Wp_3x0x3cli8commands5group14request_access
FN:483,_RNvNtNtNtCsfB8W1BOG4Wp_3x0x3cli8commands5group14secure_decrypt
FN:470,_RNvNtNtNtCsfB8W1BOG4Wp_3x0x3cli8commands5group14secure_encrypt
FN:456,_RNvNtNtNtCsfB8W1BOG4Wp_3x0x3cli8commands5group14state_withdraw
FN:284,_RNvNtNtNtCsfB8W1BOG4Wp_3x0x3cli8commands5group15approve_request
FN:331,_RNvNtNtNtCsfB8W1BOG4Wp_3x0x3cli8commands5group15discover_nearby
FN:347,_RNvNtNtNtCsfB8W1BOG4Wp_3x0x3cli8commands5group18discover_subscribe
FN:367,_RNvNtNtNtCsfB8W1BOG4Wp_3x0x3cli8commands5group20discover_unsubscribe
FN:519,_RNvNtNtNtCsfB8W1BOG4Wp_3x0x3cli8commands5group20secure_open_envelope
FN:339,_RNvNtNtNtCsfB8W1BOG4Wp_3x0x3cli8commands5group22discover_subscriptions
FN:236,_RNvNtNtNtCsfB8W1BOG4Wp_3x0x3cli8commands5group3ban
FN:377,_RNvNtNtNtCsfB8W1BOG4Wp_3x0x3cli8commands5group4card
FN:47,_RNvNtNtNtCsfB8W1BOG4Wp_3x0x3cli8commands5group4info
FN:127,_RNvNtNtNtCsfB8W1BOG4Wp_3x0x3cli8commands5group4join
FN:15,_RNvNtNtNtCsfB8W1BOG4Wp_3x0x3cli8commands5group4list
FN:409,_RNvNtNtNtCsfB8W1BOG4Wp_3x0x3cli8commands5group4send
FN:154,_RNvNtNtNtCsfB8W1BOG4Wp_3x0x3cli8commands5group5leave
FN:438,_RNvNtNtNtCsfB8W1BOG4Wp_3x0x3cli8commands5group5state
FN:246,_RNvNtNtNtCsfB8W1BOG4Wp_3x0x3cli8commands5group5unban
FN:23,_RNvNtNtNtCsfB8W1BOG4Wp_3x0x3cli8commands5group6create
FN:116,_RNvNtNtNtCsfB8W1BOG4Wp_3x0x3cli8commands5group6invite
FN:170,_RNvNtNtNtCsfB8W1BOG4Wp_3x0x3cli8commands5group6policy
FN:55,_RNvNtNtNtCsfB8W1BOG4Wp_3x0x3cli8commands5group6update
FN:79,_RNvNtNtNtCsfB8W1BOG4Wp_3x0x3cli8commands5group7members
FN:320,_RNvNtNtNtCsfB8W1BOG4Wp_3x0x3cli8commands5group8discover
FN:428,_RNvNtNtNtCsfB8W1BOG4Wp_3x0x3cli8commands5group8messages
FN:258,_RNvNtNtNtCsfB8W1BOG4Wp_3x0x3cli8commands5group8requests
FN:143,_RNvNtNtNtCsfB8W1BOG4Wp_3x0x3cli8commands5group8set_name
FN:217,_RNvNtNtNtCsfB8W1BOG4Wp_3x0x3cli8commands5group8set_role
FN:398,_RNCNCNvNtNtNtCsfB8W1BOG4Wp_3x0x3cli8commands5group11card_import00Bb_
FN:529,_RNCNCNvNtNtNtCsfB8W1BOG4Wp_3x0x3cli8commands5group20secure_open_envelope00Bb_
FN:92,_RNCNvNtNtNtCsfB8W1BOG4Wp_3x0x3cli8commands5group10add_member0B9_
FN:446,_RNCNvNtNtNtCsfB8W1BOG4Wp_3x0x3cli8commands5group10state_seal0B9_
FN:388,_RNCNvNtNtNtCsfB8W1BOG4Wp_3x0x3cli8commands5group11card_import0B9_
FN:106,_RNCNvNtNtNtCsfB8W1BOG4Wp_3x0x3cli8commands5group13remove_member0B9_
FN:504,_RNCNvNtNtNtCsfB8W1BOG4Wp_3x0x3cli8commands5group13secure_reseal0B9_
FN:308,_RNCNvNtNtNtCsfB8W1BOG4Wp_3x0x3cli8commands5group14cancel_request0B9_
FN:298,_RNCNvNtNtNtCsfB8W1BOG4Wp_3x0x3cli8commands5group14reject_request0B9_
FN:270,_RNCNvNtNtNtCsfB8W1BOG4Wp_3x0x3cli8commands5group14request_access0B9_
FN:489,_RNCNvNtNtNtCsfB8W1BOG4Wp_3x0x3cli8commands5group14secure_decrypt0B9_
FN:470,_RNCNvNtNtNtCsfB8W1BOG4Wp_3x0x3cli8commands5group14secure_encrypt0B9_
FN:456,_RNCNvNtNtNtCsfB8W1BOG4Wp_3x0x3cli8commands5group14state_withdraw0B9_
FN:288,_RNCNvNtNtNtCsfB8W1BOG4Wp_3x0x3cli8commands5group15approve_request0B9_
FN:331,_RNCNvNtNtNtCsfB8W1BOG4Wp_3x0x3cli8commands5group15discover_nearby0B9_
FN:352,_RNCNvNtNtNtCsfB8W1BOG4Wp_3x0x3cli8commands5group18discover_subscribe0B9_
FN:367,_RNCNvNtNtNtCsfB8W1BOG4Wp_3x0x3cli8commands5group20discover_unsubscribe0B9_
FN:519,_RNCNvNtNtNtCsfB8W1BOG4Wp_3x0x3cli8commands5group20secure_open_envelope0B9_
FN:339,_RNCNvNtNtNtCsfB8W1BOG4Wp_3x0x3cli8commands5group22discover_subscriptions0B9_
FN:236,_RNCNvNtNtNtCsfB8W1BOG4Wp_3x0x3cli8commands5group3ban0B9_
FN:377,_RNCNvNtNtNtCsfB8W1BOG4Wp_3x0x3cli8commands5group4card0B9_
FN:47,_RNCNvNtNtNtCsfB8W1BOG4Wp_3x0x3cli8commands5group4info0B9_
FN:131,_RNCNvNtNtNtCsfB8W1BOG4Wp_3x0x3cli8commands5group4join0B9_
FN:15,_RNCNvNtNtNtCsfB8W1BOG4Wp_3x0x3cli8commands5group4list0B9_
FN:414,_RNCNvNtNtNtCsfB8W1BOG4Wp_3x0x3cli8commands5group4send0B9_
FN:154,_RNCNvNtNtNtCsfB8W1BOG4Wp_3x0x3cli8commands5group5leave0B9_
FN:438,_RNCNvNtNtNtCsfB8W1BOG4Wp_3x0x3cli8commands5group5state0B9_
FN:246,_RNCNvNtNtNtCsfB8W1BOG4Wp_3x0x3cli8commands5group5unban0B9_
FN:29,_RNCNvNtNtNtCsfB8W1BOG4Wp_3x0x3cli8commands5group6create0B9_
FN:116,_RNCNvNtNtNtCsfB8W1BOG4Wp_3x0x3cli8commands5group6invite0B9_
FN:179,_RNCNvNtNtNtCsfB8W1BOG4Wp_3x0x3cli8commands5group6policy0B9_
FN:60,_RNCNvNtNtNtCsfB8W1BOG4Wp_3x0x3cli8commands5group6update0B9_
FN:79,_RNCNvNtNtNtCsfB8W1BOG4Wp_3x0x3cli8commands5group7members0B9_
FN:320,_RNCNvNtNtNtCsfB8W1BOG4Wp_3x0x3cli8commands5group8discover0B9_
FN:428,_RNCNvNtNtNtCsfB8W1BOG4Wp_3x0x3cli8commands5group8messages0B9_
FN:258,_RNCNvNtNtNtCsfB8W1BOG4Wp_3x0x3cli8commands5group8requests0B9_
FN:143,_RNCNvNtNtNtCsfB8W1BOG4Wp_3x0x3cli8commands5group8set_name0B9_
FN:222,_RNCNvNtNtNtCsfB8W1BOG4Wp_3x0x3cli8commands5group8set_role0B9_
FN:388,_RNvNtNtNtCs6t3ktUJwJ8n_3x0x3cli8commands5group11card_import
FN:483,_RNvNtNtNtCs6t3ktUJwJ8n_3x0x3cli8commands5group14secure_decrypt
FN:519,_RNvNtNtNtCs6t3ktUJwJ8n_3x0x3cli8commands5group20secure_open_envelope
FN:409,_RNvNtNtNtCs6t3ktUJwJ8n_3x0x3cli8commands5group4send
FN:170,_RNvNtNtNtCs6t3ktUJwJ8n_3x0x3cli8commands5group6policy
FN:55,_RNvNtNtNtCs6t3ktUJwJ8n_3x0x3cli8commands5group6update
FN:217,_RNvNtNtNtCs6t3ktUJwJ8n_3x0x3cli8commands5group8set_role
FN:553,_RNCNCNCNvNtNtNtNtCs6t3ktUJwJ8n_3x0x3cli8commands5group5tests17start_mock_server000Bf_
FN:569,_RNCNCNCNvNtNtNtNtCs6t3ktUJwJ8n_3x0x3cli8commands5group5tests17start_mock_server0s_00Bf_
FN:551,_RNCNCNvNtNtNtNtCs6t3ktUJwJ8n_3x0x3cli8commands5group5tests17start_mock_server00Bd_
FN:567,_RNCNCNvNtNtNtNtCs6t3ktUJwJ8n_3x0x3cli8commands5group5tests17start_mock_server0s_0Bd_
FN:547,_RNCNvNtNtNtNtCs6t3ktUJwJ8n_3x0x3cli8commands5group5tests17start_mock_server0Bb_
FN:715,_RNCNvNtNtNtNtCs6t3ktUJwJ8n_3x0x3cli8commands5group5testss_25ban_returns_mock_response0Bb_
FN:661,_RNCNvNtNtNtNtCs6t3ktUJwJ8n_3x0x3cli8commands5group5testss_26card_returns_mock_response0Bb_
FN:589,_RNCNvNtNtNtNtCs6t3ktUJwJ8n_3x0x3cli8commands5group5testss_26info_returns_mock_response0Bb_
FN:778,_RNCNvNtNtNtNtCs6t3ktUJwJ8n_3x0x3cli8commands5group5testss_26join_returns_mock_response0Bb_
FN:581,_RNCNvNtNtNtNtCs6t3ktUJwJ8n_3x0x3cli8commands5group5testss_26list_returns_mock_response0Bb_
FN:607,_RNCNvNtNtNtNtCs6t3ktUJwJ8n_3x0x3cli8commands5group5testss_27leave_returns_mock_response0Bb_
FN:679,_RNCNvNtNtNtNtCs6t3ktUJwJ8n_3x0x3cli8commands5group5testss_27state_returns_mock_response0Bb_
FN:724,_RNCNvNtNtNtNtCs6t3ktUJwJ8n_3x0x3cli8commands5group5testss_27unban_returns_mock_response0Bb_
FN:751,_RNCNvNtNtNtNtCs6t3ktUJwJ8n_3x0x3cli8commands5group5testss_28create_returns_mock_response0Bb_
FN:742,_RNCNvNtNtNtNtCs6t3ktUJwJ8n_3x0x3cli8commands5group5testss_28invite_returns_mock_response0Bb_
FN:597,_RNCNvNtNtNtNtCs6t3ktUJwJ8n_3x0x3cli8commands5group5testss_29members_returns_mock_response0Bb_
FN:634,_RNCNvNtNtNtNtCs6t3ktUJwJ8n_3x0x3cli8commands5group5testss_30discover_returns_mock_response0Bb_
FN:670,_RNCNvNtNtNtNtCs6t3ktUJwJ8n_3x0x3cli8commands5group5testss_30messages_returns_mock_response0Bb_
FN:616,_RNCNvNtNtNtNtCs6t3ktUJwJ8n_3x0x3cli8commands5group5testss_30requests_returns_mock_response0Bb_
FN:706,_RNCNvNtNtNtNtCs6t3ktUJwJ8n_3x0x3cli8commands5group5testss_30set_name_returns_mock_response0Bb_
FN:760,_RNCNvNtNtNtNtCs6t3ktUJwJ8n_3x0x3cli8commands5group5testss_32add_member_returns_mock_response0Bb_
FN:688,_RNCNvNtNtNtNtCs6t3ktUJwJ8n_3x0x3cli8commands5group5testss_32state_seal_returns_mock_response0Bb_
FN:769,_RNCNvNtNtNtNtCs6t3ktUJwJ8n_3x0x3cli8commands5group5testss_35remove_member_returns_mock_response0Bb_
FN:832,_RNCNvNtNtNtNtCs6t3ktUJwJ8n_3x0x3cli8commands5group5testss_35secure_reseal_returns_mock_response0Bb_
FN:625,_RNCNvNtNtNtNtCs6t3ktUJwJ8n_3x0x3cli8commands5group5testss_36cancel_request_returns_mock_response0Bb_
FN:733,_RNCNvNtNtNtNtCs6t3ktUJwJ8n_3x0x3cli8commands5group5testss_36reject_request_returns_mock_response0Bb_
FN:787,_RNCNvNtNtNtNtCs6t3ktUJwJ8n_3x0x3cli8commands5group5testss_36request_access_returns_mock_response0Bb_
FN:823,_RNCNvNtNtNtNtCs6t3ktUJwJ8n_3x0x3cli8commands5group5testss_36secure_encrypt_returns_mock_response0Bb_
FN:697,_RNCNvNtNtNtNtCs6t3ktUJwJ8n_3x0x3cli8commands5group5testss_36state_withdraw_returns_mock_response0Bb_
FN:796,_RNCNvNtNtNtNtCs6t3ktUJwJ8n_3x0x3cli8commands5group5testss_37approve_request_returns_mock_response0Bb_
FN:643,_RNCNvNtNtNtNtCs6t3ktUJwJ8n_3x0x3cli8commands5group5testss_37discover_nearby_returns_mock_response0Bb_
FN:805,_RNCNvNtNtNtNtCs6t3ktUJwJ8n_3x0x3cli8commands5group5testss_40discover_subscribe_returns_mock_response0Bb_
FN:814,_RNCNvNtNtNtNtCs6t3ktUJwJ8n_3x0x3cli8commands5group5testss_42discover_unsubscribe_returns_mock_response0Bb_
FN:652,_RNCNvNtNtNtNtCs6t3ktUJwJ8n_3x0x3cli8commands5group5testss_44discover_subscriptions_returns_mock_response0Bb_
FN:87,_RNvNtNtNtCs6t3ktUJwJ8n_3x0x3cli8commands5group10add_member
FN:446,_RNvNtNtNtCs6t3ktUJwJ8n_3x0x3cli8commands5group10state_seal
FN:106,_RNvNtNtNtCs6t3ktUJwJ8n_3x0x3cli8commands5group13remove_member
FN:504,_RNvNtNtNtCs6t3ktUJwJ8n_3x0x3cli8commands5group13secure_reseal
FN:308,_RNvNtNtNtCs6t3ktUJwJ8n_3x0x3cli8commands5group14cancel_request
FN:298,_RNvNtNtNtCs6t3ktUJwJ8n_3x0x3cli8commands5group14reject_request
FN:266,_RNvNtNtNtCs6t3ktUJwJ8n_3x0x3cli8commands5group14request_access
FN:470,_RNvNtNtNtCs6t3ktUJwJ8n_3x0x3cli8commands5group14secure_encrypt
FN:456,_RNvNtNtNtCs6t3ktUJwJ8n_3x0x3cli8commands5group14state_withdraw
FN:284,_RNvNtNtNtCs6t3ktUJwJ8n_3x0x3cli8commands5group15approve_request
FN:331,_RNvNtNtNtCs6t3ktUJwJ8n_3x0x3cli8commands5group15discover_nearby
FN:347,_RNvNtNtNtCs6t3ktUJwJ8n_3x0x3cli8commands5group18discover_subscribe
FN:367,_RNvNtNtNtCs6t3ktUJwJ8n_3x0x3cli8commands5group20discover_unsubscribe
FN:339,_RNvNtNtNtCs6t3ktUJwJ8n_3x0x3cli8commands5group22discover_subscriptions
FN:236,_RNvNtNtNtCs6t3ktUJwJ8n_3x0x3cli8commands5group3ban
FN:377,_RNvNtNtNtCs6t3ktUJwJ8n_3x0x3cli8commands5group4card
FN:47,_RNvNtNtNtCs6t3ktUJwJ8n_3x0x3cli8commands5group4info
FN:127,_RNvNtNtNtCs6t3ktUJwJ8n_3x0x3cli8commands5group4join
FN:15,_RNvNtNtNtCs6t3ktUJwJ8n_3x0x3cli8commands5group4list
FN:154,_RNvNtNtNtCs6t3ktUJwJ8n_3x0x3cli8commands5group5leave
FN:438,_RNvNtNtNtCs6t3ktUJwJ8n_3x0x3cli8commands5group5state
FN:246,_RNvNtNtNtCs6t3ktUJwJ8n_3x0x3cli8commands5group5unban
FN:23,_RNvNtNtNtCs6t3ktUJwJ8n_3x0x3cli8commands5group6create
FN:116,_RNvNtNtNtCs6t3ktUJwJ8n_3x0x3cli8commands5group6invite
FN:79,_RNvNtNtNtCs6t3ktUJwJ8n_3x0x3cli8commands5group7members
FN:320,_RNvNtNtNtCs6t3ktUJwJ8n_3x0x3cli8commands5group8discover
FN:428,_RNvNtNtNtCs6t3ktUJwJ8n_3x0x3cli8commands5group8messages
FN:258,_RNvNtNtNtCs6t3ktUJwJ8n_3x0x3cli8commands5group8requests
FN:143,_RNvNtNtNtCs6t3ktUJwJ8n_3x0x3cli8commands5group8set_name
FN:398,_RNCNCNvNtNtNtCs6t3ktUJwJ8n_3x0x3cli8commands5group11card_import00Bb_
FN:529,_RNCNCNvNtNtNtCs6t3ktUJwJ8n_3x0x3cli8commands5group20secure_open_envelope00Bb_
FN:92,_RNCNvNtNtNtCs6t3ktUJwJ8n_3x0x3cli8commands5group10add_member0B9_
FN:446,_RNCNvNtNtNtCs6t3ktUJwJ8n_3x0x3cli8commands5group10state_seal0B9_
FN:388,_RNCNvNtNtNtCs6t3ktUJwJ8n_3x0x3cli8commands5group11card_import0B9_
FN:106,_RNCNvNtNtNtCs6t3ktUJwJ8n_3x0x3cli8commands5group13remove_member0B9_
FN:504,_RNCNvNtNtNtCs6t3ktUJwJ8n_3x0x3cli8commands5group13secure_reseal0B9_
FN:308,_RNCNvNtNtNtCs6t3ktUJwJ8n_3x0x3cli8commands5group14cancel_request0B9_
FN:298,_RNCNvNtNtNtCs6t3ktUJwJ8n_3x0x3cli8commands5group14reject_request0B9_
FN:270,_RNCNvNtNtNtCs6t3ktUJwJ8n_3x0x3cli8commands5group14request_access0B9_
FN:489,_RNCNvNtNtNtCs6t3ktUJwJ8n_3x0x3cli8commands5group14secure_decrypt0B9_
FN:470,_RNCNvNtNtNtCs6t3ktUJwJ8n_3x0x3cli8commands5group14secure_encrypt0B9_
FN:456,_RNCNvNtNtNtCs6t3ktUJwJ8n_3x0x3cli8commands5group14state_withdraw0B9_
FN:288,_RNCNvNtNtNtCs6t3ktUJwJ8n_3x0x3cli8commands5group15approve_request0B9_
FN:331,_RNCNvNtNtNtCs6t3ktUJwJ8n_3x0x3cli8commands5group15discover_nearby0B9_
FN:352,_RNCNvNtNtNtCs6t3ktUJwJ8n_3x0x3cli8commands5group18discover_subscribe0B9_
FN:367,_RNCNvNtNtNtCs6t3ktUJwJ8n_3x0x3cli8commands5group20discover_unsubscribe0B9_
FN:519,_RNCNvNtNtNtCs6t3ktUJwJ8n_3x0x3cli8commands5group20secure_open_envelope0B9_
FN:339,_RNCNvNtNtNtCs6t3ktUJwJ8n_3x0x3cli8commands5group22discover_subscriptions0B9_
FN:236,_RNCNvNtNtNtCs6t3ktUJwJ8n_3x0x3cli8commands5group3ban0B9_
FN:377,_RNCNvNtNtNtCs6t3ktUJwJ8n_3x0x3cli8commands5group4card0B9_
FN:47,_RNCNvNtNtNtCs6t3ktUJwJ8n_3x0x3cli8commands5group4info0B9_
FN:131,_RNCNvNtNtNtCs6t3ktUJwJ8n_3x0x3cli8commands5group4join0B9_
FN:15,_RNCNvNtNtNtCs6t3ktUJwJ8n_3x0x3cli8commands5group4list0B9_
FN:414,_RNCNvNtNtNtCs6t3ktUJwJ8n_3x0x3cli8commands5group4send0B9_
FN:154,_RNCNvNtNtNtCs6t3ktUJwJ8n_3x0x3cli8commands5group5leave0B9_
FN:438,_RNCNvNtNtNtCs6t3ktUJwJ8n_3x0x3cli8commands5group5state0B9_
FN:246,_RNCNvNtNtNtCs6t3ktUJwJ8n_3x0x3cli8commands5group5unban0B9_
FN:29,_RNCNvNtNtNtCs6t3ktUJwJ8n_3x0x3cli8commands5group6create0B9_
FN:116,_RNCNvNtNtNtCs6t3ktUJwJ8n_3x0x3cli8commands5group6invite0B9_
FN:179,_RNCNvNtNtNtCs6t3ktUJwJ8n_3x0x3cli8commands5group6policy0B9_
FN:60,_RNCNvNtNtNtCs6t3ktUJwJ8n_3x0x3cli8commands5group6update0B9_
FN:79,_RNCNvNtNtNtCs6t3ktUJwJ8n_3x0x3cli8commands5group7members0B9_
FN:320,_RNCNvNtNtNtCs6t3ktUJwJ8n_3x0x3cli8commands5group8discover0B9_
FN:428,_RNCNvNtNtNtCs6t3ktUJwJ8n_3x0x3cli8commands5group8messages0B9_
FN:258,_RNCNvNtNtNtCs6t3ktUJwJ8n_3x0x3cli8commands5group8requests0B9_
FN:143,_RNCNvNtNtNtCs6t3ktUJwJ8n_3x0x3cli8commands5group8set_name0B9_
FN:222,_RNCNvNtNtNtCs6t3ktUJwJ8n_3x0x3cli8commands5group8set_role0B9_
FN:547,_RNvNtNtNtNtCs6t3ktUJwJ8n_3x0x3cli8commands5group5tests17start_mock_server
FN:715,_RNvNtNtNtNtCs6t3ktUJwJ8n_3x0x3cli8commands5group5testss_25ban_returns_mock_response
FN:661,_RNvNtNtNtNtCs6t3ktUJwJ8n_3x0x3cli8commands5group5testss_26card_returns_mock_response
FN:589,_RNvNtNtNtNtCs6t3ktUJwJ8n_3x0x3cli8commands5group5testss_26info_returns_mock_response
FN:778,_RNvNtNtNtNtCs6t3ktUJwJ8n_3x0x3cli8commands5group5testss_26join_returns_mock_response
FN:581,_RNvNtNtNtNtCs6t3ktUJwJ8n_3x0x3cli8commands5group5testss_26list_returns_mock_response
FN:607,_RNvNtNtNtNtCs6t3ktUJwJ8n_3x0x3cli8commands5group5testss_27leave_returns_mock_response
FN:679,_RNvNtNtNtNtCs6t3ktUJwJ8n_3x0x3cli8commands5group5testss_27state_returns_mock_response
FN:724,_RNvNtNtNtNtCs6t3ktUJwJ8n_3x0x3cli8commands5group5testss_27unban_returns_mock_response
FN:751,_RNvNtNtNtNtCs6t3ktUJwJ8n_3x0x3cli8commands5group5testss_28create_returns_mock_response
FN:742,_RNvNtNtNtNtCs6t3ktUJwJ8n_3x0x3cli8commands5group5testss_28invite_returns_mock_response
FN:597,_RNvNtNtNtNtCs6t3ktUJwJ8n_3x0x3cli8commands5group5testss_29members_returns_mock_response
FN:634,_RNvNtNtNtNtCs6t3ktUJwJ8n_3x0x3cli8commands5group5testss_30discover_returns_mock_response
FN:670,_RNvNtNtNtNtCs6t3ktUJwJ8n_3x0x3cli8commands5group5testss_30messages_returns_mock_response
FN:616,_RNvNtNtNtNtCs6t3ktUJwJ8n_3x0x3cli8commands5group5testss_30requests_returns_mock_response
FN:706,_RNvNtNtNtNtCs6t3ktUJwJ8n_3x0x3cli8commands5group5testss_30set_name_returns_mock_response
FN:760,_RNvNtNtNtNtCs6t3ktUJwJ8n_3x0x3cli8commands5group5testss_32add_member_returns_mock_response
FN:688,_RNvNtNtNtNtCs6t3ktUJwJ8n_3x0x3cli8commands5group5testss_32state_seal_returns_mock_response
FN:769,_RNvNtNtNtNtCs6t3ktUJwJ8n_3x0x3cli8commands5group5testss_35remove_member_returns_mock_response
FN:832,_RNvNtNtNtNtCs6t3ktUJwJ8n_3x0x3cli8commands5group5testss_35secure_reseal_returns_mock_response
FN:625,_RNvNtNtNtNtCs6t3ktUJwJ8n_3x0x3cli8commands5group5testss_36cancel_request_returns_mock_response
FN:733,_RNvNtNtNtNtCs6t3ktUJwJ8n_3x0x3cli8commands5group5testss_36reject_request_returns_mock_response
FN:787,_RNvNtNtNtNtCs6t3ktUJwJ8n_3x0x3cli8commands5group5testss_36request_access_returns_mock_response
FN:823,_RNvNtNtNtNtCs6t3ktUJwJ8n_3x0x3cli8commands5group5testss_36secure_encrypt_returns_mock_response
FN:697,_RNvNtNtNtNtCs6t3ktUJwJ8n_3x0x3cli8commands5group5testss_36state_withdraw_returns_mock_response
FN:796,_RNvNtNtNtNtCs6t3ktUJwJ8n_3x0x3cli8commands5group5testss_37approve_request_returns_mock_response
FN:643,_RNvNtNtNtNtCs6t3ktUJwJ8n_3x0x3cli8commands5group5testss_37discover_nearby_returns_mock_response
FN:805,_RNvNtNtNtNtCs6t3ktUJwJ8n_3x0x3cli8commands5group5testss_40discover_subscribe_returns_mock_response
FN:814,_RNvNtNtNtNtCs6t3ktUJwJ8n_3x0x3cli8commands5group5testss_42discover_unsubscribe_returns_mock_response
FN:652,_RNvNtNtNtNtCs6t3ktUJwJ8n_3x0x3cli8commands5group5testss_44discover_subscriptions_returns_mock_response
FNDA:0,_RNvNtNtNtCsfB8W1BOG4Wp_3x0x3cli8commands5group10add_member
FNDA:0,_RNvNtNtNtCsfB8W1BOG4Wp_3x0x3cli8commands5group10state_seal
FNDA:0,_RNvNtNtNtCsfB8W1BOG4Wp_3x0x3cli8commands5group11card_import
FNDA:0,_RNvNtNtNtCsfB8W1BOG4Wp_3x0x3cli8commands5group13remove_member
FNDA:0,_RNvNtNtNtCsfB8W1BOG4Wp_3x0x3cli8commands5group13secure_reseal
FNDA:0,_RNvNtNtNtCsfB8W1BOG4Wp_3x0x3cli8commands5group14cancel_request
FNDA:0,_RNvNtNtNtCsfB8W1BOG4Wp_3x0x3cli8commands5group14reject_request
FNDA:0,_RNvNtNtNtCsfB8W1BOG4Wp_3x0x3cli8commands5group14request_access
FNDA:0,_RNvNtNtNtCsfB8W1BOG4Wp_3x0x3cli8commands5group14secure_decrypt
FNDA:0,_RNvNtNtNtCsfB8W1BOG4Wp_3x0x3cli8commands5group14secure_encrypt
FNDA:0,_RNvNtNtNtCsfB8W1BOG4Wp_3x0x3cli8commands5group14state_withdraw
FNDA:0,_RNvNtNtNtCsfB8W1BOG4Wp_3x0x3cli8commands5group15approve_request
FNDA:0,_RNvNtNtNtCsfB8W1BOG4Wp_3x0x3cli8commands5group15discover_nearby
FNDA:0,_RNvNtNtNtCsfB8W1BOG4Wp_3x0x3cli8commands5group18discover_subscribe
FNDA:0,_RNvNtNtNtCsfB8W1BOG4Wp_3x0x3cli8commands5group20discover_unsubscribe
FNDA:0,_RNvNtNtNtCsfB8W1BOG4Wp_3x0x3cli8commands5group20secure_open_envelope
FNDA:0,_RNvNtNtNtCsfB8W1BOG4Wp_3x0x3cli8commands5group22discover_subscriptions
FNDA:0,_RNvNtNtNtCsfB8W1BOG4Wp_3x0x3cli8commands5group3ban
FNDA:0,_RNvNtNtNtCsfB8W1BOG4Wp_3x0x3cli8commands5group4card
FNDA:0,_RNvNtNtNtCsfB8W1BOG4Wp_3x0x3cli8commands5group4info
FNDA:0,_RNvNtNtNtCsfB8W1BOG4Wp_3x0x3cli8commands5group4join
FNDA:0,_RNvNtNtNtCsfB8W1BOG4Wp_3x0x3cli8commands5group4list
FNDA:0,_RNvNtNtNtCsfB8W1BOG4Wp_3x0x3cli8commands5group4send
FNDA:0,_RNvNtNtNtCsfB8W1BOG4Wp_3x0x3cli8commands5group5leave
FNDA:0,_RNvNtNtNtCsfB8W1BOG4Wp_3x0x3cli8commands5group5state
FNDA:0,_RNvNtNtNtCsfB8W1BOG4Wp_3x0x3cli8commands5group5unban
FNDA:0,_RNvNtNtNtCsfB8W1BOG4Wp_3x0x3cli8commands5group6create
FNDA:0,_RNvNtNtNtCsfB8W1BOG4Wp_3x0x3cli8commands5group6invite
FNDA:1,_RNvNtNtNtCsfB8W1BOG4Wp_3x0x3cli8commands5group6policy
FNDA:1,_RNvNtNtNtCsfB8W1BOG4Wp_3x0x3cli8commands5group6update
FNDA:0,_RNvNtNtNtCsfB8W1BOG4Wp_3x0x3cli8commands5group7members
FNDA:0,_RNvNtNtNtCsfB8W1BOG4Wp_3x0x3cli8commands5group8discover
FNDA:0,_RNvNtNtNtCsfB8W1BOG4Wp_3x0x3cli8commands5group8messages
FNDA:0,_RNvNtNtNtCsfB8W1BOG4Wp_3x0x3cli8commands5group8requests
FNDA:0,_RNvNtNtNtCsfB8W1BOG4Wp_3x0x3cli8commands5group8set_name
FNDA:0,_RNvNtNtNtCsfB8W1BOG4Wp_3x0x3cli8commands5group8set_role
FNDA:0,_RNCNCNvNtNtNtCsfB8W1BOG4Wp_3x0x3cli8commands5group11card_import00Bb_
FNDA:0,_RNCNCNvNtNtNtCsfB8W1BOG4Wp_3x0x3cli8commands5group20secure_open_envelope00Bb_
FNDA:0,_RNCNvNtNtNtCsfB8W1BOG4Wp_3x0x3cli8commands5group10add_member0B9_
FNDA:0,_RNCNvNtNtNtCsfB8W1BOG4Wp_3x0x3cli8commands5group10state_seal0B9_
FNDA:0,_RNCNvNtNtNtCsfB8W1BOG4Wp_3x0x3cli8commands5group11card_import0B9_
FNDA:0,_RNCNvNtNtNtCsfB8W1BOG4Wp_3x0x3cli8commands5group13remove_member0B9_
FNDA:0,_RNCNvNtNtNtCsfB8W1BOG4Wp_3x0x3cli8commands5group13secure_reseal0B9_
FNDA:0,_RNCNvNtNtNtCsfB8W1BOG4Wp_3x0x3cli8commands5group14cancel_request0B9_
FNDA:0,_RNCNvNtNtNtCsfB8W1BOG4Wp_3x0x3cli8commands5group14reject_request0B9_
FNDA:0,_RNCNvNtNtNtCsfB8W1BOG4Wp_3x0x3cli8commands5group14request_access0B9_
FNDA:0,_RNCNvNtNtNtCsfB8W1BOG4Wp_3x0x3cli8commands5group14secure_decrypt0B9_
FNDA:0,_RNCNvNtNtNtCsfB8W1BOG4Wp_3x0x3cli8commands5group14secure_encrypt0B9_
FNDA:0,_RNCNvNtNtNtCsfB8W1BOG4Wp_3x0x3cli8commands5group14state_withdraw0B9_
FNDA:0,_RNCNvNtNtNtCsfB8W1BOG4Wp_3x0x3cli8commands5group15approve_request0B9_
FNDA:0,_RNCNvNtNtNtCsfB8W1BOG4Wp_3x0x3cli8commands5group15discover_nearby0B9_
FNDA:0,_RNCNvNtNtNtCsfB8W1BOG4Wp_3x0x3cli8commands5group18discover_subscribe0B9_
FNDA:0,_RNCNvNtNtNtCsfB8W1BOG4Wp_3x0x3cli8commands5group20discover_unsubscribe0B9_
FNDA:0,_RNCNvNtNtNtCsfB8W1BOG4Wp_3x0x3cli8commands5group20secure_open_envelope0B9_
FNDA:0,_RNCNvNtNtNtCsfB8W1BOG4Wp_3x0x3cli8commands5group22discover_subscriptions0B9_
FNDA:0,_RNCNvNtNtNtCsfB8W1BOG4Wp_3x0x3cli8commands5group3ban0B9_
FNDA:0,_RNCNvNtNtNtCsfB8W1BOG4Wp_3x0x3cli8commands5group4card0B9_
FNDA:0,_RNCNvNtNtNtCsfB8W1BOG4Wp_3x0x3cli8commands5group4info0B9_
FNDA:0,_RNCNvNtNtNtCsfB8W1BOG4Wp_3x0x3cli8commands5group4join0B9_
FNDA:0,_RNCNvNtNtNtCsfB8W1BOG4Wp_3x0x3cli8commands5group4list0B9_
FNDA:0,_RNCNvNtNtNtCsfB8W1BOG4Wp_3x0x3cli8commands5group4send0B9_
FNDA:0,_RNCNvNtNtNtCsfB8W1BOG4Wp_3x0x3cli8commands5group5leave0B9_
FNDA:0,_RNCNvNtNtNtCsfB8W1BOG4Wp_3x0x3cli8commands5group5state0B9_
FNDA:0,_RNCNvNtNtNtCsfB8W1BOG4Wp_3x0x3cli8commands5group5unban0B9_
FNDA:0,_RNCNvNtNtNtCsfB8W1BOG4Wp_3x0x3cli8commands5group6create0B9_
FNDA:0,_RNCNvNtNtNtCsfB8W1BOG4Wp_3x0x3cli8commands5group6invite0B9_
FNDA:1,_RNCNvNtNtNtCsfB8W1BOG4Wp_3x0x3cli8commands5group6policy0B9_
FNDA:1,_RNCNvNtNtNtCsfB8W1BOG4Wp_3x0x3cli8commands5group6update0B9_
FNDA:0,_RNCNvNtNtNtCsfB8W1BOG4Wp_3x0x3cli8commands5group7members0B9_
FNDA:0,_RNCNvNtNtNtCsfB8W1BOG4Wp_3x0x3cli8commands5group8discover0B9_
FNDA:0,_RNCNvNtNtNtCsfB8W1BOG4Wp_3x0x3cli8commands5group8messages0B9_
FNDA:0,_RNCNvNtNtNtCsfB8W1BOG4Wp_3x0x3cli8commands5group8requests0B9_
FNDA:0,_RNCNvNtNtNtCsfB8W1BOG4Wp_3x0x3cli8commands5group8set_name0B9_
FNDA:0,_RNCNvNtNtNtCsfB8W1BOG4Wp_3x0x3cli8commands5group8set_role0B9_
FNDA:0,_RNvNtNtNtCs6t3ktUJwJ8n_3x0x3cli8commands5group11card_import
FNDA:0,_RNvNtNtNtCs6t3ktUJwJ8n_3x0x3cli8commands5group14secure_decrypt
FNDA:0,_RNvNtNtNtCs6t3ktUJwJ8n_3x0x3cli8commands5group20secure_open_envelope
FNDA:0,_RNvNtNtNtCs6t3ktUJwJ8n_3x0x3cli8commands5group4send
FNDA:0,_RNvNtNtNtCs6t3ktUJwJ8n_3x0x3cli8commands5group6policy
FNDA:0,_RNvNtNtNtCs6t3ktUJwJ8n_3x0x3cli8commands5group6update
FNDA:0,_RNvNtNtNtCs6t3ktUJwJ8n_3x0x3cli8commands5group8set_role
FNDA:58,_RNCNCNCNvNtNtNtNtCs6t3ktUJwJ8n_3x0x3cli8commands5group5tests17start_mock_server000Bf_
FNDA:29,_RNCNCNCNvNtNtNtNtCs6t3ktUJwJ8n_3x0x3cli8commands5group5tests17start_mock_server0s_00Bf_
FNDA:58,_RNCNCNvNtNtNtNtCs6t3ktUJwJ8n_3x0x3cli8commands5group5tests17start_mock_server00Bd_
FNDA:29,_RNCNCNvNtNtNtNtCs6t3ktUJwJ8n_3x0x3cli8commands5group5tests17start_mock_server0s_0Bd_
FNDA:29,_RNCNvNtNtNtNtCs6t3ktUJwJ8n_3x0x3cli8commands5group5tests17start_mock_server0Bb_
FNDA:1,_RNCNvNtNtNtNtCs6t3ktUJwJ8n_3x0x3cli8commands5group5testss_25ban_returns_mock_response0Bb_
FNDA:1,_RNCNvNtNtNtNtCs6t3ktUJwJ8n_3x0x3cli8commands5group5testss_26card_returns_mock_response0Bb_
FNDA:1,_RNCNvNtNtNtNtCs6t3ktUJwJ8n_3x0x3cli8commands5group5testss_26info_returns_mock_response0Bb_
FNDA:1,_RNCNvNtNtNtNtCs6t3ktUJwJ8n_3x0x3cli8commands5group5testss_26join_returns_mock_response0Bb_
FNDA:1,_RNCNvNtNtNtNtCs6t3ktUJwJ8n_3x0x3cli8commands5group5testss_26list_returns_mock_response0Bb_
FNDA:1,_RNCNvNtNtNtNtCs6t3ktUJwJ8n_3x0x3cli8commands5group5testss_27leave_returns_mock_response0Bb_
FNDA:1,_RNCNvNtNtNtNtCs6t3ktUJwJ8n_3x0x3cli8commands5group5testss_27state_returns_mock_response0Bb_
FNDA:1,_RNCNvNtNtNtNtCs6t3ktUJwJ8n_3x0x3cli8commands5group5testss_27unban_returns_mock_response0Bb_
FNDA:1,_RNCNvNtNtNtNtCs6t3ktUJwJ8n_3x0x3cli8commands5group5testss_28create_returns_mock_response0Bb_
FNDA:1,_RNCNvNtNtNtNtCs6t3ktUJwJ8n_3x0x3cli8commands5group5testss_28invite_returns_mock_response0Bb_
FNDA:1,_RNCNvNtNtNtNtCs6t3ktUJwJ8n_3x0x3cli8commands5group5testss_29members_returns_mock_response0Bb_
FNDA:1,_RNCNvNtNtNtNtCs6t3ktUJwJ8n_3x0x3cli8commands5group5testss_30discover_returns_mock_response0Bb_
FNDA:1,_RNCNvNtNtNtNtCs6t3ktUJwJ8n_3x0x3cli8commands5group5testss_30messages_returns_mock_response0Bb_
FNDA:1,_RNCNvNtNtNtNtCs6t3ktUJwJ8n_3x0x3cli8commands5group5testss_30requests_returns_mock_response0Bb_
FNDA:1,_RNCNvNtNtNtNtCs6t3ktUJwJ8n_3x0x3cli8commands5group5testss_30set_name_returns_mock_response0Bb_
FNDA:1,_RNCNvNtNtNtNtCs6t3ktUJwJ8n_3x0x3cli8commands5group5testss_32add_member_returns_mock_response0Bb_
FNDA:1,_RNCNvNtNtNtNtCs6t3ktUJwJ8n_3x0x3cli8commands5group5testss_32state_seal_returns_mock_response0Bb_
FNDA:1,_RNCNvNtNtNtNtCs6t3ktUJwJ8n_3x0x3cli8commands5group5testss_35remove_member_returns_mock_response0Bb_
FNDA:1,_RNCNvNtNtNtNtCs6t3ktUJwJ8n_3x0x3cli8commands5group5testss_35secure_reseal_returns_mock_response0Bb_
FNDA:1,_RNCNvNtNtNtNtCs6t3ktUJwJ8n_3x0x3cli8commands5group5testss_36cancel_request_returns_mock_response0Bb_
FNDA:1,_RNCNvNtNtNtNtCs6t3ktUJwJ8n_3x0x3cli8commands5group5testss_36reject_request_returns_mock_response0Bb_
FNDA:1,_RNCNvNtNtNtNtCs6t3ktUJwJ8n_3x0x3cli8commands5group5testss_36request_access_returns_mock_response0Bb_
FNDA:1,_RNCNvNtNtNtNtCs6t3ktUJwJ8n_3x0x3cli8commands5group5testss_36secure_encrypt_returns_mock_response0Bb_
FNDA:1,_RNCNvNtNtNtNtCs6t3ktUJwJ8n_3x0x3cli8commands5group5testss_36state_withdraw_returns_mock_response0Bb_
FNDA:1,_RNCNvNtNtNtNtCs6t3ktUJwJ8n_3x0x3cli8commands5group5testss_37approve_request_returns_mock_response0Bb_
FNDA:1,_RNCNvNtNtNtNtCs6t3ktUJwJ8n_3x0x3cli8commands5group5testss_37discover_nearby_returns_mock_response0Bb_
FNDA:1,_RNCNvNtNtNtNtCs6t3ktUJwJ8n_3x0x3cli8commands5group5testss_40discover_subscribe_returns_mock_response0Bb_
FNDA:1,_RNCNvNtNtNtNtCs6t3ktUJwJ8n_3x0x3cli8commands5group5testss_42discover_unsubscribe_returns_mock_response0Bb_
FNDA:1,_RNCNvNtNtNtNtCs6t3ktUJwJ8n_3x0x3cli8commands5group5testss_44discover_subscriptions_returns_mock_response0Bb_
FNDA:1,_RNvNtNtNtCs6t3ktUJwJ8n_3x0x3cli8commands5group10add_member
FNDA:1,_RNvNtNtNtCs6t3ktUJwJ8n_3x0x3cli8commands5group10state_seal
FNDA:1,_RNvNtNtNtCs6t3ktUJwJ8n_3x0x3cli8commands5group13remove_member
FNDA:1,_RNvNtNtNtCs6t3ktUJwJ8n_3x0x3cli8commands5group13secure_reseal
FNDA:1,_RNvNtNtNtCs6t3ktUJwJ8n_3x0x3cli8commands5group14cancel_request
FNDA:1,_RNvNtNtNtCs6t3ktUJwJ8n_3x0x3cli8commands5group14reject_request
FNDA:1,_RNvNtNtNtCs6t3ktUJwJ8n_3x0x3cli8commands5group14request_access
FNDA:1,_RNvNtNtNtCs6t3ktUJwJ8n_3x0x3cli8commands5group14secure_encrypt
FNDA:1,_RNvNtNtNtCs6t3ktUJwJ8n_3x0x3cli8commands5group14state_withdraw
FNDA:1,_RNvNtNtNtCs6t3ktUJwJ8n_3x0x3cli8commands5group15approve_request
FNDA:1,_RNvNtNtNtCs6t3ktUJwJ8n_3x0x3cli8commands5group15discover_nearby
FNDA:1,_RNvNtNtNtCs6t3ktUJwJ8n_3x0x3cli8commands5group18discover_subscribe
FNDA:1,_RNvNtNtNtCs6t3ktUJwJ8n_3x0x3cli8commands5group20discover_unsubscribe
FNDA:1,_RNvNtNtNtCs6t3ktUJwJ8n_3x0x3cli8commands5group22discover_subscriptions
FNDA:1,_RNvNtNtNtCs6t3ktUJwJ8n_3x0x3cli8commands5group3ban
FNDA:1,_RNvNtNtNtCs6t3ktUJwJ8n_3x0x3cli8commands5group4card
FNDA:1,_RNvNtNtNtCs6t3ktUJwJ8n_3x0x3cli8commands5group4info
FNDA:1,_RNvNtNtNtCs6t3ktUJwJ8n_3x0x3cli8commands5group4join
FNDA:1,_RNvNtNtNtCs6t3ktUJwJ8n_3x0x3cli8commands5group4list
FNDA:1,_RNvNtNtNtCs6t3ktUJwJ8n_3x0x3cli8commands5group5leave
FNDA:1,_RNvNtNtNtCs6t3ktUJwJ8n_3x0x3cli8commands5group5state
FNDA:1,_RNvNtNtNtCs6t3ktUJwJ8n_3x0x3cli8commands5group5unban
FNDA:1,_RNvNtNtNtCs6t3ktUJwJ8n_3x0x3cli8commands5group6create
FNDA:1,_RNvNtNtNtCs6t3ktUJwJ8n_3x0x3cli8commands5group6invite
FNDA:1,_RNvNtNtNtCs6t3ktUJwJ8n_3x0x3cli8commands5group7members
FNDA:1,_RNvNtNtNtCs6t3ktUJwJ8n_3x0x3cli8commands5group8discover
FNDA:1,_RNvNtNtNtCs6t3ktUJwJ8n_3x0x3cli8commands5group8messages
FNDA:1,_RNvNtNtNtCs6t3ktUJwJ8n_3x0x3cli8commands5group8requests
FNDA:1,_RNvNtNtNtCs6t3ktUJwJ8n_3x0x3cli8commands5group8set_name
FNDA:0,_RNCNCNvNtNtNtCs6t3ktUJwJ8n_3x0x3cli8commands5group11card_import00Bb_
FNDA:0,_RNCNCNvNtNtNtCs6t3ktUJwJ8n_3x0x3cli8commands5group20secure_open_envelope00Bb_
FNDA:1,_RNCNvNtNtNtCs6t3ktUJwJ8n_3x0x3cli8commands5group10add_member0B9_
FNDA:1,_RNCNvNtNtNtCs6t3ktUJwJ8n_3x0x3cli8commands5group10state_seal0B9_
FNDA:0,_RNCNvNtNtNtCs6t3ktUJwJ8n_3x0x3cli8commands5group11card_import0B9_
FNDA:1,_RNCNvNtNtNtCs6t3ktUJwJ8n_3x0x3cli8commands5group13remove_member0B9_
FNDA:1,_RNCNvNtNtNtCs6t3ktUJwJ8n_3x0x3cli8commands5group13secure_reseal0B9_
FNDA:1,_RNCNvNtNtNtCs6t3ktUJwJ8n_3x0x3cli8commands5group14cancel_request0B9_
FNDA:1,_RNCNvNtNtNtCs6t3ktUJwJ8n_3x0x3cli8commands5group14reject_request0B9_
FNDA:1,_RNCNvNtNtNtCs6t3ktUJwJ8n_3x0x3cli8commands5group14request_access0B9_
FNDA:0,_RNCNvNtNtNtCs6t3ktUJwJ8n_3x0x3cli8commands5group14secure_decrypt0B9_
FNDA:1,_RNCNvNtNtNtCs6t3ktUJwJ8n_3x0x3cli8commands5group14secure_encrypt0B9_
FNDA:1,_RNCNvNtNtNtCs6t3ktUJwJ8n_3x0x3cli8commands5group14state_withdraw0B9_
FNDA:1,_RNCNvNtNtNtCs6t3ktUJwJ8n_3x0x3cli8commands5group15approve_request0B9_
FNDA:1,_RNCNvNtNtNtCs6t3ktUJwJ8n_3x0x3cli8commands5group15discover_nearby0B9_
FNDA:1,_RNCNvNtNtNtCs6t3ktUJwJ8n_3x0x3cli8commands5group18discover_subscribe0B9_
FNDA:1,_RNCNvNtNtNtCs6t3ktUJwJ8n_3x0x3cli8commands5group20discover_unsubscribe0B9_
FNDA:0,_RNCNvNtNtNtCs6t3ktUJwJ8n_3x0x3cli8commands5group20secure_open_envelope0B9_
FNDA:1,_RNCNvNtNtNtCs6t3ktUJwJ8n_3x0x3cli8commands5group22discover_subscriptions0B9_
FNDA:1,_RNCNvNtNtNtCs6t3ktUJwJ8n_3x0x3cli8commands5group3ban0B9_
FNDA:1,_RNCNvNtNtNtCs6t3ktUJwJ8n_3x0x3cli8commands5group4card0B9_
FNDA:1,_RNCNvNtNtNtCs6t3ktUJwJ8n_3x0x3cli8commands5group4info0B9_
FNDA:1,_RNCNvNtNtNtCs6t3ktUJwJ8n_3x0x3cli8commands5group4join0B9_
FNDA:1,_RNCNvNtNtNtCs6t3ktUJwJ8n_3x0x3cli8commands5group4list0B9_
FNDA:0,_RNCNvNtNtNtCs6t3ktUJwJ8n_3x0x3cli8commands5group4send0B9_
FNDA:1,_RNCNvNtNtNtCs6t3ktUJwJ8n_3x0x3cli8commands5group5leave0B9_
FNDA:1,_RNCNvNtNtNtCs6t3ktUJwJ8n_3x0x3cli8commands5group5state0B9_
FNDA:1,_RNCNvNtNtNtCs6t3ktUJwJ8n_3x0x3cli8commands5group5unban0B9_
FNDA:1,_RNCNvNtNtNtCs6t3ktUJwJ8n_3x0x3cli8commands5group6create0B9_
FNDA:1,_RNCNvNtNtNtCs6t3ktUJwJ8n_3x0x3cli8commands5group6invite0B9_
FNDA:0,_RNCNvNtNtNtCs6t3ktUJwJ8n_3x0x3cli8commands5group6policy0B9_
FNDA:0,_RNCNvNtNtNtCs6t3ktUJwJ8n_3x0x3cli8commands5group6update0B9_
FNDA:1,_RNCNvNtNtNtCs6t3ktUJwJ8n_3x0x3cli8commands5group7members0B9_
FNDA:1,_RNCNvNtNtNtCs6t3ktUJwJ8n_3x0x3cli8commands5group8discover0B9_
FNDA:1,_RNCNvNtNtNtCs6t3ktUJwJ8n_3x0x3cli8commands5group8messages0B9_
FNDA:1,_RNCNvNtNtNtCs6t3ktUJwJ8n_3x0x3cli8commands5group8requests0B9_
FNDA:1,_RNCNvNtNtNtCs6t3ktUJwJ8n_3x0x3cli8commands5group8set_name0B9_
FNDA:0,_RNCNvNtNtNtCs6t3ktUJwJ8n_3x0x3cli8commands5group8set_role0B9_
FNDA:29,_RNvNtNtNtNtCs6t3ktUJwJ8n_3x0x3cli8commands5group5tests17start_mock_server
FNDA:1,_RNvNtNtNtNtCs6t3ktUJwJ8n_3x0x3cli8commands5group5testss_25ban_returns_mock_response
FNDA:1,_RNvNtNtNtNtCs6t3ktUJwJ8n_3x0x3cli8commands5group5testss_26card_returns_mock_response
FNDA:1,_RNvNtNtNtNtCs6t3ktUJwJ8n_3x0x3cli8commands5group5testss_26info_returns_mock_response
FNDA:1,_RNvNtNtNtNtCs6t3ktUJwJ8n_3x0x3cli8commands5group5testss_26join_returns_mock_response
FNDA:1,_RNvNtNtNtNtCs6t3ktUJwJ8n_3x0x3cli8commands5group5testss_26list_returns_mock_response
FNDA:1,_RNvNtNtNtNtCs6t3ktUJwJ8n_3x0x3cli8commands5group5testss_27leave_returns_mock_response
FNDA:1,_RNvNtNtNtNtCs6t3ktUJwJ8n_3x0x3cli8commands5group5testss_27state_returns_mock_response
FNDA:1,_RNvNtNtNtNtCs6t3ktUJwJ8n_3x0x3cli8commands5group5testss_27unban_returns_mock_response
FNDA:1,_RNvNtNtNtNtCs6t3ktUJwJ8n_3x0x3cli8commands5group5testss_28create_returns_mock_response
FNDA:1,_RNvNtNtNtNtCs6t3ktUJwJ8n_3x0x3cli8commands5group5testss_28invite_returns_mock_response
FNDA:1,_RNvNtNtNtNtCs6t3ktUJwJ8n_3x0x3cli8commands5group5testss_29members_returns_mock_response
FNDA:1,_RNvNtNtNtNtCs6t3ktUJwJ8n_3x0x3cli8commands5group5testss_30discover_returns_mock_response
FNDA:1,_RNvNtNtNtNtCs6t3ktUJwJ8n_3x0x3cli8commands5group5testss_30messages_returns_mock_response
FNDA:1,_RNvNtNtNtNtCs6t3ktUJwJ8n_3x0x3cli8commands5group5testss_30requests_returns_mock_response
FNDA:1,_RNvNtNtNtNtCs6t3ktUJwJ8n_3x0x3cli8commands5group5testss_30set_name_returns_mock_response
FNDA:1,_RNvNtNtNtNtCs6t3ktUJwJ8n_3x0x3cli8commands5group5testss_32add_member_returns_mock_response
FNDA:1,_RNvNtNtNtNtCs6t3ktUJwJ8n_3x0x3cli8commands5group5testss_32state_seal_returns_mock_response
FNDA:1,_RNvNtNtNtNtCs6t3ktUJwJ8n_3x0x3cli8commands5group5testss_35remove_member_returns_mock_response
FNDA:1,_RNvNtNtNtNtCs6t3ktUJwJ8n_3x0x3cli8commands5group5testss_35secure_reseal_returns_mock_response
FNDA:1,_RNvNtNtNtNtCs6t3ktUJwJ8n_3x0x3cli8commands5group5testss_36cancel_request_returns_mock_response
FNDA:1,_RNvNtNtNtNtCs6t3ktUJwJ8n_3x0x3cli8commands5group5testss_36reject_request_returns_mock_response
FNDA:1,_RNvNtNtNtNtCs6t3ktUJwJ8n_3x0x3cli8commands5group5testss_36request_access_returns_mock_response
FNDA:1,_RNvNtNtNtNtCs6t3ktUJwJ8n_3x0x3cli8commands5group5testss_36secure_encrypt_returns_mock_response
FNDA:1,_RNvNtNtNtNtCs6t3ktUJwJ8n_3x0x3cli8commands5group5testss_36state_withdraw_returns_mock_response
FNDA:1,_RNvNtNtNtNtCs6t3ktUJwJ8n_3x0x3cli8commands5group5testss_37approve_request_returns_mock_response
FNDA:1,_RNvNtNtNtNtCs6t3ktUJwJ8n_3x0x3cli8commands5group5testss_37discover_nearby_returns_mock_response
FNDA:1,_RNvNtNtNtNtCs6t3ktUJwJ8n_3x0x3cli8commands5group5testss_40discover_subscribe_returns_mock_response
FNDA:1,_RNvNtNtNtNtCs6t3ktUJwJ8n_3x0x3cli8commands5group5testss_42discover_unsubscribe_returns_mock_response
FNDA:1,_RNvNtNtNtNtCs6t3ktUJwJ8n_3x0x3cli8commands5group5testss_44discover_subscriptions_returns_mock_response
FNF:138
FNH:126
DA:15,1
DA:16,1
DA:17,1
DA:18,1
DA:19,1
DA:20,1
DA:23,1
DA:24,1
DA:25,1
DA:26,1
DA:27,1
DA:28,1
DA:29,1
DA:30,1
DA:31,1
DA:32,1
DA:33,0
DA:34,1
DA:35,1
DA:36,0
DA:37,1
DA:38,1
DA:39,0
DA:40,1
DA:41,1
DA:42,1
DA:43,1
DA:44,1
DA:47,1
DA:48,1
DA:49,1
DA:50,1
DA:51,1
DA:52,1
DA:55,1
DA:56,1
DA:57,1
DA:58,1
DA:59,1
DA:60,1
DA:61,1
DA:62,1
DA:65,0
DA:66,0
DA:67,0
DA:68,0
DA:69,0
DA:70,0
DA:71,0
DA:72,0
DA:73,0
DA:74,0
DA:75,0
DA:76,1
DA:79,1
DA:80,1
DA:81,1
DA:82,1
DA:83,1
DA:84,1
DA:87,1
DA:88,1
DA:89,1
DA:90,1
DA:91,1
DA:92,1
DA:93,1
DA:94,1
DA:95,1
DA:96,0
DA:97,1
DA:98,1
DA:99,1
DA:100,1
DA:101,1
DA:102,1
DA:103,1
DA:106,1
DA:107,1
DA:108,1
DA:109,1
DA:110,1
DA:111,1
DA:112,1
DA:113,1
DA:116,1
DA:117,1
DA:118,1
DA:119,1
DA:120,1
DA:121,1
DA:122,1
DA:123,1
DA:124,1
DA:127,1
DA:128,1
DA:129,1
DA:130,1
DA:131,1
DA:132,1
DA:133,1
DA:134,1
DA:135,0
DA:136,1
DA:137,1
DA:138,1
DA:139,1
DA:140,1
DA:143,1
DA:144,1
DA:145,1
DA:146,1
DA:147,1
DA:148,1
DA:149,1
DA:150,1
DA:151,1
DA:154,1
DA:155,1
DA:156,1
DA:157,1
DA:158,1
DA:159,1
DA:170,1
DA:171,1
DA:172,1
DA:173,1
DA:174,1
DA:175,1
DA:176,1
DA:177,1
DA:178,1
DA:179,1
DA:180,1
DA:181,1
DA:182,1
DA:183,1
DA:184,1
DA:185,1
DA:186,1
DA:189,0
DA:190,0
DA:191,0
DA:192,0
DA:193,0
DA:194,0
DA:195,0
DA:196,0
DA:197,0
DA:198,0
DA:199,0
DA:200,0
DA:201,0
DA:202,0
DA:203,0
DA:204,0
DA:205,0
DA:206,0
DA:207,0
DA:208,0
DA:209,0
DA:210,0
DA:211,0
DA:212,0
DA:213,0
DA:214,1
DA:217,0
DA:218,0
DA:219,0
DA:220,0
DA:221,0
DA:222,0
DA:223,0
DA:224,0
DA:225,0
DA:226,0
DA:227,0
DA:228,0
DA:229,0
DA:230,0
DA:231,0
DA:232,0
DA:233,0
DA:236,1
DA:237,1
DA:238,1
DA:239,1
DA:240,1
DA:241,1
DA:242,1
DA:243,1
DA:246,1
DA:247,1
DA:248,1
DA:249,1
DA:250,1
DA:251,1
DA:252,1
DA:253,1
DA:258,1
DA:259,1
DA:260,1
DA:261,1
DA:262,1
DA:263,1
DA:266,1
DA:267,1
DA:268,1
DA:269,1
DA:270,1
DA:271,1
DA:272,1
DA:273,0
DA:274,1
DA:276,1
DA:277,1
DA:278,1
DA:279,1
DA:280,1
DA:281,1
DA:284,1
DA:285,1
DA:286,1
DA:287,1
DA:288,1
DA:289,1
DA:290,1
DA:291,1
DA:292,1
DA:293,1
DA:294,1
DA:295,1
DA:298,1
DA:299,1
DA:300,1
DA:301,1
DA:302,1
DA:303,1
DA:304,1
DA:305,1
DA:308,1
DA:309,1
DA:310,1
DA:311,1
DA:312,1
DA:313,1
DA:314,1
DA:315,1
DA:320,1
DA:321,1
DA:322,1
DA:323,1
DA:324,0
DA:326,1
DA:327,1
DA:328,1
DA:331,1
DA:332,1
DA:333,1
DA:334,1
DA:335,1
DA:336,1
DA:339,1
DA:340,1
DA:341,1
DA:342,1
DA:343,1
DA:344,1
DA:347,1
DA:348,1
DA:349,1
DA:350,1
DA:351,1
DA:352,1
DA:353,1
DA:354,1
DA:355,1
DA:356,0
DA:357,1
DA:358,1
DA:359,0
DA:360,1
DA:361,1
DA:362,1
DA:363,1
DA:364,1
DA:367,1
DA:368,1
DA:369,1
DA:370,1
DA:371,1
DA:372,1
DA:373,1
DA:374,1
DA:377,1
DA:378,1
DA:379,1
DA:380,1
DA:381,1
DA:382,1
DA:388,0
DA:389,0
DA:390,0
DA:392,0
DA:393,0
DA:394,0
DA:395,0
DA:396,0
DA:398,0
DA:400,0
DA:401,0
DA:402,0
DA:403,0
DA:404,0
DA:409,0
DA:410,0
DA:411,0
DA:412,0
DA:413,0
DA:414,0
DA:415,0
DA:416,0
DA:417,0
DA:418,0
DA:419,0
DA:420,0
DA:421,0
DA:422,0
DA:423,0
DA:424,0
DA:425,0
DA:428,1
DA:429,1
DA:430,1
DA:431,1
DA:432,1
DA:433,1
DA:438,1
DA:439,1
DA:440,1
DA:441,1
DA:442,1
DA:443,1
DA:446,1
DA:447,1
DA:448,1
DA:449,1
DA:450,1
DA:451,1
DA:452,1
DA:453,1
DA:456,1
DA:457,1
DA:458,1
DA:459,1
DA:460,1
DA:461,1
DA:462,1
DA:463,1
DA:470,1
DA:472,1
DA:473,1
DA:474,1
DA:475,1
DA:476,1
DA:477,1
DA:478,1
DA:479,1
DA:480,1
DA:483,0
DA:484,0
DA:485,0
DA:486,0
DA:487,0
DA:488,0
DA:489,0
DA:490,0
DA:491,0
DA:492,0
DA:493,0
DA:494,0
DA:496,0
DA:497,0
DA:498,0
DA:499,0
DA:500,0
DA:501,0
DA:504,1
DA:505,1
DA:506,1
DA:507,1
DA:508,1
DA:509,1
DA:510,1
DA:511,1
DA:512,1
DA:519,0
DA:520,0
DA:521,0
DA:523,0
DA:524,0
DA:525,0
DA:526,0
DA:527,0
DA:529,0
DA:531,0
DA:532,0
DA:533,0
DA:534,0
DA:535,0
DA:536,0
DA:537,0
DA:547,29
DA:550,29
DA:551,58
DA:552,58
DA:553,58
DA:554,58
DA:555,58
DA:556,58
DA:557,58
DA:558,58
DA:559,58
DA:560,58
DA:561,58
DA:563,29
DA:564,29
DA:565,29
DA:567,29
DA:568,29
DA:569,29
DA:570,29
DA:571,0
DA:572,0
DA:574,29
DA:576,29
DA:577,29
DA:581,1
DA:582,1
DA:583,1
DA:584,1
DA:585,1
DA:586,1
DA:587,1
DA:589,1
DA:590,1
DA:591,1
DA:592,1
DA:593,1
DA:594,1
DA:595,1
DA:597,1
DA:598,1
DA:599,1
DA:600,1
DA:601,1
DA:602,1
DA:603,1
DA:607,1
DA:608,1
DA:609,1
DA:610,1
DA:611,1
DA:612,1
DA:613,1
DA:616,1
DA:617,1
DA:618,1
DA:619,1
DA:620,1
DA:621,1
DA:622,1
DA:625,1
DA:626,1
DA:627,1
DA:628,1
DA:629,1
DA:630,1
DA:631,1
DA:634,1
DA:635,1
DA:636,1
DA:637,1
DA:638,1
DA:639,1
DA:640,1
DA:643,1
DA:644,1
DA:645,1
DA:646,1
DA:647,1
DA:648,1
DA:649,1
DA:652,1
DA:653,1
DA:654,1
DA:655,1
DA:656,1
DA:657,1
DA:658,1
DA:661,1
DA:662,1
DA:663,1
DA:664,1
DA:665,1
DA:666,1
DA:667,1
DA:670,1
DA:671,1
DA:672,1
DA:673,1
DA:674,1
DA:675,1
DA:676,1
DA:679,1
DA:680,1
DA:681,1
DA:682,1
DA:683,1
DA:684,1
DA:685,1
DA:688,1
DA:689,1
DA:690,1
DA:691,1
DA:692,1
DA:693,1
DA:694,1
DA:697,1
DA:698,1
DA:699,1
DA:700,1
DA:701,1
DA:702,1
DA:703,1
DA:706,1
DA:707,1
DA:708,1
DA:709,1
DA:710,1
DA:711,1
DA:712,1
DA:715,1
DA:716,1
DA:717,1
DA:718,1
DA:719,1
DA:720,1
DA:721,1
DA:724,1
DA:725,1
DA:726,1
DA:727,1
DA:728,1
DA:729,1
DA:730,1
DA:733,1
DA:734,1
DA:735,1
DA:736,1
DA:737,1
DA:738,1
DA:739,1
DA:742,1
DA:743,1
DA:744,1
DA:745,1
DA:746,1
DA:747,1
DA:748,1
DA:751,1
DA:752,1
DA:753,1
DA:754,1
DA:755,1
DA:756,1
DA:757,1
DA:760,1
DA:761,1
DA:762,1
DA:763,1
DA:764,1
DA:765,1
DA:766,1
DA:769,1
DA:770,1
DA:771,1
DA:772,1
DA:773,1
DA:774,1
DA:775,1
DA:778,1
DA:779,1
DA:780,1
DA:781,1
DA:782,1
DA:783,1
DA:784,1
DA:787,1
DA:788,1
DA:789,1
DA:790,1
DA:791,1
DA:792,1
DA:793,1
DA:796,1
DA:797,1
DA:798,1
DA:799,1
DA:800,1
DA:801,1
DA:802,1
DA:805,1
DA:806,1
DA:807,1
DA:808,1
DA:809,1
DA:810,1
DA:811,1
DA:814,1
DA:815,1
DA:816,1
DA:817,1
DA:818,1
DA:819,1
DA:820,1
DA:823,1
DA:824,1
DA:825,1
DA:826,1
DA:827,1
DA:828,1
DA:829,1
DA:832,1
DA:833,1
DA:834,1
DA:835,1
DA:836,1
DA:837,1
DA:838,1
BRF:0
BRH:0
LF:740
LH:604
end_of_record
SF:/Users/davidirvine/Desktop/Devel/projects/x0x/src/cli/commands/groups.rs
FN:36,_RNvNtNtNtCsfB8W1BOG4Wp_3x0x3cli8commands6groups10add_member
FN:47,_RNvNtNtNtCsfB8W1BOG4Wp_3x0x3cli8commands6groups13remove_member
FN:28,_RNvNtNtNtCsfB8W1BOG4Wp_3x0x3cli8commands6groups3get
FN:8,_RNvNtNtNtCsfB8W1BOG4Wp_3x0x3cli8commands6groups4list
FN:16,_RNvNtNtNtCsfB8W1BOG4Wp_3x0x3cli8commands6groups6create
FN:69,_RNvNtNtNtCsfB8W1BOG4Wp_3x0x3cli8commands6groups7decrypt
FN:57,_RNvNtNtNtCsfB8W1BOG4Wp_3x0x3cli8commands6groups7encrypt
FN:88,_RNvNtNtNtCsfB8W1BOG4Wp_3x0x3cli8commands6groups7welcome
FN:36,_RNCNvNtNtNtCsfB8W1BOG4Wp_3x0x3cli8commands6groups10add_member0B9_
FN:47,_RNCNvNtNtNtCsfB8W1BOG4Wp_3x0x3cli8commands6groups13remove_member0B9_
FN:28,_RNCNvNtNtNtCsfB8W1BOG4Wp_3x0x3cli8commands6groups3get0B9_
FN:8,_RNCNvNtNtNtCsfB8W1BOG4Wp_3x0x3cli8commands6groups4list0B9_
FN:16,_RNCNvNtNtNtCsfB8W1BOG4Wp_3x0x3cli8commands6groups6create0B9_
FN:74,_RNCNvNtNtNtCsfB8W1BOG4Wp_3x0x3cli8commands6groups7decrypt0B9_
FN:57,_RNCNvNtNtNtCsfB8W1BOG4Wp_3x0x3cli8commands6groups7encrypt0B9_
FN:88,_RNCNvNtNtNtCsfB8W1BOG4Wp_3x0x3cli8commands6groups7welcome0B9_
FN:69,_RNvNtNtNtCs6t3ktUJwJ8n_3x0x3cli8commands6groups7decrypt
FN:112,_RNCNCNCNvNtNtNtNtCs6t3ktUJwJ8n_3x0x3cli8commands6groups5tests17start_mock_server000Bf_
FN:128,_RNCNCNCNvNtNtNtNtCs6t3ktUJwJ8n_3x0x3cli8commands6groups5tests17start_mock_server0s_00Bf_
FN:110,_RNCNCNvNtNtNtNtCs6t3ktUJwJ8n_3x0x3cli8commands6groups5tests17start_mock_server00Bd_
FN:126,_RNCNCNvNtNtNtNtCs6t3ktUJwJ8n_3x0x3cli8commands6groups5tests17start_mock_server0s_0Bd_
FN:106,_RNCNvNtNtNtNtCs6t3ktUJwJ8n_3x0x3cli8commands6groups5tests17start_mock_server0Bb_
FN:148,_RNCNvNtNtNtNtCs6t3ktUJwJ8n_3x0x3cli8commands6groups5testss_25get_returns_mock_response0Bb_
FN:140,_RNCNvNtNtNtNtCs6t3ktUJwJ8n_3x0x3cli8commands6groups5testss_26list_returns_mock_response0Bb_
FN:158,_RNCNvNtNtNtNtCs6t3ktUJwJ8n_3x0x3cli8commands6groups5testss_28create_returns_mock_response0Bb_
FN:182,_RNCNvNtNtNtNtCs6t3ktUJwJ8n_3x0x3cli8commands6groups5testss_29encrypt_returns_mock_response0Bb_
FN:190,_RNCNvNtNtNtNtCs6t3ktUJwJ8n_3x0x3cli8commands6groups5testss_29welcome_returns_mock_response0Bb_
FN:166,_RNCNvNtNtNtNtCs6t3ktUJwJ8n_3x0x3cli8commands6groups5testss_32add_member_returns_mock_response0Bb_
FN:174,_RNCNvNtNtNtNtCs6t3ktUJwJ8n_3x0x3cli8commands6groups5testss_35remove_member_returns_mock_response0Bb_
FN:36,_RNvNtNtNtCs6t3ktUJwJ8n_3x0x3cli8commands6groups10add_member
FN:47,_RNvNtNtNtCs6t3ktUJwJ8n_3x0x3cli8commands6groups13remove_member
FN:28,_RNvNtNtNtCs6t3ktUJwJ8n_3x0x3cli8commands6groups3get
FN:8,_RNvNtNtNtCs6t3ktUJwJ8n_3x0x3cli8commands6groups4list
FN:16,_RNvNtNtNtCs6t3ktUJwJ8n_3x0x3cli8commands6groups6create
FN:57,_RNvNtNtNtCs6t3ktUJwJ8n_3x0x3cli8commands6groups7encrypt
FN:88,_RNvNtNtNtCs6t3ktUJwJ8n_3x0x3cli8commands6groups7welcome
FN:36,_RNCNvNtNtNtCs6t3ktUJwJ8n_3x0x3cli8commands6groups10add_member0B9_
FN:47,_RNCNvNtNtNtCs6t3ktUJwJ8n_3x0x3cli8commands6groups13remove_member0B9_
FN:28,_RNCNvNtNtNtCs6t3ktUJwJ8n_3x0x3cli8commands6groups3get0B9_
FN:8,_RNCNvNtNtNtCs6t3ktUJwJ8n_3x0x3cli8commands6groups4list0B9_
FN:16,_RNCNvNtNtNtCs6t3ktUJwJ8n_3x0x3cli8commands6groups6create0B9_
FN:74,_RNCNvNtNtNtCs6t3ktUJwJ8n_3x0x3cli8commands6groups7decrypt0B9_
FN:57,_RNCNvNtNtNtCs6t3ktUJwJ8n_3x0x3cli8commands6groups7encrypt0B9_
FN:88,_RNCNvNtNtNtCs6t3ktUJwJ8n_3x0x3cli8commands6groups7welcome0B9_
FN:106,_RNvNtNtNtNtCs6t3ktUJwJ8n_3x0x3cli8commands6groups5tests17start_mock_server
FN:148,_RNvNtNtNtNtCs6t3ktUJwJ8n_3x0x3cli8commands6groups5testss_25get_returns_mock_response
FN:140,_RNvNtNtNtNtCs6t3ktUJwJ8n_3x0x3cli8commands6groups5testss_26list_returns_mock_response
FN:158,_RNvNtNtNtNtCs6t3ktUJwJ8n_3x0x3cli8commands6groups5testss_28create_returns_mock_response
FN:182,_RNvNtNtNtNtCs6t3ktUJwJ8n_3x0x3cli8commands6groups5testss_29encrypt_returns_mock_response
FN:190,_RNvNtNtNtNtCs6t3ktUJwJ8n_3x0x3cli8commands6groups5testss_29welcome_returns_mock_response
FN:166,_RNvNtNtNtNtCs6t3ktUJwJ8n_3x0x3cli8commands6groups5testss_32add_member_returns_mock_response
FN:174,_RNvNtNtNtNtCs6t3ktUJwJ8n_3x0x3cli8commands6groups5testss_35remove_member_returns_mock_response
FNDA:0,_RNvNtNtNtCsfB8W1BOG4Wp_3x0x3cli8commands6groups10add_member
FNDA:0,_RNvNtNtNtCsfB8W1BOG4Wp_3x0x3cli8commands6groups13remove_member
FNDA:0,_RNvNtNtNtCsfB8W1BOG4Wp_3x0x3cli8commands6groups3get
FNDA:0,_RNvNtNtNtCsfB8W1BOG4Wp_3x0x3cli8commands6groups4list
FNDA:0,_RNvNtNtNtCsfB8W1BOG4Wp_3x0x3cli8commands6groups6create
FNDA:0,_RNvNtNtNtCsfB8W1BOG4Wp_3x0x3cli8commands6groups7decrypt
FNDA:0,_RNvNtNtNtCsfB8W1BOG4Wp_3x0x3cli8commands6groups7encrypt
FNDA:0,_RNvNtNtNtCsfB8W1BOG4Wp_3x0x3cli8commands6groups7welcome
FNDA:0,_RNCNvNtNtNtCsfB8W1BOG4Wp_3x0x3cli8commands6groups10add_member0B9_
FNDA:0,_RNCNvNtNtNtCsfB8W1BOG4Wp_3x0x3cli8commands6groups13remove_member0B9_
FNDA:0,_RNCNvNtNtNtCsfB8W1BOG4Wp_3x0x3cli8commands6groups3get0B9_
FNDA:0,_RNCNvNtNtNtCsfB8W1BOG4Wp_3x0x3cli8commands6groups4list0B9_
FNDA:0,_RNCNvNtNtNtCsfB8W1BOG4Wp_3x0x3cli8commands6groups6create0B9_
FNDA:0,_RNCNvNtNtNtCsfB8W1BOG4Wp_3x0x3cli8commands6groups7decrypt0B9_
FNDA:0,_RNCNvNtNtNtCsfB8W1BOG4Wp_3x0x3cli8commands6groups7encrypt0B9_
FNDA:0,_RNCNvNtNtNtCsfB8W1BOG4Wp_3x0x3cli8commands6groups7welcome0B9_
FNDA:0,_RNvNtNtNtCs6t3ktUJwJ8n_3x0x3cli8commands6groups7decrypt
FNDA:14,_RNCNCNCNvNtNtNtNtCs6t3ktUJwJ8n_3x0x3cli8commands6groups5tests17start_mock_server000Bf_
FNDA:7,_RNCNCNCNvNtNtNtNtCs6t3ktUJwJ8n_3x0x3cli8commands6groups5tests17start_mock_server0s_00Bf_
FNDA:14,_RNCNCNvNtNtNtNtCs6t3ktUJwJ8n_3x0x3cli8commands6groups5tests17start_mock_server00Bd_
FNDA:7,_RNCNCNvNtNtNtNtCs6t3ktUJwJ8n_3x0x3cli8commands6groups5tests17start_mock_server0s_0Bd_
FNDA:7,_RNCNvNtNtNtNtCs6t3ktUJwJ8n_3x0x3cli8commands6groups5tests17start_mock_server0Bb_
FNDA:1,_RNCNvNtNtNtNtCs6t3ktUJwJ8n_3x0x3cli8commands6groups5testss_25get_returns_mock_response0Bb_
FNDA:1,_RNCNvNtNtNtNtCs6t3ktUJwJ8n_3x0x3cli8commands6groups5testss_26list_returns_mock_response0Bb_
FNDA:1,_RNCNvNtNtNtNtCs6t3ktUJwJ8n_3x0x3cli8commands6groups5testss_28create_returns_mock_response0Bb_
FNDA:1,_RNCNvNtNtNtNtCs6t3ktUJwJ8n_3x0x3cli8commands6groups5testss_29encrypt_returns_mock_response0Bb_
FNDA:1,_RNCNvNtNtNtNtCs6t3ktUJwJ8n_3x0x3cli8commands6groups5testss_29welcome_returns_mock_response0Bb_
FNDA:1,_RNCNvNtNtNtNtCs6t3ktUJwJ8n_3x0x3cli8commands6groups5testss_32add_member_returns_mock_response0Bb_
FNDA:1,_RNCNvNtNtNtNtCs6t3ktUJwJ8n_3x0x3cli8commands6groups5testss_35remove_member_returns_mock_response0Bb_
FNDA:1,_RNvNtNtNtCs6t3ktUJwJ8n_3x0x3cli8commands6groups10add_member
FNDA:1,_RNvNtNtNtCs6t3ktUJwJ8n_3x0x3cli8commands6groups13remove_member
FNDA:1,_RNvNtNtNtCs6t3ktUJwJ8n_3x0x3cli8commands6groups3get
FNDA:1,_RNvNtNtNtCs6t3ktUJwJ8n_3x0x3cli8commands6groups4list
FNDA:1,_RNvNtNtNtCs6t3ktUJwJ8n_3x0x3cli8commands6groups6create
FNDA:1,_RNvNtNtNtCs6t3ktUJwJ8n_3x0x3cli8commands6groups7encrypt
FNDA:1,_RNvNtNtNtCs6t3ktUJwJ8n_3x0x3cli8commands6groups7welcome
FNDA:1,_RNCNvNtNtNtCs6t3ktUJwJ8n_3x0x3cli8commands6groups10add_member0B9_
FNDA:1,_RNCNvNtNtNtCs6t3ktUJwJ8n_3x0x3cli8commands6groups13remove_member0B9_
FNDA:1,_RNCNvNtNtNtCs6t3ktUJwJ8n_3x0x3cli8commands6groups3get0B9_
FNDA:1,_RNCNvNtNtNtCs6t3ktUJwJ8n_3x0x3cli8commands6groups4list0B9_
FNDA:1,_RNCNvNtNtNtCs6t3ktUJwJ8n_3x0x3cli8commands6groups6create0B9_
FNDA:0,_RNCNvNtNtNtCs6t3ktUJwJ8n_3x0x3cli8commands6groups7decrypt0B9_
FNDA:1,_RNCNvNtNtNtCs6t3ktUJwJ8n_3x0x3cli8commands6groups7encrypt0B9_
FNDA:1,_RNCNvNtNtNtCs6t3ktUJwJ8n_3x0x3cli8commands6groups7welcome0B9_
FNDA:7,_RNvNtNtNtNtCs6t3ktUJwJ8n_3x0x3cli8commands6groups5tests17start_mock_server
FNDA:1,_RNvNtNtNtNtCs6t3ktUJwJ8n_3x0x3cli8commands6groups5testss_25get_returns_mock_response
FNDA:1,_RNvNtNtNtNtCs6t3ktUJwJ8n_3x0x3cli8commands6groups5testss_26list_returns_mock_response
FNDA:1,_RNvNtNtNtNtCs6t3ktUJwJ8n_3x0x3cli8commands6groups5testss_28create_returns_mock_response
FNDA:1,_RNvNtNtNtNtCs6t3ktUJwJ8n_3x0x3cli8commands6groups5testss_29encrypt_returns_mock_response
FNDA:1,_RNvNtNtNtNtCs6t3ktUJwJ8n_3x0x3cli8commands6groups5testss_29welcome_returns_mock_response
FNDA:1,_RNvNtNtNtNtCs6t3ktUJwJ8n_3x0x3cli8commands6groups5testss_32add_member_returns_mock_response
FNDA:1,_RNvNtNtNtNtCs6t3ktUJwJ8n_3x0x3cli8commands6groups5testss_35remove_member_returns_mock_response
FNF:36
FNH:34
DA:8,1
DA:9,1
DA:10,1
DA:11,1
DA:12,1
DA:13,1
DA:16,1
DA:17,1
DA:18,1
DA:19,1
DA:20,0
DA:22,1
DA:23,1
DA:24,1
DA:25,1
DA:28,1
DA:29,1
DA:30,1
DA:31,1
DA:32,1
DA:33,1
DA:36,1
DA:37,1
DA:38,1
DA:39,1
DA:40,1
DA:41,1
DA:42,1
DA:43,1
DA:44,1
DA:47,1
DA:48,1
DA:49,1
DA:50,1
DA:51,1
DA:52,1
DA:53,1
DA:54,1
DA:57,1
DA:58,1
DA:59,1
DA:60,1
DA:61,1
DA:62,1
DA:63,1
DA:64,1
DA:65,1
DA:66,1
DA:69,0
DA:70,0
DA:71,0
DA:72,0
DA:73,0
DA:74,0
DA:75,0
DA:76,0
DA:77,0
DA:78,0
DA:80,0
DA:81,0
DA:82,0
DA:83,0
DA:84,0
DA:85,0
DA:88,1
DA:89,1
DA:90,1
DA:91,1
DA:92,1
DA:93,1
DA:94,1
DA:95,1
DA:96,1
DA:106,7
DA:109,7
DA:110,14
DA:111,14
DA:112,14
DA:113,14
DA:114,14
DA:115,14
DA:116,14
DA:117,14
DA:118,14
DA:119,14
DA:120,14
DA:122,7
DA:123,7
DA:124,7
DA:126,7
DA:127,7
DA:128,7
DA:129,7
DA:130,0
DA:131,0
DA:133,7
DA:135,7
DA:136,7
DA:140,1
DA:141,1
DA:142,1
DA:143,1
DA:144,1
DA:145,1
DA:146,1
DA:148,1
DA:149,1
DA:150,1
DA:151,1
DA:152,1
DA:153,1
DA:154,1
DA:158,1
DA:159,1
DA:160,1
DA:161,1
DA:162,1
DA:163,1
DA:164,1
DA:166,1
DA:167,1
DA:168,1
DA:169,1
DA:170,1
DA:171,1
DA:172,1
DA:174,1
DA:175,1
DA:176,1
DA:177,1
DA:178,1
DA:179,1
DA:180,1
DA:182,1
DA:183,1
DA:184,1
DA:185,1
DA:186,1
DA:187,1
DA:188,1
DA:190,1
DA:191,1
DA:192,1
DA:193,1
DA:194,1
DA:195,1
DA:196,1
BRF:0
BRH:0
LF:173
LH:153
end_of_record
SF:/Users/davidirvine/Desktop/Devel/projects/x0x/src/cli/commands/identity.rs
FN:91,_RNCNCNvNtNtNtCsfB8W1BOG4Wp_3x0x3cli8commands8identity4card00Bb_
FN:114,_RNCNvNtNtNtCsfB8W1BOG4Wp_3x0x3cli8commands8identity11import_card0B9_
FN:102,_RNCNvNtNtNtCsfB8W1BOG4Wp_3x0x3cli8commands8identity12introduction0B9_
FN:9,_RNCNvNtNtNtCsfB8W1BOG4Wp_3x0x3cli8commands8identity14identity_words0B9_
FN:17,_RNCNvNtNtNtCsfB8W1BOG4Wp_3x0x3cli8commands8identity21inject_identity_words0B9_
FN:29,_RNCNvNtNtNtCsfB8W1BOG4Wp_3x0x3cli8commands8identity21inject_identity_wordss_0B9_
FN:74,_RNCNvNtNtNtCsfB8W1BOG4Wp_3x0x3cli8commands8identity4card0B9_
FN:40,_RNCNvNtNtNtCsfB8W1BOG4Wp_3x0x3cli8commands8identity5agent0B9_
FN:50,_RNCNvNtNtNtCsfB8W1BOG4Wp_3x0x3cli8commands8identity7user_id0B9_
FN:58,_RNCNvNtNtNtCsfB8W1BOG4Wp_3x0x3cli8commands8identity8announce0B9_
FN:110,_RNvNtNtNtCsfB8W1BOG4Wp_3x0x3cli8commands8identity11import_card
FN:102,_RNvNtNtNtCsfB8W1BOG4Wp_3x0x3cli8commands8identity12introduction
FN:8,_RNvNtNtNtCsfB8W1BOG4Wp_3x0x3cli8commands8identity14identity_words
FN:13,_RNvNtNtNtCsfB8W1BOG4Wp_3x0x3cli8commands8identity21inject_identity_words
FN:70,_RNvNtNtNtCsfB8W1BOG4Wp_3x0x3cli8commands8identity4card
FN:40,_RNvNtNtNtCsfB8W1BOG4Wp_3x0x3cli8commands8identity5agent
FN:50,_RNvNtNtNtCsfB8W1BOG4Wp_3x0x3cli8commands8identity7user_id
FN:58,_RNvNtNtNtCsfB8W1BOG4Wp_3x0x3cli8commands8identity8announce
FN:110,_RNvNtNtNtCs6t3ktUJwJ8n_3x0x3cli8commands8identity11import_card
FN:102,_RNvNtNtNtCs6t3ktUJwJ8n_3x0x3cli8commands8identity12introduction
FN:70,_RNvNtNtNtCs6t3ktUJwJ8n_3x0x3cli8commands8identity4card
FN:40,_RNvNtNtNtCs6t3ktUJwJ8n_3x0x3cli8commands8identity5agent
FN:50,_RNvNtNtNtCs6t3ktUJwJ8n_3x0x3cli8commands8identity7user_id
FN:58,_RNvNtNtNtCs6t3ktUJwJ8n_3x0x3cli8commands8identity8announce
FN:8,_RNvNtNtNtCs6t3ktUJwJ8n_3x0x3cli8commands8identity14identity_words
FN:13,_RNvNtNtNtCs6t3ktUJwJ8n_3x0x3cli8commands8identity21inject_identity_words
FN:91,_RNCNCNvNtNtNtCs6t3ktUJwJ8n_3x0x3cli8commands8identity4card00Bb_
FN:114,_RNCNvNtNtNtCs6t3ktUJwJ8n_3x0x3cli8commands8identity11import_card0B9_
FN:102,_RNCNvNtNtNtCs6t3ktUJwJ8n_3x0x3cli8commands8identity12introduction0B9_
FN:9,_RNCNvNtNtNtCs6t3ktUJwJ8n_3x0x3cli8commands8identity14identity_words0B9_
FN:17,_RNCNvNtNtNtCs6t3ktUJwJ8n_3x0x3cli8commands8identity21inject_identity_words0B9_
FN:29,_RNCNvNtNtNtCs6t3ktUJwJ8n_3x0x3cli8commands8identity21inject_identity_wordss_0B9_
FN:74,_RNCNvNtNtNtCs6t3ktUJwJ8n_3x0x3cli8commands8identity4card0B9_
FN:40,_RNCNvNtNtNtCs6t3ktUJwJ8n_3x0x3cli8commands8identity5agent0B9_
FN:50,_RNCNvNtNtNtCs6t3ktUJwJ8n_3x0x3cli8commands8identity7user_id0B9_
FN:58,_RNCNvNtNtNtCs6t3ktUJwJ8n_3x0x3cli8commands8identity8announce0B9_
FN:132,_RNvNtNtNtNtCs6t3ktUJwJ8n_3x0x3cli8commands8identity5testss_32identity_words_encodes_known_hex
FN:151,_RNvNtNtNtNtCs6t3ktUJwJ8n_3x0x3cli8commands8identity5testss_32identity_words_rejects_short_hex
FN:144,_RNvNtNtNtNtCs6t3ktUJwJ8n_3x0x3cli8commands8identity5testss_34identity_words_rejects_invalid_hex
FN:180,_RNvNtNtNtNtCs6t3ktUJwJ8n_3x0x3cli8commands8identity5testss_37inject_identity_words_adds_user_words
FN:193,_RNvNtNtNtNtCs6t3ktUJwJ8n_3x0x3cli8commands8identity5testss_40inject_identity_words_handles_non_object
FN:158,_RNvNtNtNtNtCs6t3ktUJwJ8n_3x0x3cli8commands8identity5testss_42inject_identity_words_adds_words_to_object
FN:172,_RNvNtNtNtNtCs6t3ktUJwJ8n_3x0x3cli8commands8identity5testss_44inject_identity_words_skips_missing_agent_id
FNDA:0,_RNCNCNvNtNtNtCsfB8W1BOG4Wp_3x0x3cli8commands8identity4card00Bb_
FNDA:0,_RNCNvNtNtNtCsfB8W1BOG4Wp_3x0x3cli8commands8identity11import_card0B9_
FNDA:0,_RNCNvNtNtNtCsfB8W1BOG4Wp_3x0x3cli8commands8identity12introduction0B9_
FNDA:0,_RNCNvNtNtNtCsfB8W1BOG4Wp_3x0x3cli8commands8identity14identity_words0B9_
FNDA:0,_RNCNvNtNtNtCsfB8W1BOG4Wp_3x0x3cli8commands8identity21inject_identity_words0B9_
FNDA:0,_RNCNvNtNtNtCsfB8W1BOG4Wp_3x0x3cli8commands8identity21inject_identity_wordss_0B9_
FNDA:0,_RNCNvNtNtNtCsfB8W1BOG4Wp_3x0x3cli8commands8identity4card0B9_
FNDA:0,_RNCNvNtNtNtCsfB8W1BOG4Wp_3x0x3cli8commands8identity5agent0B9_
FNDA:0,_RNCNvNtNtNtCsfB8W1BOG4Wp_3x0x3cli8commands8identity7user_id0B9_
FNDA:0,_RNCNvNtNtNtCsfB8W1BOG4Wp_3x0x3cli8commands8identity8announce0B9_
FNDA:0,_RNvNtNtNtCsfB8W1BOG4Wp_3x0x3cli8commands8identity11import_card
FNDA:0,_RNvNtNtNtCsfB8W1BOG4Wp_3x0x3cli8commands8identity12introduction
FNDA:0,_RNvNtNtNtCsfB8W1BOG4Wp_3x0x3cli8commands8identity14identity_words
FNDA:0,_RNvNtNtNtCsfB8W1BOG4Wp_3x0x3cli8commands8identity21inject_identity_words
FNDA:0,_RNvNtNtNtCsfB8W1BOG4Wp_3x0x3cli8commands8identity4card
FNDA:0,_RNvNtNtNtCsfB8W1BOG4Wp_3x0x3cli8commands8identity5agent
FNDA:0,_RNvNtNtNtCsfB8W1BOG4Wp_3x0x3cli8commands8identity7user_id
FNDA:0,_RNvNtNtNtCsfB8W1BOG4Wp_3x0x3cli8commands8identity8announce
FNDA:0,_RNvNtNtNtCs6t3ktUJwJ8n_3x0x3cli8commands8identity11import_card
FNDA:0,_RNvNtNtNtCs6t3ktUJwJ8n_3x0x3cli8commands8identity12introduction
FNDA:0,_RNvNtNtNtCs6t3ktUJwJ8n_3x0x3cli8commands8identity4card
FNDA:0,_RNvNtNtNtCs6t3ktUJwJ8n_3x0x3cli8commands8identity5agent
FNDA:0,_RNvNtNtNtCs6t3ktUJwJ8n_3x0x3cli8commands8identity7user_id
FNDA:0,_RNvNtNtNtCs6t3ktUJwJ8n_3x0x3cli8commands8identity8announce
FNDA:7,_RNvNtNtNtCs6t3ktUJwJ8n_3x0x3cli8commands8identity14identity_words
FNDA:5,_RNvNtNtNtCs6t3ktUJwJ8n_3x0x3cli8commands8identity21inject_identity_words
FNDA:0,_RNCNCNvNtNtNtCs6t3ktUJwJ8n_3x0x3cli8commands8identity4card00Bb_
FNDA:0,_RNCNvNtNtNtCs6t3ktUJwJ8n_3x0x3cli8commands8identity11import_card0B9_
FNDA:0,_RNCNvNtNtNtCs6t3ktUJwJ8n_3x0x3cli8commands8identity12introduction0B9_
FNDA:5,_RNCNvNtNtNtCs6t3ktUJwJ8n_3x0x3cli8commands8identity14identity_words0B9_
FNDA:3,_RNCNvNtNtNtCs6t3ktUJwJ8n_3x0x3cli8commands8identity21inject_identity_words0B9_
FNDA:1,_RNCNvNtNtNtCs6t3ktUJwJ8n_3x0x3cli8commands8identity21inject_identity_wordss_0B9_
FNDA:0,_RNCNvNtNtNtCs6t3ktUJwJ8n_3x0x3cli8commands8identity4card0B9_
FNDA:0,_RNCNvNtNtNtCs6t3ktUJwJ8n_3x0x3cli8commands8identity5agent0B9_
FNDA:0,_RNCNvNtNtNtCs6t3ktUJwJ8n_3x0x3cli8commands8identity7user_id0B9_
FNDA:0,_RNCNvNtNtNtCs6t3ktUJwJ8n_3x0x3cli8commands8identity8announce0B9_
FNDA:1,_RNvNtNtNtNtCs6t3ktUJwJ8n_3x0x3cli8commands8identity5testss_32identity_words_encodes_known_hex
FNDA:1,_RNvNtNtNtNtCs6t3ktUJwJ8n_3x0x3cli8commands8identity5testss_32identity_words_rejects_short_hex
FNDA:1,_RNvNtNtNtNtCs6t3ktUJwJ8n_3x0x3cli8commands8identity5testss_34identity_words_rejects_invalid_hex
FNDA:1,_RNvNtNtNtNtCs6t3ktUJwJ8n_3x0x3cli8commands8identity5testss_37inject_identity_words_adds_user_words
FNDA:1,_RNvNtNtNtNtCs6t3ktUJwJ8n_3x0x3cli8commands8identity5testss_40inject_identity_words_handles_non_object
FNDA:1,_RNvNtNtNtNtCs6t3ktUJwJ8n_3x0x3cli8commands8identity5testss_42inject_identity_words_adds_words_to_object
FNDA:1,_RNvNtNtNtNtCs6t3ktUJwJ8n_3x0x3cli8commands8identity5testss_44inject_identity_words_skips_missing_agent_id
FNF:25
FNH:12
DA:8,7
DA:9,7
DA:10,7
DA:13,5
DA:14,5
DA:15,4
DA:16,4
DA:17,4
DA:18,4
DA:20,3
DA:21,3
DA:22,3
DA:23,3
DA:24,3
DA:25,3
DA:26,1
DA:27,4
DA:28,4
DA:29,4
DA:30,4
DA:32,1
DA:33,1
DA:34,1
DA:35,3
DA:36,1
DA:37,5
DA:40,0
DA:41,0
DA:42,0
DA:43,0
DA:44,0
DA:45,0
DA:46,0
DA:47,0
DA:50,0
DA:51,0
DA:52,0
DA:53,0
DA:54,0
DA:55,0
DA:58,0
DA:59,0
DA:60,0
DA:61,0
DA:62,0
DA:64,0
DA:65,0
DA:66,0
DA:67,0
DA:70,0
DA:71,0
DA:72,0
DA:73,0
DA:74,0
DA:75,0
DA:76,0
DA:77,0
DA:78,0
DA:79,0
DA:80,0
DA:81,0
DA:82,0
DA:83,0
DA:84,0
DA:86,0
DA:88,0
DA:91,0
DA:92,0
DA:93,0
DA:94,0
DA:95,0
DA:96,0
DA:97,0
DA:98,0
DA:99,0
DA:102,0
DA:103,0
DA:104,0
DA:105,0
DA:106,0
DA:107,0
DA:110,0
DA:111,0
DA:112,0
DA:113,0
DA:114,0
DA:115,0
DA:116,0
DA:117,0
DA:118,0
DA:119,0
DA:120,0
DA:121,0
DA:122,0
DA:123,0
DA:132,1
DA:133,1
DA:134,1
DA:135,1
DA:136,1
DA:137,1
DA:138,1
DA:140,1
DA:141,1
DA:144,1
DA:145,1
DA:146,1
DA:147,1
DA:148,1
DA:151,1
DA:152,1
DA:153,1
DA:154,1
DA:155,1
DA:158,1
DA:159,1
DA:160,1
DA:161,1
DA:162,1
DA:163,1
DA:165,1
DA:166,1
DA:167,1
DA:168,1
DA:169,1
DA:172,1
DA:173,1
DA:174,1
DA:175,1
DA:176,1
DA:177,1
DA:180,1
DA:181,1
DA:182,1
DA:183,1
DA:184,1
DA:185,1
DA:187,1
DA:188,1
DA:189,1
DA:190,1
DA:193,1
DA:194,1
DA:195,1
DA:196,1
DA:198,1
DA:199,1
BRF:0
BRH:0
LF:157
LH:81
end_of_record
SF:/Users/davidirvine/Desktop/Devel/projects/x0x/src/cli/commands/machines.rs
FN:7,_RNvNtNtNtCsfB8W1BOG4Wp_3x0x3cli8commands8machines10discovered
FN:21,_RNvNtNtNtCsfB8W1BOG4Wp_3x0x3cli8commands8machines14get_discovered
FN:61,_RNvNtNtNtCsfB8W1BOG4Wp_3x0x3cli8commands8machines3add
FN:85,_RNvNtNtNtCsfB8W1BOG4Wp_3x0x3cli8commands8machines3pin
FN:51,_RNvNtNtNtCsfB8W1BOG4Wp_3x0x3cli8commands8machines4list
FN:95,_RNvNtNtNtCsfB8W1BOG4Wp_3x0x3cli8commands8machines5unpin
FN:75,_RNvNtNtNtCsfB8W1BOG4Wp_3x0x3cli8commands8machines6remove
FN:34,_RNvNtNtNtCsfB8W1BOG4Wp_3x0x3cli8commands8machines7by_user
FN:42,_RNvNtNtNtCsfB8W1BOG4Wp_3x0x3cli8commands8machines7connect
FN:7,_RNCNvNtNtNtCsfB8W1BOG4Wp_3x0x3cli8commands8machines10discovered0B9_
FN:21,_RNCNvNtNtNtCsfB8W1BOG4Wp_3x0x3cli8commands8machines14get_discovered0B9_
FN:61,_RNCNvNtNtNtCsfB8W1BOG4Wp_3x0x3cli8commands8machines3add0B9_
FN:85,_RNCNvNtNtNtCsfB8W1BOG4Wp_3x0x3cli8commands8machines3pin0B9_
FN:51,_RNCNvNtNtNtCsfB8W1BOG4Wp_3x0x3cli8commands8machines4list0B9_
FN:95,_RNCNvNtNtNtCsfB8W1BOG4Wp_3x0x3cli8commands8machines5unpin0B9_
FN:75,_RNCNvNtNtNtCsfB8W1BOG4Wp_3x0x3cli8commands8machines6remove0B9_
FN:34,_RNCNvNtNtNtCsfB8W1BOG4Wp_3x0x3cli8commands8machines7by_user0B9_
FN:42,_RNCNvNtNtNtCsfB8W1BOG4Wp_3x0x3cli8commands8machines7connect0B9_
FN:61,_RNvNtNtNtCs6t3ktUJwJ8n_3x0x3cli8commands8machines3add
FN:85,_RNvNtNtNtCs6t3ktUJwJ8n_3x0x3cli8commands8machines3pin
FN:95,_RNvNtNtNtCs6t3ktUJwJ8n_3x0x3cli8commands8machines5unpin
FN:75,_RNvNtNtNtCs6t3ktUJwJ8n_3x0x3cli8commands8machines6remove
FN:42,_RNvNtNtNtCs6t3ktUJwJ8n_3x0x3cli8commands8machines7connect
FN:7,_RNCNvNtNtNtCs6t3ktUJwJ8n_3x0x3cli8commands8machines10discovered0B9_
FN:21,_RNCNvNtNtNtCs6t3ktUJwJ8n_3x0x3cli8commands8machines14get_discovered0B9_
FN:61,_RNCNvNtNtNtCs6t3ktUJwJ8n_3x0x3cli8commands8machines3add0B9_
FN:85,_RNCNvNtNtNtCs6t3ktUJwJ8n_3x0x3cli8commands8machines3pin0B9_
FN:51,_RNCNvNtNtNtCs6t3ktUJwJ8n_3x0x3cli8commands8machines4list0B9_
FN:95,_RNCNvNtNtNtCs6t3ktUJwJ8n_3x0x3cli8commands8machines5unpin0B9_
FN:75,_RNCNvNtNtNtCs6t3ktUJwJ8n_3x0x3cli8commands8machines6remove0B9_
FN:34,_RNCNvNtNtNtCs6t3ktUJwJ8n_3x0x3cli8commands8machines7by_user0B9_
FN:42,_RNCNvNtNtNtCs6t3ktUJwJ8n_3x0x3cli8commands8machines7connect0B9_
FN:112,_RNvNtNtNtNtCs6t3ktUJwJ8n_3x0x3cli8commands8machines5tests17start_mock_server
FN:172,_RNvNtNtNtNtCs6t3ktUJwJ8n_3x0x3cli8commands8machines5testss_26list_returns_mock_response
FN:164,_RNvNtNtNtNtCs6t3ktUJwJ8n_3x0x3cli8commands8machines5testss_29by_user_returns_mock_response
FN:146,_RNvNtNtNtNtCs6t3ktUJwJ8n_3x0x3cli8commands8machines5testss_32discovered_returns_mock_response
FN:156,_RNvNtNtNtNtCs6t3ktUJwJ8n_3x0x3cli8commands8machines5testss_36get_discovered_returns_mock_response
FN:7,_RNvNtNtNtCs6t3ktUJwJ8n_3x0x3cli8commands8machines10discovered
FN:21,_RNvNtNtNtCs6t3ktUJwJ8n_3x0x3cli8commands8machines14get_discovered
FN:51,_RNvNtNtNtCs6t3ktUJwJ8n_3x0x3cli8commands8machines4list
FN:34,_RNvNtNtNtCs6t3ktUJwJ8n_3x0x3cli8commands8machines7by_user
FN:118,_RNCNCNCNvNtNtNtNtCs6t3ktUJwJ8n_3x0x3cli8commands8machines5tests17start_mock_server000Bf_
FN:134,_RNCNCNCNvNtNtNtNtCs6t3ktUJwJ8n_3x0x3cli8commands8machines5tests17start_mock_server0s_00Bf_
FN:116,_RNCNCNvNtNtNtNtCs6t3ktUJwJ8n_3x0x3cli8commands8machines5tests17start_mock_server00Bd_
FN:132,_RNCNCNvNtNtNtNtCs6t3ktUJwJ8n_3x0x3cli8commands8machines5tests17start_mock_server0s_0Bd_
FN:112,_RNCNvNtNtNtNtCs6t3ktUJwJ8n_3x0x3cli8commands8machines5tests17start_mock_server0Bb_
FN:172,_RNCNvNtNtNtNtCs6t3ktUJwJ8n_3x0x3cli8commands8machines5testss_26list_returns_mock_response0Bb_
FN:164,_RNCNvNtNtNtNtCs6t3ktUJwJ8n_3x0x3cli8commands8machines5testss_29by_user_returns_mock_response0Bb_
FN:146,_RNCNvNtNtNtNtCs6t3ktUJwJ8n_3x0x3cli8commands8machines5testss_32discovered_returns_mock_response0Bb_
FN:156,_RNCNvNtNtNtNtCs6t3ktUJwJ8n_3x0x3cli8commands8machines5testss_36get_discovered_returns_mock_response0Bb_
FNDA:0,_RNvNtNtNtCsfB8W1BOG4Wp_3x0x3cli8commands8machines10discovered
FNDA:0,_RNvNtNtNtCsfB8W1BOG4Wp_3x0x3cli8commands8machines14get_discovered
FNDA:0,_RNvNtNtNtCsfB8W1BOG4Wp_3x0x3cli8commands8machines3add
FNDA:0,_RNvNtNtNtCsfB8W1BOG4Wp_3x0x3cli8commands8machines3pin
FNDA:0,_RNvNtNtNtCsfB8W1BOG4Wp_3x0x3cli8commands8machines4list
FNDA:0,_RNvNtNtNtCsfB8W1BOG4Wp_3x0x3cli8commands8machines5unpin
FNDA:0,_RNvNtNtNtCsfB8W1BOG4Wp_3x0x3cli8commands8machines6remove
FNDA:0,_RNvNtNtNtCsfB8W1BOG4Wp_3x0x3cli8commands8machines7by_user
FNDA:0,_RNvNtNtNtCsfB8W1BOG4Wp_3x0x3cli8commands8machines7connect
FNDA:0,_RNCNvNtNtNtCsfB8W1BOG4Wp_3x0x3cli8commands8machines10discovered0B9_
FNDA:0,_RNCNvNtNtNtCsfB8W1BOG4Wp_3x0x3cli8commands8machines14get_discovered0B9_
FNDA:0,_RNCNvNtNtNtCsfB8W1BOG4Wp_3x0x3cli8commands8machines3add0B9_
FNDA:0,_RNCNvNtNtNtCsfB8W1BOG4Wp_3x0x3cli8commands8machines3pin0B9_
FNDA:0,_RNCNvNtNtNtCsfB8W1BOG4Wp_3x0x3cli8commands8machines4list0B9_
FNDA:0,_RNCNvNtNtNtCsfB8W1BOG4Wp_3x0x3cli8commands8machines5unpin0B9_
FNDA:0,_RNCNvNtNtNtCsfB8W1BOG4Wp_3x0x3cli8commands8machines6remove0B9_
FNDA:0,_RNCNvNtNtNtCsfB8W1BOG4Wp_3x0x3cli8commands8machines7by_user0B9_
FNDA:0,_RNCNvNtNtNtCsfB8W1BOG4Wp_3x0x3cli8commands8machines7connect0B9_
FNDA:0,_RNvNtNtNtCs6t3ktUJwJ8n_3x0x3cli8commands8machines3add
FNDA:0,_RNvNtNtNtCs6t3ktUJwJ8n_3x0x3cli8commands8machines3pin
FNDA:0,_RNvNtNtNtCs6t3ktUJwJ8n_3x0x3cli8commands8machines5unpin
FNDA:0,_RNvNtNtNtCs6t3ktUJwJ8n_3x0x3cli8commands8machines6remove
FNDA:0,_RNvNtNtNtCs6t3ktUJwJ8n_3x0x3cli8commands8machines7connect
FNDA:1,_RNCNvNtNtNtCs6t3ktUJwJ8n_3x0x3cli8commands8machines10discovered0B9_
FNDA:1,_RNCNvNtNtNtCs6t3ktUJwJ8n_3x0x3cli8commands8machines14get_discovered0B9_
FNDA:0,_RNCNvNtNtNtCs6t3ktUJwJ8n_3x0x3cli8commands8machines3add0B9_
FNDA:0,_RNCNvNtNtNtCs6t3ktUJwJ8n_3x0x3cli8commands8machines3pin0B9_
FNDA:1,_RNCNvNtNtNtCs6t3ktUJwJ8n_3x0x3cli8commands8machines4list0B9_
FNDA:0,_RNCNvNtNtNtCs6t3ktUJwJ8n_3x0x3cli8commands8machines5unpin0B9_
FNDA:0,_RNCNvNtNtNtCs6t3ktUJwJ8n_3x0x3cli8commands8machines6remove0B9_
FNDA:1,_RNCNvNtNtNtCs6t3ktUJwJ8n_3x0x3cli8commands8machines7by_user0B9_
FNDA:0,_RNCNvNtNtNtCs6t3ktUJwJ8n_3x0x3cli8commands8machines7connect0B9_
FNDA:4,_RNvNtNtNtNtCs6t3ktUJwJ8n_3x0x3cli8commands8machines5tests17start_mock_server
FNDA:1,_RNvNtNtNtNtCs6t3ktUJwJ8n_3x0x3cli8commands8machines5testss_26list_returns_mock_response
FNDA:1,_RNvNtNtNtNtCs6t3ktUJwJ8n_3x0x3cli8commands8machines5testss_29by_user_returns_mock_response
FNDA:1,_RNvNtNtNtNtCs6t3ktUJwJ8n_3x0x3cli8commands8machines5testss_32discovered_returns_mock_response
FNDA:1,_RNvNtNtNtNtCs6t3ktUJwJ8n_3x0x3cli8commands8machines5testss_36get_discovered_returns_mock_response
FNDA:1,_RNvNtNtNtCs6t3ktUJwJ8n_3x0x3cli8commands8machines10discovered
FNDA:1,_RNvNtNtNtCs6t3ktUJwJ8n_3x0x3cli8commands8machines14get_discovered
FNDA:1,_RNvNtNtNtCs6t3ktUJwJ8n_3x0x3cli8commands8machines4list
FNDA:1,_RNvNtNtNtCs6t3ktUJwJ8n_3x0x3cli8commands8machines7by_user
FNDA:8,_RNCNCNCNvNtNtNtNtCs6t3ktUJwJ8n_3x0x3cli8commands8machines5tests17start_mock_server000Bf_
FNDA:4,_RNCNCNCNvNtNtNtNtCs6t3ktUJwJ8n_3x0x3cli8commands8machines5tests17start_mock_server0s_00Bf_
FNDA:8,_RNCNCNvNtNtNtNtCs6t3ktUJwJ8n_3x0x3cli8commands8machines5tests17start_mock_server00Bd_
FNDA:4,_RNCNCNvNtNtNtNtCs6t3ktUJwJ8n_3x0x3cli8commands8machines5tests17start_mock_server0s_0Bd_
FNDA:4,_RNCNvNtNtNtNtCs6t3ktUJwJ8n_3x0x3cli8commands8machines5tests17start_mock_server0Bb_
FNDA:1,_RNCNvNtNtNtNtCs6t3ktUJwJ8n_3x0x3cli8commands8machines5testss_26list_returns_mock_response0Bb_
FNDA:1,_RNCNvNtNtNtNtCs6t3ktUJwJ8n_3x0x3cli8commands8machines5testss_29by_user_returns_mock_response0Bb_
FNDA:1,_RNCNvNtNtNtNtCs6t3ktUJwJ8n_3x0x3cli8commands8machines5testss_32discovered_returns_mock_response0Bb_
FNDA:1,_RNCNvNtNtNtNtCs6t3ktUJwJ8n_3x0x3cli8commands8machines5testss_36get_discovered_returns_mock_response0Bb_
FNF:32
FNH:22
DA:7,1
DA:8,1
DA:9,1
DA:10,0
DA:11,0
DA:12,0
DA:14,1
DA:16,1
DA:17,1
DA:18,1
DA:21,1
DA:22,1
DA:23,1
DA:24,1
DA:25,0
DA:27,1
DA:29,1
DA:30,1
DA:31,1
DA:34,1
DA:35,1
DA:36,1
DA:37,1
DA:38,1
DA:39,1
DA:42,0
DA:43,0
DA:44,0
DA:45,0
DA:46,0
DA:47,0
DA:48,0
DA:51,1
DA:52,1
DA:53,1
DA:54,1
DA:55,1
DA:56,1
DA:57,1
DA:58,1
DA:61,0
DA:62,0
DA:63,0
DA:64,0
DA:65,0
DA:67,0
DA:68,0
DA:69,0
DA:70,0
DA:71,0
DA:72,0
DA:75,0
DA:76,0
DA:77,0
DA:78,0
DA:79,0
DA:80,0
DA:81,0
DA:82,0
DA:85,0
DA:86,0
DA:87,0
DA:88,0
DA:89,0
DA:90,0
DA:91,0
DA:92,0
DA:95,0
DA:96,0
DA:97,0
DA:98,0
DA:99,0
DA:100,0
DA:101,0
DA:102,0
DA:112,4
DA:115,4
DA:116,8
DA:117,8
DA:118,8
DA:119,8
DA:120,8
DA:121,8
DA:122,8
DA:123,8
DA:124,8
DA:125,8
DA:126,8
DA:128,4
DA:129,4
DA:130,4
DA:132,4
DA:133,4
DA:134,4
DA:135,4
DA:136,0
DA:137,0
DA:139,4
DA:141,4
DA:142,4
DA:146,1
DA:147,1
DA:148,1
DA:149,1
DA:150,1
DA:151,1
DA:152,1
DA:156,1
DA:157,1
DA:158,1
DA:159,1
DA:160,1
DA:161,1
DA:162,1
DA:164,1
DA:165,1
DA:166,1
DA:167,1
DA:168,1
DA:169,1
DA:170,1
DA:172,1
DA:173,1
DA:174,1
DA:175,1
DA:176,1
DA:177,1
DA:178,1
BRF:0
BRH:0
LF:149
LH:96
end_of_record
SF:/Users/davidirvine/Desktop/Devel/projects/x0x/src/cli/commands/messaging.rs
FN:29,_RNCNCNvNtNtNtCsfB8W1BOG4Wp_3x0x3cli8commands9messaging9subscribe00Bb_
FN:57,_RNCNvNtNtNtCsfB8W1BOG4Wp_3x0x3cli8commands9messaging10stream_sse0B9_
FN:42,_RNCNvNtNtNtCsfB8W1BOG4Wp_3x0x3cli8commands9messaging11unsubscribe0B9_
FN:50,_RNCNvNtNtNtCsfB8W1BOG4Wp_3x0x3cli8commands9messaging6events0B9_
FN:8,_RNCNvNtNtNtCsfB8W1BOG4Wp_3x0x3cli8commands9messaging7publish0B9_
FN:21,_RNCNvNtNtNtCsfB8W1BOG4Wp_3x0x3cli8commands9messaging9subscribe0B9_
FN:57,_RNvNtNtNtCsfB8W1BOG4Wp_3x0x3cli8commands9messaging10stream_sse
FN:42,_RNvNtNtNtCsfB8W1BOG4Wp_3x0x3cli8commands9messaging11unsubscribe
FN:50,_RNvNtNtNtCsfB8W1BOG4Wp_3x0x3cli8commands9messaging6events
FN:8,_RNvNtNtNtCsfB8W1BOG4Wp_3x0x3cli8commands9messaging7publish
FN:21,_RNvNtNtNtCsfB8W1BOG4Wp_3x0x3cli8commands9messaging9subscribe
FN:42,_RNvNtNtNtCs6t3ktUJwJ8n_3x0x3cli8commands9messaging11unsubscribe
FN:50,_RNvNtNtNtCs6t3ktUJwJ8n_3x0x3cli8commands9messaging6events
FN:8,_RNvNtNtNtCs6t3ktUJwJ8n_3x0x3cli8commands9messaging7publish
FN:29,_RNCNCNvNtNtNtCs6t3ktUJwJ8n_3x0x3cli8commands9messaging9subscribe00Bb_
FN:57,_RNCNvNtNtNtCs6t3ktUJwJ8n_3x0x3cli8commands9messaging10stream_sse0B9_
FN:42,_RNCNvNtNtNtCs6t3ktUJwJ8n_3x0x3cli8commands9messaging11unsubscribe0B9_
FN:50,_RNCNvNtNtNtCs6t3ktUJwJ8n_3x0x3cli8commands9messaging6events0B9_
FN:8,_RNCNvNtNtNtCs6t3ktUJwJ8n_3x0x3cli8commands9messaging7publish0B9_
FN:21,_RNCNvNtNtNtCs6t3ktUJwJ8n_3x0x3cli8commands9messaging9subscribe0B9_
FN:57,_RNvNtNtNtCs6t3ktUJwJ8n_3x0x3cli8commands9messaging10stream_sse
FN:21,_RNvNtNtNtCs6t3ktUJwJ8n_3x0x3cli8commands9messaging9subscribe
FN:107,_RNCNCNCNvNtNtNtNtCs6t3ktUJwJ8n_3x0x3cli8commands9messaging5tests17start_mock_server000Bf_
FN:123,_RNCNCNCNvNtNtNtNtCs6t3ktUJwJ8n_3x0x3cli8commands9messaging5tests17start_mock_server0s_00Bf_
FN:105,_RNCNCNvNtNtNtNtCs6t3ktUJwJ8n_3x0x3cli8commands9messaging5tests17start_mock_server00Bd_
FN:121,_RNCNCNvNtNtNtNtCs6t3ktUJwJ8n_3x0x3cli8commands9messaging5tests17start_mock_server0s_0Bd_
FN:101,_RNCNvNtNtNtNtCs6t3ktUJwJ8n_3x0x3cli8commands9messaging5tests17start_mock_server0Bb_
FN:135,_RNCNvNtNtNtNtCs6t3ktUJwJ8n_3x0x3cli8commands9messaging5testss_31subscribe_returns_mock_response0Bb_
FN:101,_RNvNtNtNtNtCs6t3ktUJwJ8n_3x0x3cli8commands9messaging5tests17start_mock_server
FN:135,_RNvNtNtNtNtCs6t3ktUJwJ8n_3x0x3cli8commands9messaging5testss_31subscribe_returns_mock_response
FNDA:0,_RNCNCNvNtNtNtCsfB8W1BOG4Wp_3x0x3cli8commands9messaging9subscribe00Bb_
FNDA:0,_RNCNvNtNtNtCsfB8W1BOG4Wp_3x0x3cli8commands9messaging10stream_sse0B9_
FNDA:0,_RNCNvNtNtNtCsfB8W1BOG4Wp_3x0x3cli8commands9messaging11unsubscribe0B9_
FNDA:0,_RNCNvNtNtNtCsfB8W1BOG4Wp_3x0x3cli8commands9messaging6events0B9_
FNDA:0,_RNCNvNtNtNtCsfB8W1BOG4Wp_3x0x3cli8commands9messaging7publish0B9_
FNDA:0,_RNCNvNtNtNtCsfB8W1BOG4Wp_3x0x3cli8commands9messaging9subscribe0B9_
FNDA:0,_RNvNtNtNtCsfB8W1BOG4Wp_3x0x3cli8commands9messaging10stream_sse
FNDA:0,_RNvNtNtNtCsfB8W1BOG4Wp_3x0x3cli8commands9messaging11unsubscribe
FNDA:0,_RNvNtNtNtCsfB8W1BOG4Wp_3x0x3cli8commands9messaging6events
FNDA:0,_RNvNtNtNtCsfB8W1BOG4Wp_3x0x3cli8commands9messaging7publish
FNDA:0,_RNvNtNtNtCsfB8W1BOG4Wp_3x0x3cli8commands9messaging9subscribe
FNDA:0,_RNvNtNtNtCs6t3ktUJwJ8n_3x0x3cli8commands9messaging11unsubscribe
FNDA:0,_RNvNtNtNtCs6t3ktUJwJ8n_3x0x3cli8commands9messaging6events
FNDA:0,_RNvNtNtNtCs6t3ktUJwJ8n_3x0x3cli8commands9messaging7publish
FNDA:0,_RNCNCNvNtNtNtCs6t3ktUJwJ8n_3x0x3cli8commands9messaging9subscribe00Bb_
FNDA:1,_RNCNvNtNtNtCs6t3ktUJwJ8n_3x0x3cli8commands9messaging10stream_sse0B9_
FNDA:0,_RNCNvNtNtNtCs6t3ktUJwJ8n_3x0x3cli8commands9messaging11unsubscribe0B9_
FNDA:0,_RNCNvNtNtNtCs6t3ktUJwJ8n_3x0x3cli8commands9messaging6events0B9_
FNDA:0,_RNCNvNtNtNtCs6t3ktUJwJ8n_3x0x3cli8commands9messaging7publish0B9_
FNDA:1,_RNCNvNtNtNtCs6t3ktUJwJ8n_3x0x3cli8commands9messaging9subscribe0B9_
FNDA:1,_RNvNtNtNtCs6t3ktUJwJ8n_3x0x3cli8commands9messaging10stream_sse
FNDA:1,_RNvNtNtNtCs6t3ktUJwJ8n_3x0x3cli8commands9messaging9subscribe
FNDA:4,_RNCNCNCNvNtNtNtNtCs6t3ktUJwJ8n_3x0x3cli8commands9messaging5tests17start_mock_server000Bf_
FNDA:1,_RNCNCNCNvNtNtNtNtCs6t3ktUJwJ8n_3x0x3cli8commands9messaging5tests17start_mock_server0s_00Bf_
FNDA:4,_RNCNCNvNtNtNtNtCs6t3ktUJwJ8n_3x0x3cli8commands9messaging5tests17start_mock_server00Bd_
FNDA:1,_RNCNCNvNtNtNtNtCs6t3ktUJwJ8n_3x0x3cli8commands9messaging5tests17start_mock_server0s_0Bd_
FNDA:1,_RNCNvNtNtNtNtCs6t3ktUJwJ8n_3x0x3cli8commands9messaging5tests17start_mock_server0Bb_
FNDA:1,_RNCNvNtNtNtNtCs6t3ktUJwJ8n_3x0x3cli8commands9messaging5testss_31subscribe_returns_mock_response0Bb_
FNDA:1,_RNvNtNtNtNtCs6t3ktUJwJ8n_3x0x3cli8commands9messaging5tests17start_mock_server
FNDA:1,_RNvNtNtNtNtCs6t3ktUJwJ8n_3x0x3cli8commands9messaging5testss_31subscribe_returns_mock_response
FNF:19
FNH:12
DA:8,0
DA:9,0
DA:10,0
DA:11,0
DA:12,0
DA:13,0
DA:15,0
DA:16,0
DA:17,0
DA:18,0
DA:21,1
DA:22,1
DA:25,1
DA:26,1
DA:27,1
DA:28,1
DA:29,1
DA:30,1
DA:31,1
DA:34,1
DA:37,1
DA:38,1
DA:39,1
DA:42,0
DA:43,0
DA:44,0
DA:45,0
DA:46,0
DA:47,0
DA:50,0
DA:51,0
DA:52,0
DA:53,0
DA:54,0
DA:57,1
DA:60,1
DA:61,1
DA:62,1
DA:64,2
DA:65,1
DA:66,1
DA:69,1
DA:70,0
DA:71,0
DA:73,0
DA:74,0
DA:75,0
DA:76,0
DA:78,0
DA:79,0
DA:80,0
DA:81,0
DA:82,0
DA:85,0
DA:90,1
DA:91,1
DA:101,1
DA:104,1
DA:105,4
DA:106,4
DA:107,4
DA:108,4
DA:109,4
DA:110,4
DA:111,4
DA:112,4
DA:113,4
DA:114,4
DA:115,4
DA:117,1
DA:118,1
DA:119,1
DA:121,1
DA:122,1
DA:123,1
DA:124,1
DA:125,0
DA:126,0
DA:128,1
DA:130,1
DA:131,1
DA:135,1
DA:136,1
DA:137,1
DA:138,1
DA:139,1
DA:140,1
DA:141,1
BRF:0
BRH:0
LF:100
LH:61
end_of_record
SF:/Users/davidirvine/Desktop/Devel/projects/x0x/src/cli/commands/mod.rs
FN:79,_RNvNtNtCsfB8W1BOG4Wp_3x0x3cli8commands11json_escape
FN:32,_RNvNtNtCsfB8W1BOG4Wp_3x0x3cli8commands6routes
FN:134,_RNCNvNtNtNtCs6t3ktUJwJ8n_3x0x3cli8commands5testss_27routes_json_output_is_valid0B9_
FN:142,_RNCNvNtNtNtCs6t3ktUJwJ8n_3x0x3cli8commands5testss_27routes_text_output_is_valid0B9_
FN:79,_RNvNtNtCs6t3ktUJwJ8n_3x0x3cli8commands11json_escape
FN:32,_RNvNtNtCs6t3ktUJwJ8n_3x0x3cli8commands6routes
FN:149,_RNvNtNtNtCs6t3ktUJwJ8n_3x0x3cli8commands5testss_22output_format_defaults
FN:123,_RNvNtNtNtCs6t3ktUJwJ8n_3x0x3cli8commands5testss_23json_escape_escapes_tab
FN:103,_RNvNtNtNtCs6t3ktUJwJ8n_3x0x3cli8commands5testss_25json_escape_simple_string
FN:108,_RNvNtNtNtCs6t3ktUJwJ8n_3x0x3cli8commands5testss_26json_escape_escapes_quotes
FN:118,_RNvNtNtNtCs6t3ktUJwJ8n_3x0x3cli8commands5testss_27json_escape_escapes_newline
FN:133,_RNvNtNtNtCs6t3ktUJwJ8n_3x0x3cli8commands5testss_27routes_json_output_is_valid
FN:141,_RNvNtNtNtCs6t3ktUJwJ8n_3x0x3cli8commands5testss_27routes_text_output_is_valid
FN:113,_RNvNtNtNtCs6t3ktUJwJ8n_3x0x3cli8commands5testss_29json_escape_escapes_backslash
FN:128,_RNvNtNtNtCs6t3ktUJwJ8n_3x0x3cli8commands5testss_33json_escape_escapes_control_chars
FNDA:0,_RNvNtNtCsfB8W1BOG4Wp_3x0x3cli8commands11json_escape
FNDA:0,_RNvNtNtCsfB8W1BOG4Wp_3x0x3cli8commands6routes
FNDA:1,_RNCNvNtNtNtCs6t3ktUJwJ8n_3x0x3cli8commands5testss_27routes_json_output_is_valid0B9_
FNDA:1,_RNCNvNtNtNtCs6t3ktUJwJ8n_3x0x3cli8commands5testss_27routes_text_output_is_valid0B9_
FNDA:526,_RNvNtNtCs6t3ktUJwJ8n_3x0x3cli8commands11json_escape
FNDA:2,_RNvNtNtCs6t3ktUJwJ8n_3x0x3cli8commands6routes
FNDA:1,_RNvNtNtNtCs6t3ktUJwJ8n_3x0x3cli8commands5testss_22output_format_defaults
FNDA:1,_RNvNtNtNtCs6t3ktUJwJ8n_3x0x3cli8commands5testss_23json_escape_escapes_tab
FNDA:1,_RNvNtNtNtCs6t3ktUJwJ8n_3x0x3cli8commands5testss_25json_escape_simple_string
FNDA:1,_RNvNtNtNtCs6t3ktUJwJ8n_3x0x3cli8commands5testss_26json_escape_escapes_quotes
FNDA:1,_RNvNtNtNtCs6t3ktUJwJ8n_3x0x3cli8commands5testss_27json_escape_escapes_newline
FNDA:1,_RNvNtNtNtCs6t3ktUJwJ8n_3x0x3cli8commands5testss_27routes_json_output_is_valid
FNDA:1,_RNvNtNtNtCs6t3ktUJwJ8n_3x0x3cli8commands5testss_27routes_text_output_is_valid
FNDA:1,_RNvNtNtNtCs6t3ktUJwJ8n_3x0x3cli8commands5testss_29json_escape_escapes_backslash
FNDA:1,_RNvNtNtNtCs6t3ktUJwJ8n_3x0x3cli8commands5testss_33json_escape_escapes_control_chars
FNF:13
FNH:13
DA:32,2
DA:33,2
DA:34,1
DA:35,1
DA:36,130
DA:37,130
DA:38,130
DA:39,130
DA:40,130
DA:41,130
DA:42,130
DA:43,130
DA:44,130
DA:45,130
DA:46,129
DA:47,129
DA:48,130
DA:50,1
DA:51,1
DA:52,1
DA:53,1
DA:55,1
DA:56,1
DA:57,1
DA:59,1
DA:63,1
DA:65,18
DA:66,18
DA:67,130
DA:68,130
DA:69,130
DA:70,130
DA:71,130
DA:72,130
DA:75,1
DA:76,1
DA:77,2
DA:79,526
DA:80,526
DA:81,526
DA:82,9307
DA:83,9302
DA:84,2
DA:85,1
DA:86,1
DA:87,0
DA:88,1
DA:89,9302
DA:90,9301
DA:93,526
DA:94,526
DA:95,526
DA:103,1
DA:104,1
DA:105,1
DA:108,1
DA:109,1
DA:110,1
DA:113,1
DA:114,1
DA:115,1
DA:118,1
DA:119,1
DA:120,1
DA:123,1
DA:124,1
DA:125,1
DA:128,1
DA:129,1
DA:130,1
DA:133,1
DA:134,1
DA:135,1
DA:136,1
DA:137,1
DA:138,1
DA:141,1
DA:142,1
DA:143,1
DA:144,1
DA:145,1
DA:146,1
DA:149,1
DA:150,1
DA:151,1
DA:152,1
DA:153,1
DA:154,1
DA:155,1
BRF:0
BRH:0
LF:91
LH:90
end_of_record
SF:/Users/davidirvine/Desktop/Devel/projects/x0x/src/cli/commands/network.rs
FN:257,_RNCNCNCNvNtNtNtCsfB8W1BOG4Wp_3x0x3cli8commands7network17start_mock_server000Bd_
FN:273,_RNCNCNCNvNtNtNtCsfB8W1BOG4Wp_3x0x3cli8commands7network17start_mock_server0s_00Bd_
FN:255,_RNCNCNvNtNtNtCsfB8W1BOG4Wp_3x0x3cli8commands7network17start_mock_server00Bb_
FN:271,_RNCNCNvNtNtNtCsfB8W1BOG4Wp_3x0x3cli8commands7network17start_mock_server0s_0Bb_
FN:251,_RNCNvNtNtNtCsfB8W1BOG4Wp_3x0x3cli8commands7network17start_mock_server0B9_
FN:251,_RNvNtNtNtCsfB8W1BOG4Wp_3x0x3cli8commands7network17start_mock_server
FN:203,_RNCNCNvNtNtNtCsfB8W1BOG4Wp_3x0x3cli8commands7network12peers_events00Bb_
FN:24,_RNCNCNvNtNtNtCsfB8W1BOG4Wp_3x0x3cli8commands7network21inject_location_wordss0_00Bb_
FN:168,_RNCNvNtNtNtCsfB8W1BOG4Wp_3x0x3cli8commands7network11peers_probe0B9_
FN:197,_RNCNvNtNtNtCsfB8W1BOG4Wp_3x0x3cli8commands7network12peers_events0B9_
FN:185,_RNCNvNtNtNtCsfB8W1BOG4Wp_3x0x3cli8commands7network12peers_health0B9_
FN:135,_RNCNvNtNtNtCsfB8W1BOG4Wp_3x0x3cli8commands7network14diagnostics_dm0B9_
FN:78,_RNCNvNtNtNtCsfB8W1BOG4Wp_3x0x3cli8commands7network14network_status0B9_
FN:86,_RNCNvNtNtNtCsfB8W1BOG4Wp_3x0x3cli8commands7network15bootstrap_cache0B9_
FN:111,_RNCNvNtNtNtCsfB8W1BOG4Wp_3x0x3cli8commands7network15diagnostics_ack0B9_
FN:124,_RNCNvNtNtNtCsfB8W1BOG4Wp_3x0x3cli8commands7network18diagnostics_gossip0B9_
FN:152,_RNCNvNtNtNtCsfB8W1BOG4Wp_3x0x3cli8commands7network18diagnostics_groups0B9_
FN:17,_RNCNvNtNtNtCsfB8W1BOG4Wp_3x0x3cli8commands7network21inject_location_words0B9_
FN:23,_RNCNvNtNtNtCsfB8W1BOG4Wp_3x0x3cli8commands7network21inject_location_wordss0_0B9_
FN:22,_RNCNvNtNtNtCsfB8W1BOG4Wp_3x0x3cli8commands7network21inject_location_wordss_0B9_
FN:99,_RNCNvNtNtNtCsfB8W1BOG4Wp_3x0x3cli8commands7network24diagnostics_connectivity0B9_
FN:62,_RNCNvNtNtNtCsfB8W1BOG4Wp_3x0x3cli8commands7network5peers0B9_
FN:43,_RNCNvNtNtNtCsfB8W1BOG4Wp_3x0x3cli8commands7network6health0B9_
FN:51,_RNCNvNtNtNtCsfB8W1BOG4Wp_3x0x3cli8commands7network6status0B9_
FN:70,_RNCNvNtNtNtCsfB8W1BOG4Wp_3x0x3cli8commands7network8presence0B9_
FN:164,_RNvNtNtNtCsfB8W1BOG4Wp_3x0x3cli8commands7network11peers_probe
FN:197,_RNvNtNtNtCsfB8W1BOG4Wp_3x0x3cli8commands7network12peers_events
FN:185,_RNvNtNtNtCsfB8W1BOG4Wp_3x0x3cli8commands7network12peers_health
FN:135,_RNvNtNtNtCsfB8W1BOG4Wp_3x0x3cli8commands7network14diagnostics_dm
FN:78,_RNvNtNtNtCsfB8W1BOG4Wp_3x0x3cli8commands7network14network_status
FN:86,_RNvNtNtNtCsfB8W1BOG4Wp_3x0x3cli8commands7network15bootstrap_cache
FN:111,_RNvNtNtNtCsfB8W1BOG4Wp_3x0x3cli8commands7network15diagnostics_ack
FN:124,_RNvNtNtNtCsfB8W1BOG4Wp_3x0x3cli8commands7network18diagnostics_gossip
FN:152,_RNvNtNtNtCsfB8W1BOG4Wp_3x0x3cli8commands7network18diagnostics_groups
FN:8,_RNvNtNtNtCsfB8W1BOG4Wp_3x0x3cli8commands7network21inject_location_words
FN:99,_RNvNtNtNtCsfB8W1BOG4Wp_3x0x3cli8commands7network24diagnostics_connectivity
FN:62,_RNvNtNtNtCsfB8W1BOG4Wp_3x0x3cli8commands7network5peers
FN:43,_RNvNtNtNtCsfB8W1BOG4Wp_3x0x3cli8commands7network6health
FN:51,_RNvNtNtNtCsfB8W1BOG4Wp_3x0x3cli8commands7network6status
FN:70,_RNvNtNtNtCsfB8W1BOG4Wp_3x0x3cli8commands7network8presence
FN:197,_RNvNtNtNtCs6t3ktUJwJ8n_3x0x3cli8commands7network12peers_events
FN:111,_RNvNtNtNtCs6t3ktUJwJ8n_3x0x3cli8commands7network15diagnostics_ack
FN:257,_RNCNCNCNvNtNtNtCs6t3ktUJwJ8n_3x0x3cli8commands7network17start_mock_server000Bd_
FN:273,_RNCNCNCNvNtNtNtCs6t3ktUJwJ8n_3x0x3cli8commands7network17start_mock_server0s_00Bd_
FN:203,_RNCNCNvNtNtNtCs6t3ktUJwJ8n_3x0x3cli8commands7network12peers_events00Bb_
FN:255,_RNCNCNvNtNtNtCs6t3ktUJwJ8n_3x0x3cli8commands7network17start_mock_server00Bb_
FN:271,_RNCNCNvNtNtNtCs6t3ktUJwJ8n_3x0x3cli8commands7network17start_mock_server0s_0Bb_
FN:24,_RNCNCNvNtNtNtCs6t3ktUJwJ8n_3x0x3cli8commands7network21inject_location_wordss0_00Bb_
FN:168,_RNCNvNtNtNtCs6t3ktUJwJ8n_3x0x3cli8commands7network11peers_probe0B9_
FN:197,_RNCNvNtNtNtCs6t3ktUJwJ8n_3x0x3cli8commands7network12peers_events0B9_
FN:185,_RNCNvNtNtNtCs6t3ktUJwJ8n_3x0x3cli8commands7network12peers_health0B9_
FN:135,_RNCNvNtNtNtCs6t3ktUJwJ8n_3x0x3cli8commands7network14diagnostics_dm0B9_
FN:78,_RNCNvNtNtNtCs6t3ktUJwJ8n_3x0x3cli8commands7network14network_status0B9_
FN:86,_RNCNvNtNtNtCs6t3ktUJwJ8n_3x0x3cli8commands7network15bootstrap_cache0B9_
FN:111,_RNCNvNtNtNtCs6t3ktUJwJ8n_3x0x3cli8commands7network15diagnostics_ack0B9_
FN:251,_RNCNvNtNtNtCs6t3ktUJwJ8n_3x0x3cli8commands7network17start_mock_server0B9_
FN:124,_RNCNvNtNtNtCs6t3ktUJwJ8n_3x0x3cli8commands7network18diagnostics_gossip0B9_
FN:152,_RNCNvNtNtNtCs6t3ktUJwJ8n_3x0x3cli8commands7network18diagnostics_groups0B9_
FN:17,_RNCNvNtNtNtCs6t3ktUJwJ8n_3x0x3cli8commands7network21inject_location_words0B9_
FN:23,_RNCNvNtNtNtCs6t3ktUJwJ8n_3x0x3cli8commands7network21inject_location_wordss0_0B9_
FN:22,_RNCNvNtNtNtCs6t3ktUJwJ8n_3x0x3cli8commands7network21inject_location_wordss_0B9_
FN:99,_RNCNvNtNtNtCs6t3ktUJwJ8n_3x0x3cli8commands7network24diagnostics_connectivity0B9_
FN:62,_RNCNvNtNtNtCs6t3ktUJwJ8n_3x0x3cli8commands7network5peers0B9_
FN:43,_RNCNvNtNtNtCs6t3ktUJwJ8n_3x0x3cli8commands7network6health0B9_
FN:51,_RNCNvNtNtNtCs6t3ktUJwJ8n_3x0x3cli8commands7network6status0B9_
FN:70,_RNCNvNtNtNtCs6t3ktUJwJ8n_3x0x3cli8commands7network8presence0B9_
FN:309,_RNCNvNtNtNtCs6t3ktUJwJ8n_3x0x3cli8commands7networks_27peers_returns_mock_response0B9_
FN:285,_RNCNvNtNtNtCs6t3ktUJwJ8n_3x0x3cli8commands7networks_28health_returns_mock_response0B9_
FN:295,_RNCNvNtNtNtCs6t3ktUJwJ8n_3x0x3cli8commands7networks_28status_returns_mock_response0B9_
FN:319,_RNCNvNtNtNtCs6t3ktUJwJ8n_3x0x3cli8commands7networks_30presence_returns_mock_response0B9_
FN:389,_RNCNvNtNtNtCs6t3ktUJwJ8n_3x0x3cli8commands7networks_33peers_probe_returns_mock_response0B9_
FN:399,_RNCNvNtNtNtCs6t3ktUJwJ8n_3x0x3cli8commands7networks_34peers_health_returns_mock_response0B9_
FN:369,_RNCNvNtNtNtCs6t3ktUJwJ8n_3x0x3cli8commands7networks_36diagnostics_dm_returns_mock_response0B9_
FN:329,_RNCNvNtNtNtCs6t3ktUJwJ8n_3x0x3cli8commands7networks_36network_status_returns_mock_response0B9_
FN:339,_RNCNvNtNtNtCs6t3ktUJwJ8n_3x0x3cli8commands7networks_37bootstrap_cache_returns_mock_response0B9_
FN:359,_RNCNvNtNtNtCs6t3ktUJwJ8n_3x0x3cli8commands7networks_40diagnostics_gossip_returns_mock_response0B9_
FN:379,_RNCNvNtNtNtCs6t3ktUJwJ8n_3x0x3cli8commands7networks_40diagnostics_groups_returns_mock_response0B9_
FN:349,_RNCNvNtNtNtCs6t3ktUJwJ8n_3x0x3cli8commands7networks_46diagnostics_connectivity_returns_mock_response0B9_
FN:216,_RNvNtNtNtNtCs6t3ktUJwJ8n_3x0x3cli8commands7network5testss_38inject_location_words_skips_non_object
FN:237,_RNvNtNtNtNtCs6t3ktUJwJ8n_3x0x3cli8commands7network5testss_41inject_location_words_encodes_valid_addrs
FN:230,_RNvNtNtNtNtCs6t3ktUJwJ8n_3x0x3cli8commands7network5testss_41inject_location_words_handles_empty_addrs
FN:223,_RNvNtNtNtNtCs6t3ktUJwJ8n_3x0x3cli8commands7network5testss_41inject_location_words_skips_missing_addrs
FN:164,_RNvNtNtNtCs6t3ktUJwJ8n_3x0x3cli8commands7network11peers_probe
FN:185,_RNvNtNtNtCs6t3ktUJwJ8n_3x0x3cli8commands7network12peers_health
FN:135,_RNvNtNtNtCs6t3ktUJwJ8n_3x0x3cli8commands7network14diagnostics_dm
FN:78,_RNvNtNtNtCs6t3ktUJwJ8n_3x0x3cli8commands7network14network_status
FN:86,_RNvNtNtNtCs6t3ktUJwJ8n_3x0x3cli8commands7network15bootstrap_cache
FN:251,_RNvNtNtNtCs6t3ktUJwJ8n_3x0x3cli8commands7network17start_mock_server
FN:124,_RNvNtNtNtCs6t3ktUJwJ8n_3x0x3cli8commands7network18diagnostics_gossip
FN:152,_RNvNtNtNtCs6t3ktUJwJ8n_3x0x3cli8commands7network18diagnostics_groups
FN:8,_RNvNtNtNtCs6t3ktUJwJ8n_3x0x3cli8commands7network21inject_location_words
FN:99,_RNvNtNtNtCs6t3ktUJwJ8n_3x0x3cli8commands7network24diagnostics_connectivity
FN:62,_RNvNtNtNtCs6t3ktUJwJ8n_3x0x3cli8commands7network5peers
FN:43,_RNvNtNtNtCs6t3ktUJwJ8n_3x0x3cli8commands7network6health
FN:51,_RNvNtNtNtCs6t3ktUJwJ8n_3x0x3cli8commands7network6status
FN:70,_RNvNtNtNtCs6t3ktUJwJ8n_3x0x3cli8commands7network8presence
FN:309,_RNvNtNtNtCs6t3ktUJwJ8n_3x0x3cli8commands7networks_27peers_returns_mock_response
FN:285,_RNvNtNtNtCs6t3ktUJwJ8n_3x0x3cli8commands7networks_28health_returns_mock_response
FN:295,_RNvNtNtNtCs6t3ktUJwJ8n_3x0x3cli8commands7networks_28status_returns_mock_response
FN:319,_RNvNtNtNtCs6t3ktUJwJ8n_3x0x3cli8commands7networks_30presence_returns_mock_response
FN:389,_RNvNtNtNtCs6t3ktUJwJ8n_3x0x3cli8commands7networks_33peers_probe_returns_mock_response
FN:399,_RNvNtNtNtCs6t3ktUJwJ8n_3x0x3cli8commands7networks_34peers_health_returns_mock_response
FN:369,_RNvNtNtNtCs6t3ktUJwJ8n_3x0x3cli8commands7networks_36diagnostics_dm_returns_mock_response
FN:329,_RNvNtNtNtCs6t3ktUJwJ8n_3x0x3cli8commands7networks_36network_status_returns_mock_response
FN:339,_RNvNtNtNtCs6t3ktUJwJ8n_3x0x3cli8commands7networks_37bootstrap_cache_returns_mock_response
FN:359,_RNvNtNtNtCs6t3ktUJwJ8n_3x0x3cli8commands7networks_40diagnostics_gossip_returns_mock_response
FN:379,_RNvNtNtNtCs6t3ktUJwJ8n_3x0x3cli8commands7networks_40diagnostics_groups_returns_mock_response
FN:349,_RNvNtNtNtCs6t3ktUJwJ8n_3x0x3cli8commands7networks_46diagnostics_connectivity_returns_mock_response
FNDA:0,_RNCNCNCNvNtNtNtCsfB8W1BOG4Wp_3x0x3cli8commands7network17start_mock_server000Bd_
FNDA:0,_RNCNCNCNvNtNtNtCsfB8W1BOG4Wp_3x0x3cli8commands7network17start_mock_server0s_00Bd_
FNDA:0,_RNCNCNvNtNtNtCsfB8W1BOG4Wp_3x0x3cli8commands7network17start_mock_server00Bb_
FNDA:0,_RNCNCNvNtNtNtCsfB8W1BOG4Wp_3x0x3cli8commands7network17start_mock_server0s_0Bb_
FNDA:0,_RNCNvNtNtNtCsfB8W1BOG4Wp_3x0x3cli8commands7network17start_mock_server0B9_
FNDA:0,_RNvNtNtNtCsfB8W1BOG4Wp_3x0x3cli8commands7network17start_mock_server
FNDA:0,_RNCNCNvNtNtNtCsfB8W1BOG4Wp_3x0x3cli8commands7network12peers_events00Bb_
FNDA:0,_RNCNCNvNtNtNtCsfB8W1BOG4Wp_3x0x3cli8commands7network21inject_location_wordss0_00Bb_
FNDA:0,_RNCNvNtNtNtCsfB8W1BOG4Wp_3x0x3cli8commands7network11peers_probe0B9_
FNDA:0,_RNCNvNtNtNtCsfB8W1BOG4Wp_3x0x3cli8commands7network12peers_events0B9_
FNDA:0,_RNCNvNtNtNtCsfB8W1BOG4Wp_3x0x3cli8commands7network12peers_health0B9_
FNDA:0,_RNCNvNtNtNtCsfB8W1BOG4Wp_3x0x3cli8commands7network14diagnostics_dm0B9_
FNDA:0,_RNCNvNtNtNtCsfB8W1BOG4Wp_3x0x3cli8commands7network14network_status0B9_
FNDA:0,_RNCNvNtNtNtCsfB8W1BOG4Wp_3x0x3cli8commands7network15bootstrap_cache0B9_
FNDA:0,_RNCNvNtNtNtCsfB8W1BOG4Wp_3x0x3cli8commands7network15diagnostics_ack0B9_
FNDA:0,_RNCNvNtNtNtCsfB8W1BOG4Wp_3x0x3cli8commands7network18diagnostics_gossip0B9_
FNDA:0,_RNCNvNtNtNtCsfB8W1BOG4Wp_3x0x3cli8commands7network18diagnostics_groups0B9_
FNDA:0,_RNCNvNtNtNtCsfB8W1BOG4Wp_3x0x3cli8commands7network21inject_location_words0B9_
FNDA:0,_RNCNvNtNtNtCsfB8W1BOG4Wp_3x0x3cli8commands7network21inject_location_wordss0_0B9_
FNDA:0,_RNCNvNtNtNtCsfB8W1BOG4Wp_3x0x3cli8commands7network21inject_location_wordss_0B9_
FNDA:0,_RNCNvNtNtNtCsfB8W1BOG4Wp_3x0x3cli8commands7network24diagnostics_connectivity0B9_
FNDA:0,_RNCNvNtNtNtCsfB8W1BOG4Wp_3x0x3cli8commands7network5peers0B9_
FNDA:0,_RNCNvNtNtNtCsfB8W1BOG4Wp_3x0x3cli8commands7network6health0B9_
FNDA:0,_RNCNvNtNtNtCsfB8W1BOG4Wp_3x0x3cli8commands7network6status0B9_
FNDA:0,_RNCNvNtNtNtCsfB8W1BOG4Wp_3x0x3cli8commands7network8presence0B9_
FNDA:0,_RNvNtNtNtCsfB8W1BOG4Wp_3x0x3cli8commands7network11peers_probe
FNDA:0,_RNvNtNtNtCsfB8W1BOG4Wp_3x0x3cli8commands7network12peers_events
FNDA:0,_RNvNtNtNtCsfB8W1BOG4Wp_3x0x3cli8commands7network12peers_health
FNDA:0,_RNvNtNtNtCsfB8W1BOG4Wp_3x0x3cli8commands7network14diagnostics_dm
FNDA:0,_RNvNtNtNtCsfB8W1BOG4Wp_3x0x3cli8commands7network14network_status
FNDA:0,_RNvNtNtNtCsfB8W1BOG4Wp_3x0x3cli8commands7network15bootstrap_cache
FNDA:0,_RNvNtNtNtCsfB8W1BOG4Wp_3x0x3cli8commands7network15diagnostics_ack
FNDA:0,_RNvNtNtNtCsfB8W1BOG4Wp_3x0x3cli8commands7network18diagnostics_gossip
FNDA:0,_RNvNtNtNtCsfB8W1BOG4Wp_3x0x3cli8commands7network18diagnostics_groups
FNDA:0,_RNvNtNtNtCsfB8W1BOG4Wp_3x0x3cli8commands7network21inject_location_words
FNDA:0,_RNvNtNtNtCsfB8W1BOG4Wp_3x0x3cli8commands7network24diagnostics_connectivity
FNDA:0,_RNvNtNtNtCsfB8W1BOG4Wp_3x0x3cli8commands7network5peers
FNDA:0,_RNvNtNtNtCsfB8W1BOG4Wp_3x0x3cli8commands7network6health
FNDA:0,_RNvNtNtNtCsfB8W1BOG4Wp_3x0x3cli8commands7network6status
FNDA:0,_RNvNtNtNtCsfB8W1BOG4Wp_3x0x3cli8commands7network8presence
FNDA:0,_RNvNtNtNtCs6t3ktUJwJ8n_3x0x3cli8commands7network12peers_events
FNDA:0,_RNvNtNtNtCs6t3ktUJwJ8n_3x0x3cli8commands7network15diagnostics_ack
FNDA:24,_RNCNCNCNvNtNtNtCs6t3ktUJwJ8n_3x0x3cli8commands7network17start_mock_server000Bd_
FNDA:12,_RNCNCNCNvNtNtNtCs6t3ktUJwJ8n_3x0x3cli8commands7network17start_mock_server0s_00Bd_
FNDA:0,_RNCNCNvNtNtNtCs6t3ktUJwJ8n_3x0x3cli8commands7network12peers_events00Bb_
FNDA:24,_RNCNCNvNtNtNtCs6t3ktUJwJ8n_3x0x3cli8commands7network17start_mock_server00Bb_
FNDA:12,_RNCNCNvNtNtNtCs6t3ktUJwJ8n_3x0x3cli8commands7network17start_mock_server0s_0Bb_
FNDA:1,_RNCNCNvNtNtNtCs6t3ktUJwJ8n_3x0x3cli8commands7network21inject_location_wordss0_00Bb_
FNDA:1,_RNCNvNtNtNtCs6t3ktUJwJ8n_3x0x3cli8commands7network11peers_probe0B9_
FNDA:0,_RNCNvNtNtNtCs6t3ktUJwJ8n_3x0x3cli8commands7network12peers_events0B9_
FNDA:1,_RNCNvNtNtNtCs6t3ktUJwJ8n_3x0x3cli8commands7network12peers_health0B9_
FNDA:1,_RNCNvNtNtNtCs6t3ktUJwJ8n_3x0x3cli8commands7network14diagnostics_dm0B9_
FNDA:1,_RNCNvNtNtNtCs6t3ktUJwJ8n_3x0x3cli8commands7network14network_status0B9_
FNDA:1,_RNCNvNtNtNtCs6t3ktUJwJ8n_3x0x3cli8commands7network15bootstrap_cache0B9_
FNDA:0,_RNCNvNtNtNtCs6t3ktUJwJ8n_3x0x3cli8commands7network15diagnostics_ack0B9_
FNDA:12,_RNCNvNtNtNtCs6t3ktUJwJ8n_3x0x3cli8commands7network17start_mock_server0B9_
FNDA:1,_RNCNvNtNtNtCs6t3ktUJwJ8n_3x0x3cli8commands7network18diagnostics_gossip0B9_
FNDA:1,_RNCNvNtNtNtCs6t3ktUJwJ8n_3x0x3cli8commands7network18diagnostics_groups0B9_
FNDA:2,_RNCNvNtNtNtCs6t3ktUJwJ8n_3x0x3cli8commands7network21inject_location_words0B9_
FNDA:1,_RNCNvNtNtNtCs6t3ktUJwJ8n_3x0x3cli8commands7network21inject_location_wordss0_0B9_
FNDA:1,_RNCNvNtNtNtCs6t3ktUJwJ8n_3x0x3cli8commands7network21inject_location_wordss_0B9_
FNDA:1,_RNCNvNtNtNtCs6t3ktUJwJ8n_3x0x3cli8commands7network24diagnostics_connectivity0B9_
FNDA:1,_RNCNvNtNtNtCs6t3ktUJwJ8n_3x0x3cli8commands7network5peers0B9_
FNDA:1,_RNCNvNtNtNtCs6t3ktUJwJ8n_3x0x3cli8commands7network6health0B9_
FNDA:1,_RNCNvNtNtNtCs6t3ktUJwJ8n_3x0x3cli8commands7network6status0B9_
FNDA:1,_RNCNvNtNtNtCs6t3ktUJwJ8n_3x0x3cli8commands7network8presence0B9_
FNDA:1,_RNCNvNtNtNtCs6t3ktUJwJ8n_3x0x3cli8commands7networks_27peers_returns_mock_response0B9_
FNDA:1,_RNCNvNtNtNtCs6t3ktUJwJ8n_3x0x3cli8commands7networks_28health_returns_mock_response0B9_
FNDA:1,_RNCNvNtNtNtCs6t3ktUJwJ8n_3x0x3cli8commands7networks_28status_returns_mock_response0B9_
FNDA:1,_RNCNvNtNtNtCs6t3ktUJwJ8n_3x0x3cli8commands7networks_30presence_returns_mock_response0B9_
FNDA:1,_RNCNvNtNtNtCs6t3ktUJwJ8n_3x0x3cli8commands7networks_33peers_probe_returns_mock_response0B9_
FNDA:1,_RNCNvNtNtNtCs6t3ktUJwJ8n_3x0x3cli8commands7networks_34peers_health_returns_mock_response0B9_
FNDA:1,_RNCNvNtNtNtCs6t3ktUJwJ8n_3x0x3cli8commands7networks_36diagnostics_dm_returns_mock_response0B9_
FNDA:1,_RNCNvNtNtNtCs6t3ktUJwJ8n_3x0x3cli8commands7networks_36network_status_returns_mock_response0B9_
FNDA:1,_RNCNvNtNtNtCs6t3ktUJwJ8n_3x0x3cli8commands7networks_37bootstrap_cache_returns_mock_response0B9_
FNDA:1,_RNCNvNtNtNtCs6t3ktUJwJ8n_3x0x3cli8commands7networks_40diagnostics_gossip_returns_mock_response0B9_
FNDA:1,_RNCNvNtNtNtCs6t3ktUJwJ8n_3x0x3cli8commands7networks_40diagnostics_groups_returns_mock_response0B9_
FNDA:1,_RNCNvNtNtNtCs6t3ktUJwJ8n_3x0x3cli8commands7networks_46diagnostics_connectivity_returns_mock_response0B9_
FNDA:1,_RNvNtNtNtNtCs6t3ktUJwJ8n_3x0x3cli8commands7network5testss_38inject_location_words_skips_non_object
FNDA:1,_RNvNtNtNtNtCs6t3ktUJwJ8n_3x0x3cli8commands7network5testss_41inject_location_words_encodes_valid_addrs
FNDA:1,_RNvNtNtNtNtCs6t3ktUJwJ8n_3x0x3cli8commands7network5testss_41inject_location_words_handles_empty_addrs
FNDA:1,_RNvNtNtNtNtCs6t3ktUJwJ8n_3x0x3cli8commands7network5testss_41inject_location_words_skips_missing_addrs
FNDA:1,_RNvNtNtNtCs6t3ktUJwJ8n_3x0x3cli8commands7network11peers_probe
FNDA:1,_RNvNtNtNtCs6t3ktUJwJ8n_3x0x3cli8commands7network12peers_health
FNDA:1,_RNvNtNtNtCs6t3ktUJwJ8n_3x0x3cli8commands7network14diagnostics_dm
FNDA:1,_RNvNtNtNtCs6t3ktUJwJ8n_3x0x3cli8commands7network14network_status
FNDA:1,_RNvNtNtNtCs6t3ktUJwJ8n_3x0x3cli8commands7network15bootstrap_cache
FNDA:12,_RNvNtNtNtCs6t3ktUJwJ8n_3x0x3cli8commands7network17start_mock_server
FNDA:1,_RNvNtNtNtCs6t3ktUJwJ8n_3x0x3cli8commands7network18diagnostics_gossip
FNDA:1,_RNvNtNtNtCs6t3ktUJwJ8n_3x0x3cli8commands7network18diagnostics_groups
FNDA:5,_RNvNtNtNtCs6t3ktUJwJ8n_3x0x3cli8commands7network21inject_location_words
FNDA:1,_RNvNtNtNtCs6t3ktUJwJ8n_3x0x3cli8commands7network24diagnostics_connectivity
FNDA:1,_RNvNtNtNtCs6t3ktUJwJ8n_3x0x3cli8commands7network5peers
FNDA:1,_RNvNtNtNtCs6t3ktUJwJ8n_3x0x3cli8commands7network6health
FNDA:1,_RNvNtNtNtCs6t3ktUJwJ8n_3x0x3cli8commands7network6status
FNDA:1,_RNvNtNtNtCs6t3ktUJwJ8n_3x0x3cli8commands7network8presence
FNDA:1,_RNvNtNtNtCs6t3ktUJwJ8n_3x0x3cli8commands7networks_27peers_returns_mock_response
FNDA:1,_RNvNtNtNtCs6t3ktUJwJ8n_3x0x3cli8commands7networks_28health_returns_mock_response
FNDA:1,_RNvNtNtNtCs6t3ktUJwJ8n_3x0x3cli8commands7networks_28status_returns_mock_response
FNDA:1,_RNvNtNtNtCs6t3ktUJwJ8n_3x0x3cli8commands7networks_30presence_returns_mock_response
FNDA:1,_RNvNtNtNtCs6t3ktUJwJ8n_3x0x3cli8commands7networks_33peers_probe_returns_mock_response
FNDA:1,_RNvNtNtNtCs6t3ktUJwJ8n_3x0x3cli8commands7networks_34peers_health_returns_mock_response
FNDA:1,_RNvNtNtNtCs6t3ktUJwJ8n_3x0x3cli8commands7networks_36diagnostics_dm_returns_mock_response
FNDA:1,_RNvNtNtNtCs6t3ktUJwJ8n_3x0x3cli8commands7networks_36network_status_returns_mock_response
FNDA:1,_RNvNtNtNtCs6t3ktUJwJ8n_3x0x3cli8commands7networks_37bootstrap_cache_returns_mock_response
FNDA:1,_RNvNtNtNtCs6t3ktUJwJ8n_3x0x3cli8commands7networks_40diagnostics_gossip_returns_mock_response
FNDA:1,_RNvNtNtNtCs6t3ktUJwJ8n_3x0x3cli8commands7networks_40diagnostics_groups_returns_mock_response
FNDA:1,_RNvNtNtNtCs6t3ktUJwJ8n_3x0x3cli8commands7networks_46diagnostics_connectivity_returns_mock_response
FNF:68
FNH:63
DA:8,5
DA:9,5
DA:10,5
DA:11,0
DA:14,5
DA:15,4
DA:16,4
DA:17,4
DA:18,4
DA:20,2
DA:21,2
DA:22,2
DA:23,2
DA:24,1
DA:25,1
DA:26,1
DA:27,1
DA:29,1
DA:30,1
DA:31,2
DA:32,2
DA:33,1
DA:34,1
DA:35,1
DA:36,1
DA:37,1
DA:38,2
DA:39,1
DA:40,5
DA:43,1
DA:44,1
DA:45,1
DA:46,1
DA:47,1
DA:48,1
DA:51,1
DA:52,1
DA:53,1
DA:54,1
DA:55,1
DA:56,1
DA:57,1
DA:58,1
DA:59,1
DA:62,1
DA:63,1
DA:64,1
DA:65,1
DA:66,1
DA:67,1
DA:70,1
DA:71,1
DA:72,1
DA:73,1
DA:74,1
DA:75,1
DA:78,1
DA:79,1
DA:80,1
DA:81,1
DA:82,1
DA:83,1
DA:86,1
DA:87,1
DA:88,1
DA:89,1
DA:90,1
DA:91,1
DA:99,1
DA:100,1
DA:101,1
DA:102,1
DA:103,1
DA:104,1
DA:111,0
DA:112,0
DA:113,0
DA:114,0
DA:115,0
DA:116,0
DA:124,1
DA:125,1
DA:126,1
DA:127,1
DA:128,1
DA:129,1
DA:135,1
DA:136,1
DA:137,1
DA:138,1
DA:139,1
DA:140,1
DA:152,1
DA:153,1
DA:154,1
DA:155,1
DA:156,1
DA:157,1
DA:164,1
DA:165,1
DA:166,1
DA:167,1
DA:168,1
DA:169,1
DA:170,1
DA:171,1
DA:173,0
DA:175,1
DA:176,1
DA:177,1
DA:178,1
DA:185,1
DA:186,1
DA:187,1
DA:188,1
DA:189,1
DA:190,1
DA:197,0
DA:199,0
DA:200,0
DA:201,0
DA:202,0
DA:203,0
DA:204,0
DA:205,0
DA:207,0
DA:208,0
DA:216,1
DA:217,1
DA:218,1
DA:219,1
DA:220,1
DA:223,1
DA:224,1
DA:225,1
DA:226,1
DA:227,1
DA:230,1
DA:231,1
DA:232,1
DA:233,1
DA:234,1
DA:237,1
DA:238,1
DA:239,1
DA:241,1
DA:244,1
DA:245,1
DA:251,12
DA:254,12
DA:255,24
DA:256,24
DA:257,24
DA:258,24
DA:259,24
DA:260,24
DA:261,24
DA:262,24
DA:263,24
DA:264,24
DA:265,24
DA:267,12
DA:268,12
DA:269,12
DA:271,12
DA:272,12
DA:273,12
DA:274,12
DA:275,0
DA:276,0
DA:278,12
DA:280,12
DA:281,12
DA:285,1
DA:286,1
DA:287,1
DA:288,1
DA:290,1
DA:291,1
DA:292,1
DA:295,1
DA:296,1
DA:297,1
DA:298,1
DA:299,1
DA:301,1
DA:302,1
DA:304,1
DA:305,1
DA:306,1
DA:309,1
DA:310,1
DA:311,1
DA:312,1
DA:314,1
DA:315,1
DA:316,1
DA:319,1
DA:320,1
DA:321,1
DA:322,1
DA:324,1
DA:325,1
DA:326,1
DA:329,1
DA:330,1
DA:331,1
DA:332,1
DA:334,1
DA:335,1
DA:336,1
DA:339,1
DA:340,1
DA:341,1
DA:342,1
DA:344,1
DA:345,1
DA:346,1
DA:349,1
DA:350,1
DA:351,1
DA:352,1
DA:354,1
DA:355,1
DA:356,1
DA:359,1
DA:360,1
DA:361,1
DA:362,1
DA:364,1
DA:365,1
DA:366,1
DA:369,1
DA:370,1
DA:371,1
DA:372,1
DA:374,1
DA:375,1
DA:376,1
DA:379,1
DA:380,1
DA:381,1
DA:382,1
DA:384,1
DA:385,1
DA:386,1
DA:389,1
DA:390,1
DA:391,1
DA:392,1
DA:394,1
DA:395,1
DA:396,1
DA:399,1
DA:400,1
DA:401,1
DA:402,1
DA:404,1
DA:405,1
DA:406,1
BRF:0
BRH:0
LF:307
LH:284
end_of_record
SF:/Users/davidirvine/Desktop/Devel/projects/x0x/src/cli/commands/presence.rs
FN:73,_RNCNCNvNtNtNtCsfB8W1BOG4Wp_3x0x3cli8commands8presence6events00Bb_
FN:38,_RNCNvNtNtNtCsfB8W1BOG4Wp_3x0x3cli8commands8presence4find0B9_
FN:21,_RNCNvNtNtNtCsfB8W1BOG4Wp_3x0x3cli8commands8presence4foaf0B9_
FN:67,_RNCNvNtNtNtCsfB8W1BOG4Wp_3x0x3cli8commands8presence6events0B9_
FN:10,_RNCNvNtNtNtCsfB8W1BOG4Wp_3x0x3cli8commands8presence6online0B9_
FN:55,_RNCNvNtNtNtCsfB8W1BOG4Wp_3x0x3cli8commands8presence6status0B9_
FN:38,_RNvNtNtNtCsfB8W1BOG4Wp_3x0x3cli8commands8presence4find
FN:21,_RNvNtNtNtCsfB8W1BOG4Wp_3x0x3cli8commands8presence4foaf
FN:67,_RNvNtNtNtCsfB8W1BOG4Wp_3x0x3cli8commands8presence6events
FN:10,_RNvNtNtNtCsfB8W1BOG4Wp_3x0x3cli8commands8presence6online
FN:55,_RNvNtNtNtCsfB8W1BOG4Wp_3x0x3cli8commands8presence6status
FN:38,_RNvNtNtNtCs6t3ktUJwJ8n_3x0x3cli8commands8presence4find
FN:21,_RNvNtNtNtCs6t3ktUJwJ8n_3x0x3cli8commands8presence4foaf
FN:67,_RNvNtNtNtCs6t3ktUJwJ8n_3x0x3cli8commands8presence6events
FN:73,_RNCNCNvNtNtNtCs6t3ktUJwJ8n_3x0x3cli8commands8presence6events00Bb_
FN:38,_RNCNvNtNtNtCs6t3ktUJwJ8n_3x0x3cli8commands8presence4find0B9_
FN:21,_RNCNvNtNtNtCs6t3ktUJwJ8n_3x0x3cli8commands8presence4foaf0B9_
FN:67,_RNCNvNtNtNtCs6t3ktUJwJ8n_3x0x3cli8commands8presence6events0B9_
FN:10,_RNCNvNtNtNtCs6t3ktUJwJ8n_3x0x3cli8commands8presence6online0B9_
FN:55,_RNCNvNtNtNtCs6t3ktUJwJ8n_3x0x3cli8commands8presence6status0B9_
FN:94,_RNCNCNCNvNtNtNtNtCs6t3ktUJwJ8n_3x0x3cli8commands8presence5tests17start_mock_server000Bf_
FN:110,_RNCNCNCNvNtNtNtNtCs6t3ktUJwJ8n_3x0x3cli8commands8presence5tests17start_mock_server0s_00Bf_
FN:92,_RNCNCNvNtNtNtNtCs6t3ktUJwJ8n_3x0x3cli8commands8presence5tests17start_mock_server00Bd_
FN:108,_RNCNCNvNtNtNtNtCs6t3ktUJwJ8n_3x0x3cli8commands8presence5tests17start_mock_server0s_0Bd_
FN:88,_RNCNvNtNtNtNtCs6t3ktUJwJ8n_3x0x3cli8commands8presence5tests17start_mock_server0Bb_
FN:122,_RNCNvNtNtNtNtCs6t3ktUJwJ8n_3x0x3cli8commands8presence5testss_28online_returns_mock_response0Bb_
FN:130,_RNCNvNtNtNtNtCs6t3ktUJwJ8n_3x0x3cli8commands8presence5testss_28status_returns_mock_response0Bb_
FN:88,_RNvNtNtNtNtCs6t3ktUJwJ8n_3x0x3cli8commands8presence5tests17start_mock_server
FN:122,_RNvNtNtNtNtCs6t3ktUJwJ8n_3x0x3cli8commands8presence5testss_28online_returns_mock_response
FN:130,_RNvNtNtNtNtCs6t3ktUJwJ8n_3x0x3cli8commands8presence5testss_28status_returns_mock_response
FN:10,_RNvNtNtNtCs6t3ktUJwJ8n_3x0x3cli8commands8presence6online
FN:55,_RNvNtNtNtCs6t3ktUJwJ8n_3x0x3cli8commands8presence6status
FNDA:0,_RNCNCNvNtNtNtCsfB8W1BOG4Wp_3x0x3cli8commands8presence6events00Bb_
FNDA:0,_RNCNvNtNtNtCsfB8W1BOG4Wp_3x0x3cli8commands8presence4find0B9_
FNDA:0,_RNCNvNtNtNtCsfB8W1BOG4Wp_3x0x3cli8commands8presence4foaf0B9_
FNDA:0,_RNCNvNtNtNtCsfB8W1BOG4Wp_3x0x3cli8commands8presence6events0B9_
FNDA:0,_RNCNvNtNtNtCsfB8W1BOG4Wp_3x0x3cli8commands8presence6online0B9_
FNDA:0,_RNCNvNtNtNtCsfB8W1BOG4Wp_3x0x3cli8commands8presence6status0B9_
FNDA:0,_RNvNtNtNtCsfB8W1BOG4Wp_3x0x3cli8commands8presence4find
FNDA:0,_RNvNtNtNtCsfB8W1BOG4Wp_3x0x3cli8commands8presence4foaf
FNDA:0,_RNvNtNtNtCsfB8W1BOG4Wp_3x0x3cli8commands8presence6events
FNDA:0,_RNvNtNtNtCsfB8W1BOG4Wp_3x0x3cli8commands8presence6online
FNDA:0,_RNvNtNtNtCsfB8W1BOG4Wp_3x0x3cli8commands8presence6status
FNDA:0,_RNvNtNtNtCs6t3ktUJwJ8n_3x0x3cli8commands8presence4find
FNDA:0,_RNvNtNtNtCs6t3ktUJwJ8n_3x0x3cli8commands8presence4foaf
FNDA:0,_RNvNtNtNtCs6t3ktUJwJ8n_3x0x3cli8commands8presence6events
FNDA:0,_RNCNCNvNtNtNtCs6t3ktUJwJ8n_3x0x3cli8commands8presence6events00Bb_
FNDA:0,_RNCNvNtNtNtCs6t3ktUJwJ8n_3x0x3cli8commands8presence4find0B9_
FNDA:0,_RNCNvNtNtNtCs6t3ktUJwJ8n_3x0x3cli8commands8presence4foaf0B9_
FNDA:0,_RNCNvNtNtNtCs6t3ktUJwJ8n_3x0x3cli8commands8presence6events0B9_
FNDA:1,_RNCNvNtNtNtCs6t3ktUJwJ8n_3x0x3cli8commands8presence6online0B9_
FNDA:1,_RNCNvNtNtNtCs6t3ktUJwJ8n_3x0x3cli8commands8presence6status0B9_
FNDA:4,_RNCNCNCNvNtNtNtNtCs6t3ktUJwJ8n_3x0x3cli8commands8presence5tests17start_mock_server000Bf_
FNDA:2,_RNCNCNCNvNtNtNtNtCs6t3ktUJwJ8n_3x0x3cli8commands8presence5tests17start_mock_server0s_00Bf_
FNDA:4,_RNCNCNvNtNtNtNtCs6t3ktUJwJ8n_3x0x3cli8commands8presence5tests17start_mock_server00Bd_
FNDA:2,_RNCNCNvNtNtNtNtCs6t3ktUJwJ8n_3x0x3cli8commands8presence5tests17start_mock_server0s_0Bd_
FNDA:2,_RNCNvNtNtNtNtCs6t3ktUJwJ8n_3x0x3cli8commands8presence5tests17start_mock_server0Bb_
FNDA:1,_RNCNvNtNtNtNtCs6t3ktUJwJ8n_3x0x3cli8commands8presence5testss_28online_returns_mock_response0Bb_
FNDA:1,_RNCNvNtNtNtNtCs6t3ktUJwJ8n_3x0x3cli8commands8presence5testss_28status_returns_mock_response0Bb_
FNDA:2,_RNvNtNtNtNtCs6t3ktUJwJ8n_3x0x3cli8commands8presence5tests17start_mock_server
FNDA:1,_RNvNtNtNtNtCs6t3ktUJwJ8n_3x0x3cli8commands8presence5testss_28online_returns_mock_response
FNDA:1,_RNvNtNtNtNtCs6t3ktUJwJ8n_3x0x3cli8commands8presence5testss_28status_returns_mock_response
FNDA:1,_RNvNtNtNtCs6t3ktUJwJ8n_3x0x3cli8commands8presence6online
FNDA:1,_RNvNtNtNtCs6t3ktUJwJ8n_3x0x3cli8commands8presence6status
FNF:21
FNH:14
DA:10,1
DA:11,1
DA:12,1
DA:13,1
DA:14,1
DA:15,1
DA:21,0
DA:22,0
DA:23,0
DA:24,0
DA:25,0
DA:26,0
DA:27,0
DA:28,0
DA:29,0
DA:30,0
DA:31,0
DA:32,0
DA:33,0
DA:38,0
DA:39,0
DA:40,0
DA:41,0
DA:42,0
DA:43,0
DA:44,0
DA:45,0
DA:46,0
DA:47,0
DA:48,0
DA:49,0
DA:50,0
DA:55,1
DA:56,1
DA:57,1
DA:58,1
DA:59,1
DA:60,1
DA:67,0
DA:69,0
DA:70,0
DA:71,0
DA:72,0
DA:73,0
DA:74,0
DA:75,0
DA:77,0
DA:78,0
DA:88,2
DA:91,2
DA:92,4
DA:93,4
DA:94,4
DA:95,4
DA:96,4
DA:97,4
DA:98,4
DA:99,4
DA:100,4
DA:101,4
DA:102,4
DA:104,2
DA:105,2
DA:106,2
DA:108,2
DA:109,2
DA:110,2
DA:111,2
DA:112,0
DA:113,0
DA:115,2
DA:117,2
DA:118,2
DA:122,1
DA:123,1
DA:124,1
DA:125,1
DA:126,1
DA:127,1
DA:128,1
DA:130,1
DA:131,1
DA:132,1
DA:133,1
DA:134,1
DA:135,1
DA:136,1
BRF:0
BRH:0
LF:101
LH:59
end_of_record
SF:/Users/davidirvine/Desktop/Devel/projects/x0x/src/cli/commands/store.rs
FN:71,_RNvNtNtNtCsfB8W1BOG4Wp_3x0x3cli8commands5store2rm
FN:63,_RNvNtNtNtCsfB8W1BOG4Wp_3x0x3cli8commands5store3get
FN:41,_RNvNtNtNtCsfB8W1BOG4Wp_3x0x3cli8commands5store3put
FN:24,_RNvNtNtNtCsfB8W1BOG4Wp_3x0x3cli8commands5store4join
FN:33,_RNvNtNtNtCsfB8W1BOG4Wp_3x0x3cli8commands5store4keys
FN:7,_RNvNtNtNtCsfB8W1BOG4Wp_3x0x3cli8commands5store4list
FN:15,_RNvNtNtNtCsfB8W1BOG4Wp_3x0x3cli8commands5store6create
FN:71,_RNCNvNtNtNtCsfB8W1BOG4Wp_3x0x3cli8commands5store2rm0B9_
FN:63,_RNCNvNtNtNtCsfB8W1BOG4Wp_3x0x3cli8commands5store3get0B9_
FN:47,_RNCNvNtNtNtCsfB8W1BOG4Wp_3x0x3cli8commands5store3put0B9_
FN:24,_RNCNvNtNtNtCsfB8W1BOG4Wp_3x0x3cli8commands5store4join0B9_
FN:33,_RNCNvNtNtNtCsfB8W1BOG4Wp_3x0x3cli8commands5store4keys0B9_
FN:7,_RNCNvNtNtNtCsfB8W1BOG4Wp_3x0x3cli8commands5store4list0B9_
FN:15,_RNCNvNtNtNtCsfB8W1BOG4Wp_3x0x3cli8commands5store6create0B9_
FN:71,_RNvNtNtNtCs6t3ktUJwJ8n_3x0x3cli8commands5store2rm
FN:41,_RNvNtNtNtCs6t3ktUJwJ8n_3x0x3cli8commands5store3put
FN:24,_RNvNtNtNtCs6t3ktUJwJ8n_3x0x3cli8commands5store4join
FN:15,_RNvNtNtNtCs6t3ktUJwJ8n_3x0x3cli8commands5store6create
FN:86,_RNvNtNtNtNtCs6t3ktUJwJ8n_3x0x3cli8commands5store5tests17start_mock_server
FN:138,_RNvNtNtNtNtCs6t3ktUJwJ8n_3x0x3cli8commands5store5testss_25get_returns_mock_response
FN:130,_RNvNtNtNtNtCs6t3ktUJwJ8n_3x0x3cli8commands5store5testss_26keys_returns_mock_response
FN:120,_RNvNtNtNtNtCs6t3ktUJwJ8n_3x0x3cli8commands5store5testss_26list_returns_mock_response
FN:92,_RNCNCNCNvNtNtNtNtCs6t3ktUJwJ8n_3x0x3cli8commands5store5tests17start_mock_server000Bf_
FN:108,_RNCNCNCNvNtNtNtNtCs6t3ktUJwJ8n_3x0x3cli8commands5store5tests17start_mock_server0s_00Bf_
FN:90,_RNCNCNvNtNtNtNtCs6t3ktUJwJ8n_3x0x3cli8commands5store5tests17start_mock_server00Bd_
FN:106,_RNCNCNvNtNtNtNtCs6t3ktUJwJ8n_3x0x3cli8commands5store5tests17start_mock_server0s_0Bd_
FN:86,_RNCNvNtNtNtNtCs6t3ktUJwJ8n_3x0x3cli8commands5store5tests17start_mock_server0Bb_
FN:138,_RNCNvNtNtNtNtCs6t3ktUJwJ8n_3x0x3cli8commands5store5testss_25get_returns_mock_response0Bb_
FN:130,_RNCNvNtNtNtNtCs6t3ktUJwJ8n_3x0x3cli8commands5store5testss_26keys_returns_mock_response0Bb_
FN:120,_RNCNvNtNtNtNtCs6t3ktUJwJ8n_3x0x3cli8commands5store5testss_26list_returns_mock_response0Bb_
FN:63,_RNvNtNtNtCs6t3ktUJwJ8n_3x0x3cli8commands5store3get
FN:33,_RNvNtNtNtCs6t3ktUJwJ8n_3x0x3cli8commands5store4keys
FN:7,_RNvNtNtNtCs6t3ktUJwJ8n_3x0x3cli8commands5store4list
FN:71,_RNCNvNtNtNtCs6t3ktUJwJ8n_3x0x3cli8commands5store2rm0B9_
FN:63,_RNCNvNtNtNtCs6t3ktUJwJ8n_3x0x3cli8commands5store3get0B9_
FN:47,_RNCNvNtNtNtCs6t3ktUJwJ8n_3x0x3cli8commands5store3put0B9_
FN:24,_RNCNvNtNtNtCs6t3ktUJwJ8n_3x0x3cli8commands5store4join0B9_
FN:33,_RNCNvNtNtNtCs6t3ktUJwJ8n_3x0x3cli8commands5store4keys0B9_
FN:7,_RNCNvNtNtNtCs6t3ktUJwJ8n_3x0x3cli8commands5store4list0B9_
FN:15,_RNCNvNtNtNtCs6t3ktUJwJ8n_3x0x3cli8commands5store6create0B9_
FNDA:0,_RNvNtNtNtCsfB8W1BOG4Wp_3x0x3cli8commands5store2rm
FNDA:0,_RNvNtNtNtCsfB8W1BOG4Wp_3x0x3cli8commands5store3get
FNDA:0,_RNvNtNtNtCsfB8W1BOG4Wp_3x0x3cli8commands5store3put
FNDA:0,_RNvNtNtNtCsfB8W1BOG4Wp_3x0x3cli8commands5store4join
FNDA:0,_RNvNtNtNtCsfB8W1BOG4Wp_3x0x3cli8commands5store4keys
FNDA:0,_RNvNtNtNtCsfB8W1BOG4Wp_3x0x3cli8commands5store4list
FNDA:0,_RNvNtNtNtCsfB8W1BOG4Wp_3x0x3cli8commands5store6create
FNDA:0,_RNCNvNtNtNtCsfB8W1BOG4Wp_3x0x3cli8commands5store2rm0B9_
FNDA:0,_RNCNvNtNtNtCsfB8W1BOG4Wp_3x0x3cli8commands5store3get0B9_
FNDA:0,_RNCNvNtNtNtCsfB8W1BOG4Wp_3x0x3cli8commands5store3put0B9_
FNDA:0,_RNCNvNtNtNtCsfB8W1BOG4Wp_3x0x3cli8commands5store4join0B9_
FNDA:0,_RNCNvNtNtNtCsfB8W1BOG4Wp_3x0x3cli8commands5store4keys0B9_
FNDA:0,_RNCNvNtNtNtCsfB8W1BOG4Wp_3x0x3cli8commands5store4list0B9_
FNDA:0,_RNCNvNtNtNtCsfB8W1BOG4Wp_3x0x3cli8commands5store6create0B9_
FNDA:0,_RNvNtNtNtCs6t3ktUJwJ8n_3x0x3cli8commands5store2rm
FNDA:0,_RNvNtNtNtCs6t3ktUJwJ8n_3x0x3cli8commands5store3put
FNDA:0,_RNvNtNtNtCs6t3ktUJwJ8n_3x0x3cli8commands5store4join
FNDA:0,_RNvNtNtNtCs6t3ktUJwJ8n_3x0x3cli8commands5store6create
FNDA:3,_RNvNtNtNtNtCs6t3ktUJwJ8n_3x0x3cli8commands5store5tests17start_mock_server
FNDA:1,_RNvNtNtNtNtCs6t3ktUJwJ8n_3x0x3cli8commands5store5testss_25get_returns_mock_response
FNDA:1,_RNvNtNtNtNtCs6t3ktUJwJ8n_3x0x3cli8commands5store5testss_26keys_returns_mock_response
FNDA:1,_RNvNtNtNtNtCs6t3ktUJwJ8n_3x0x3cli8commands5store5testss_26list_returns_mock_response
FNDA:6,_RNCNCNCNvNtNtNtNtCs6t3ktUJwJ8n_3x0x3cli8commands5store5tests17start_mock_server000Bf_
FNDA:3,_RNCNCNCNvNtNtNtNtCs6t3ktUJwJ8n_3x0x3cli8commands5store5tests17start_mock_server0s_00Bf_
FNDA:6,_RNCNCNvNtNtNtNtCs6t3ktUJwJ8n_3x0x3cli8commands5store5tests17start_mock_server00Bd_
FNDA:3,_RNCNCNvNtNtNtNtCs6t3ktUJwJ8n_3x0x3cli8commands5store5tests17start_mock_server0s_0Bd_
FNDA:3,_RNCNvNtNtNtNtCs6t3ktUJwJ8n_3x0x3cli8commands5store5tests17start_mock_server0Bb_
FNDA:1,_RNCNvNtNtNtNtCs6t3ktUJwJ8n_3x0x3cli8commands5store5testss_25get_returns_mock_response0Bb_
FNDA:1,_RNCNvNtNtNtNtCs6t3ktUJwJ8n_3x0x3cli8commands5store5testss_26keys_returns_mock_response0Bb_
FNDA:1,_RNCNvNtNtNtNtCs6t3ktUJwJ8n_3x0x3cli8commands5store5testss_26list_returns_mock_response0Bb_
FNDA:1,_RNvNtNtNtCs6t3ktUJwJ8n_3x0x3cli8commands5store3get
FNDA:1,_RNvNtNtNtCs6t3ktUJwJ8n_3x0x3cli8commands5store4keys
FNDA:1,_RNvNtNtNtCs6t3ktUJwJ8n_3x0x3cli8commands5store4list
FNDA:0,_RNCNvNtNtNtCs6t3ktUJwJ8n_3x0x3cli8commands5store2rm0B9_
FNDA:1,_RNCNvNtNtNtCs6t3ktUJwJ8n_3x0x3cli8commands5store3get0B9_
FNDA:0,_RNCNvNtNtNtCs6t3ktUJwJ8n_3x0x3cli8commands5store3put0B9_
FNDA:0,_RNCNvNtNtNtCs6t3ktUJwJ8n_3x0x3cli8commands5store4join0B9_
FNDA:1,_RNCNvNtNtNtCs6t3ktUJwJ8n_3x0x3cli8commands5store4keys0B9_
FNDA:1,_RNCNvNtNtNtCs6t3ktUJwJ8n_3x0x3cli8commands5store4list0B9_
FNDA:0,_RNCNvNtNtNtCs6t3ktUJwJ8n_3x0x3cli8commands5store6create0B9_
FNF:26
FNH:18
DA:7,1
DA:8,1
DA:9,1
DA:10,1
DA:11,1
DA:12,1
DA:15,0
DA:16,0
DA:17,0
DA:18,0
DA:19,0
DA:20,0
DA:21,0
DA:24,0
DA:25,0
DA:26,0
DA:27,0
DA:28,0
DA:29,0
DA:30,0
DA:33,1
DA:34,1
DA:35,1
DA:36,1
DA:37,1
DA:38,1
DA:41,0
DA:42,0
DA:43,0
DA:44,0
DA:45,0
DA:46,0
DA:47,0
DA:48,0
DA:50,0
DA:51,0
DA:52,0
DA:53,0
DA:54,0
DA:55,0
DA:56,0
DA:57,0
DA:58,0
DA:59,0
DA:60,0
DA:63,1
DA:64,1
DA:65,1
DA:66,1
DA:67,1
DA:68,1
DA:71,0
DA:72,0
DA:73,0
DA:74,0
DA:75,0
DA:76,0
DA:86,3
DA:89,3
DA:90,6
DA:91,6
DA:92,6
DA:93,6
DA:94,6
DA:95,6
DA:96,6
DA:97,6
DA:98,6
DA:99,6
DA:100,6
DA:102,3
DA:103,3
DA:104,3
DA:106,3
DA:107,3
DA:108,3
DA:109,3
DA:110,0
DA:111,0
DA:113,3
DA:115,3
DA:116,3
DA:120,1
DA:121,1
DA:122,1
DA:123,1
DA:124,1
DA:125,1
DA:126,1
DA:130,1
DA:131,1
DA:132,1
DA:133,1
DA:134,1
DA:135,1
DA:136,1
DA:138,1
DA:139,1
DA:140,1
DA:141,1
DA:142,1
DA:143,1
DA:144,1
BRF:0
BRH:0
LF:120
LH:75
end_of_record
SF:/Users/davidirvine/Desktop/Devel/projects/x0x/src/cli/commands/tasks.rs
FN:35,_RNvNtNtNtCsfB8W1BOG4Wp_3x0x3cli8commands5tasks3add
FN:7,_RNvNtNtNtCsfB8W1BOG4Wp_3x0x3cli8commands5tasks4list
FN:27,_RNvNtNtNtCsfB8W1BOG4Wp_3x0x3cli8commands5tasks4show
FN:15,_RNvNtNtNtCsfB8W1BOG4Wp_3x0x3cli8commands5tasks6create
FN:54,_RNvNtNtNtCsfB8W1BOG4Wp_3x0x3cli8commands5tasks6update
FN:40,_RNCNvNtNtNtCsfB8W1BOG4Wp_3x0x3cli8commands5tasks3add0B9_
FN:7,_RNCNvNtNtNtCsfB8W1BOG4Wp_3x0x3cli8commands5tasks4list0B9_
FN:27,_RNCNvNtNtNtCsfB8W1BOG4Wp_3x0x3cli8commands5tasks4show0B9_
FN:15,_RNCNvNtNtNtCsfB8W1BOG4Wp_3x0x3cli8commands5tasks6create0B9_
FN:59,_RNCNvNtNtNtCsfB8W1BOG4Wp_3x0x3cli8commands5tasks6update0B9_
FN:35,_RNvNtNtNtCs6t3ktUJwJ8n_3x0x3cli8commands5tasks3add
FN:15,_RNvNtNtNtCs6t3ktUJwJ8n_3x0x3cli8commands5tasks6create
FN:54,_RNvNtNtNtCs6t3ktUJwJ8n_3x0x3cli8commands5tasks6update
FN:40,_RNCNvNtNtNtCs6t3ktUJwJ8n_3x0x3cli8commands5tasks3add0B9_
FN:7,_RNCNvNtNtNtCs6t3ktUJwJ8n_3x0x3cli8commands5tasks4list0B9_
FN:27,_RNCNvNtNtNtCs6t3ktUJwJ8n_3x0x3cli8commands5tasks4show0B9_
FN:15,_RNCNvNtNtNtCs6t3ktUJwJ8n_3x0x3cli8commands5tasks6create0B9_
FN:59,_RNCNvNtNtNtCs6t3ktUJwJ8n_3x0x3cli8commands5tasks6update0B9_
FN:7,_RNvNtNtNtCs6t3ktUJwJ8n_3x0x3cli8commands5tasks4list
FN:27,_RNvNtNtNtCs6t3ktUJwJ8n_3x0x3cli8commands5tasks4show
FN:83,_RNCNCNCNvNtNtNtNtCs6t3ktUJwJ8n_3x0x3cli8commands5tasks5tests17start_mock_server000Bf_
FN:99,_RNCNCNCNvNtNtNtNtCs6t3ktUJwJ8n_3x0x3cli8commands5tasks5tests17start_mock_server0s_00Bf_
FN:81,_RNCNCNvNtNtNtNtCs6t3ktUJwJ8n_3x0x3cli8commands5tasks5tests17start_mock_server00Bd_
FN:97,_RNCNCNvNtNtNtNtCs6t3ktUJwJ8n_3x0x3cli8commands5tasks5tests17start_mock_server0s_0Bd_
FN:77,_RNCNvNtNtNtNtCs6t3ktUJwJ8n_3x0x3cli8commands5tasks5tests17start_mock_server0Bb_
FN:111,_RNCNvNtNtNtNtCs6t3ktUJwJ8n_3x0x3cli8commands5tasks5testss_26list_returns_mock_response0Bb_
FN:121,_RNCNvNtNtNtNtCs6t3ktUJwJ8n_3x0x3cli8commands5tasks5testss_26show_returns_mock_response0Bb_
FN:77,_RNvNtNtNtNtCs6t3ktUJwJ8n_3x0x3cli8commands5tasks5tests17start_mock_server
FN:111,_RNvNtNtNtNtCs6t3ktUJwJ8n_3x0x3cli8commands5tasks5testss_26list_returns_mock_response
FN:121,_RNvNtNtNtNtCs6t3ktUJwJ8n_3x0x3cli8commands5tasks5testss_26show_returns_mock_response
FNDA:0,_RNvNtNtNtCsfB8W1BOG4Wp_3x0x3cli8commands5tasks3add
FNDA:0,_RNvNtNtNtCsfB8W1BOG4Wp_3x0x3cli8commands5tasks4list
FNDA:0,_RNvNtNtNtCsfB8W1BOG4Wp_3x0x3cli8commands5tasks4show
FNDA:0,_RNvNtNtNtCsfB8W1BOG4Wp_3x0x3cli8commands5tasks6create
FNDA:0,_RNvNtNtNtCsfB8W1BOG4Wp_3x0x3cli8commands5tasks6update
FNDA:0,_RNCNvNtNtNtCsfB8W1BOG4Wp_3x0x3cli8commands5tasks3add0B9_
FNDA:0,_RNCNvNtNtNtCsfB8W1BOG4Wp_3x0x3cli8commands5tasks4list0B9_
FNDA:0,_RNCNvNtNtNtCsfB8W1BOG4Wp_3x0x3cli8commands5tasks4show0B9_
FNDA:0,_RNCNvNtNtNtCsfB8W1BOG4Wp_3x0x3cli8commands5tasks6create0B9_
FNDA:0,_RNCNvNtNtNtCsfB8W1BOG4Wp_3x0x3cli8commands5tasks6update0B9_
FNDA:0,_RNvNtNtNtCs6t3ktUJwJ8n_3x0x3cli8commands5tasks3add
FNDA:0,_RNvNtNtNtCs6t3ktUJwJ8n_3x0x3cli8commands5tasks6create
FNDA:0,_RNvNtNtNtCs6t3ktUJwJ8n_3x0x3cli8commands5tasks6update
FNDA:0,_RNCNvNtNtNtCs6t3ktUJwJ8n_3x0x3cli8commands5tasks3add0B9_
FNDA:1,_RNCNvNtNtNtCs6t3ktUJwJ8n_3x0x3cli8commands5tasks4list0B9_
FNDA:1,_RNCNvNtNtNtCs6t3ktUJwJ8n_3x0x3cli8commands5tasks4show0B9_
FNDA:0,_RNCNvNtNtNtCs6t3ktUJwJ8n_3x0x3cli8commands5tasks6create0B9_
FNDA:0,_RNCNvNtNtNtCs6t3ktUJwJ8n_3x0x3cli8commands5tasks6update0B9_
FNDA:1,_RNvNtNtNtCs6t3ktUJwJ8n_3x0x3cli8commands5tasks4list
FNDA:1,_RNvNtNtNtCs6t3ktUJwJ8n_3x0x3cli8commands5tasks4show
FNDA:4,_RNCNCNCNvNtNtNtNtCs6t3ktUJwJ8n_3x0x3cli8commands5tasks5tests17start_mock_server000Bf_
FNDA:2,_RNCNCNCNvNtNtNtNtCs6t3ktUJwJ8n_3x0x3cli8commands5tasks5tests17start_mock_server0s_00Bf_
FNDA:4,_RNCNCNvNtNtNtNtCs6t3ktUJwJ8n_3x0x3cli8commands5tasks5tests17start_mock_server00Bd_
FNDA:2,_RNCNCNvNtNtNtNtCs6t3ktUJwJ8n_3x0x3cli8commands5tasks5tests17start_mock_server0s_0Bd_
FNDA:2,_RNCNvNtNtNtNtCs6t3ktUJwJ8n_3x0x3cli8commands5tasks5tests17start_mock_server0Bb_
FNDA:1,_RNCNvNtNtNtNtCs6t3ktUJwJ8n_3x0x3cli8commands5tasks5testss_26list_returns_mock_response0Bb_
FNDA:1,_RNCNvNtNtNtNtCs6t3ktUJwJ8n_3x0x3cli8commands5tasks5testss_26show_returns_mock_response0Bb_
FNDA:2,_RNvNtNtNtNtCs6t3ktUJwJ8n_3x0x3cli8commands5tasks5tests17start_mock_server
FNDA:1,_RNvNtNtNtNtCs6t3ktUJwJ8n_3x0x3cli8commands5tasks5testss_26list_returns_mock_response
FNDA:1,_RNvNtNtNtNtCs6t3ktUJwJ8n_3x0x3cli8commands5tasks5testss_26show_returns_mock_response
FNF:20
FNH:14
DA:7,1
DA:8,1
DA:9,1
DA:10,1
DA:11,1
DA:12,1
DA:15,0
DA:16,0
DA:17,0
DA:18,0
DA:19,0
DA:21,0
DA:22,0
DA:23,0
DA:24,0
DA:27,1
DA:28,1
DA:29,1
DA:30,1
DA:31,1
DA:32,1
DA:35,0
DA:36,0
DA:37,0
DA:38,0
DA:39,0
DA:40,0
DA:41,0
DA:42,0
DA:43,0
DA:44,0
DA:45,0
DA:46,0
DA:47,0
DA:48,0
DA:49,0
DA:50,0
DA:51,0
DA:54,0
DA:55,0
DA:56,0
DA:57,0
DA:58,0
DA:59,0
DA:60,0
DA:61,0
DA:62,0
DA:63,0
DA:64,0
DA:65,0
DA:66,0
DA:67,0
DA:77,2
DA:80,2
DA:81,4
DA:82,4
DA:83,4
DA:84,4
DA:85,4
DA:86,4
DA:87,4
DA:88,4
DA:89,4
DA:90,4
DA:91,4
DA:93,2
DA:94,2
DA:95,2
DA:97,2
DA:98,2
DA:99,2
DA:100,2
DA:101,0
DA:102,0
DA:104,2
DA:106,2
DA:107,2
DA:111,1
DA:112,1
DA:113,1
DA:114,1
DA:115,1
DA:116,1
DA:117,1
DA:121,1
DA:122,1
DA:123,1
DA:124,1
DA:125,1
DA:126,1
DA:127,1
BRF:0
BRH:0
LF:104
LH:59
end_of_record
SF:/Users/davidirvine/Desktop/Devel/projects/x0x/src/cli/commands/upgrade.rs
FN:306,_RNvNtNtNtCsfB8W1BOG4Wp_3x0x3cli8commands7upgrade14read_api_token
FN:316,_RNvNtNtNtCsfB8W1BOG4Wp_3x0x3cli8commands7upgrade14restart_daemon
FN:129,_RNvNtNtNtCsfB8W1BOG4Wp_3x0x3cli8commands7upgrade14upgrade_binary
FN:368,_RNvNtNtNtCsfB8W1BOG4Wp_3x0x3cli8commands7upgrade16download_to_file
FN:253,_RNvNtNtNtCsfB8W1BOG4Wp_3x0x3cli8commands7upgrade19discover_daemon_api
FN:152,_RNvNtNtNtCsfB8W1BOG4Wp_3x0x3cli8commands7upgrade21upgrade_binary_manual
FN:263,_RNvNtNtNtCsfB8W1BOG4Wp_3x0x3cli8commands7upgrade22stop_daemon_if_running
FN:420,_RNvNtNtNtCsfB8W1BOG4Wp_3x0x3cli8commands7upgrade29print_signature_recovery_hint
FN:17,_RNvNtNtNtCsfB8W1BOG4Wp_3x0x3cli8commands7upgrade3run
FN:135,_RNCNCNvNtNtNtCsfB8W1BOG4Wp_3x0x3cli8commands7upgrade14upgrade_binary00Bb_
FN:137,_RNCNCNvNtNtNtCsfB8W1BOG4Wp_3x0x3cli8commands7upgrade14upgrade_binary0s_0Bb_
FN:23,_RNCNCNvNtNtNtCsfB8W1BOG4Wp_3x0x3cli8commands7upgrade3run00Bb_
FN:311,_RNCNvNtNtNtCsfB8W1BOG4Wp_3x0x3cli8commands7upgrade14read_api_token0B9_
FN:312,_RNCNvNtNtNtCsfB8W1BOG4Wp_3x0x3cli8commands7upgrade14read_api_tokens_0B9_
FN:316,_RNCNvNtNtNtCsfB8W1BOG4Wp_3x0x3cli8commands7upgrade14restart_daemon0B9_
FN:133,_RNCNvNtNtNtCsfB8W1BOG4Wp_3x0x3cli8commands7upgrade14upgrade_binary0B9_
FN:368,_RNCNvNtNtNtCsfB8W1BOG4Wp_3x0x3cli8commands7upgrade16download_to_file0B9_
FN:258,_RNCNvNtNtNtCsfB8W1BOG4Wp_3x0x3cli8commands7upgrade19discover_daemon_api0B9_
FN:259,_RNCNvNtNtNtCsfB8W1BOG4Wp_3x0x3cli8commands7upgrade19discover_daemon_apis_0B9_
FN:158,_RNCNvNtNtNtCsfB8W1BOG4Wp_3x0x3cli8commands7upgrade21upgrade_binary_manual0B9_
FN:263,_RNCNvNtNtNtCsfB8W1BOG4Wp_3x0x3cli8commands7upgrade22stop_daemon_if_running0B9_
FN:17,_RNCNvNtNtNtCsfB8W1BOG4Wp_3x0x3cli8commands7upgrade3run0B9_
FN:17,_RNvNtNtNtCs6t3ktUJwJ8n_3x0x3cli8commands7upgrade3run
FN:306,_RNvNtNtNtCs6t3ktUJwJ8n_3x0x3cli8commands7upgrade14read_api_token
FN:316,_RNvNtNtNtCs6t3ktUJwJ8n_3x0x3cli8commands7upgrade14restart_daemon
FN:129,_RNvNtNtNtCs6t3ktUJwJ8n_3x0x3cli8commands7upgrade14upgrade_binary
FN:368,_RNvNtNtNtCs6t3ktUJwJ8n_3x0x3cli8commands7upgrade16download_to_file
FN:253,_RNvNtNtNtCs6t3ktUJwJ8n_3x0x3cli8commands7upgrade19discover_daemon_api
FN:152,_RNvNtNtNtCs6t3ktUJwJ8n_3x0x3cli8commands7upgrade21upgrade_binary_manual
FN:263,_RNvNtNtNtCs6t3ktUJwJ8n_3x0x3cli8commands7upgrade22stop_daemon_if_running
FN:420,_RNvNtNtNtCs6t3ktUJwJ8n_3x0x3cli8commands7upgrade29print_signature_recovery_hint
FN:135,_RNCNCNvNtNtNtCs6t3ktUJwJ8n_3x0x3cli8commands7upgrade14upgrade_binary00Bb_
FN:137,_RNCNCNvNtNtNtCs6t3ktUJwJ8n_3x0x3cli8commands7upgrade14upgrade_binary0s_0Bb_
FN:23,_RNCNCNvNtNtNtCs6t3ktUJwJ8n_3x0x3cli8commands7upgrade3run00Bb_
FN:311,_RNCNvNtNtNtCs6t3ktUJwJ8n_3x0x3cli8commands7upgrade14read_api_token0B9_
FN:312,_RNCNvNtNtNtCs6t3ktUJwJ8n_3x0x3cli8commands7upgrade14read_api_tokens_0B9_
FN:316,_RNCNvNtNtNtCs6t3ktUJwJ8n_3x0x3cli8commands7upgrade14restart_daemon0B9_
FN:133,_RNCNvNtNtNtCs6t3ktUJwJ8n_3x0x3cli8commands7upgrade14upgrade_binary0B9_
FN:368,_RNCNvNtNtNtCs6t3ktUJwJ8n_3x0x3cli8commands7upgrade16download_to_file0B9_
FN:258,_RNCNvNtNtNtCs6t3ktUJwJ8n_3x0x3cli8commands7upgrade19discover_daemon_api0B9_
FN:259,_RNCNvNtNtNtCs6t3ktUJwJ8n_3x0x3cli8commands7upgrade19discover_daemon_apis_0B9_
FN:158,_RNCNvNtNtNtCs6t3ktUJwJ8n_3x0x3cli8commands7upgrade21upgrade_binary_manual0B9_
FN:263,_RNCNvNtNtNtCs6t3ktUJwJ8n_3x0x3cli8commands7upgrade22stop_daemon_if_running0B9_
FN:17,_RNCNvNtNtNtCs6t3ktUJwJ8n_3x0x3cli8commands7upgrade3run0B9_
FN:465,_RNvNtNtNtNtCs6t3ktUJwJ8n_3x0x3cli8commands7upgrade5testss_39read_api_token_returns_none_in_test_env
FN:458,_RNvNtNtNtNtCs6t3ktUJwJ8n_3x0x3cli8commands7upgrade5testss_44discover_daemon_api_returns_none_in_test_env
FN:452,_RNvNtNtNtNtCs6t3ktUJwJ8n_3x0x3cli8commands7upgrade5testss_52print_signature_recovery_hint_skips_for_other_errors
FN:446,_RNvNtNtNtNtCs6t3ktUJwJ8n_3x0x3cli8commands7upgrade5testss_56print_signature_recovery_hint_prints_for_signature_error
FNDA:0,_RNvNtNtNtCsfB8W1BOG4Wp_3x0x3cli8commands7upgrade14read_api_token
FNDA:0,_RNvNtNtNtCsfB8W1BOG4Wp_3x0x3cli8commands7upgrade14restart_daemon
FNDA:0,_RNvNtNtNtCsfB8W1BOG4Wp_3x0x3cli8commands7upgrade14upgrade_binary
FNDA:0,_RNvNtNtNtCsfB8W1BOG4Wp_3x0x3cli8commands7upgrade16download_to_file
FNDA:0,_RNvNtNtNtCsfB8W1BOG4Wp_3x0x3cli8commands7upgrade19discover_daemon_api
FNDA:0,_RNvNtNtNtCsfB8W1BOG4Wp_3x0x3cli8commands7upgrade21upgrade_binary_manual
FNDA:0,_RNvNtNtNtCsfB8W1BOG4Wp_3x0x3cli8commands7upgrade22stop_daemon_if_running
FNDA:0,_RNvNtNtNtCsfB8W1BOG4Wp_3x0x3cli8commands7upgrade29print_signature_recovery_hint
FNDA:0,_RNvNtNtNtCsfB8W1BOG4Wp_3x0x3cli8commands7upgrade3run
FNDA:0,_RNCNCNvNtNtNtCsfB8W1BOG4Wp_3x0x3cli8commands7upgrade14upgrade_binary00Bb_
FNDA:0,_RNCNCNvNtNtNtCsfB8W1BOG4Wp_3x0x3cli8commands7upgrade14upgrade_binary0s_0Bb_
FNDA:0,_RNCNCNvNtNtNtCsfB8W1BOG4Wp_3x0x3cli8commands7upgrade3run00Bb_
FNDA:0,_RNCNvNtNtNtCsfB8W1BOG4Wp_3x0x3cli8commands7upgrade14read_api_token0B9_
FNDA:0,_RNCNvNtNtNtCsfB8W1BOG4Wp_3x0x3cli8commands7upgrade14read_api_tokens_0B9_
FNDA:0,_RNCNvNtNtNtCsfB8W1BOG4Wp_3x0x3cli8commands7upgrade14restart_daemon0B9_
FNDA:0,_RNCNvNtNtNtCsfB8W1BOG4Wp_3x0x3cli8commands7upgrade14upgrade_binary0B9_
FNDA:0,_RNCNvNtNtNtCsfB8W1BOG4Wp_3x0x3cli8commands7upgrade16download_to_file0B9_
FNDA:0,_RNCNvNtNtNtCsfB8W1BOG4Wp_3x0x3cli8commands7upgrade19discover_daemon_api0B9_
FNDA:0,_RNCNvNtNtNtCsfB8W1BOG4Wp_3x0x3cli8commands7upgrade19discover_daemon_apis_0B9_
FNDA:0,_RNCNvNtNtNtCsfB8W1BOG4Wp_3x0x3cli8commands7upgrade21upgrade_binary_manual0B9_
FNDA:0,_RNCNvNtNtNtCsfB8W1BOG4Wp_3x0x3cli8commands7upgrade22stop_daemon_if_running0B9_
FNDA:0,_RNCNvNtNtNtCsfB8W1BOG4Wp_3x0x3cli8commands7upgrade3run0B9_
FNDA:0,_RNvNtNtNtCs6t3ktUJwJ8n_3x0x3cli8commands7upgrade3run
FNDA:1,_RNvNtNtNtCs6t3ktUJwJ8n_3x0x3cli8commands7upgrade14read_api_token
FNDA:0,_RNvNtNtNtCs6t3ktUJwJ8n_3x0x3cli8commands7upgrade14restart_daemon
FNDA:0,_RNvNtNtNtCs6t3ktUJwJ8n_3x0x3cli8commands7upgrade14upgrade_binary
FNDA:0,_RNvNtNtNtCs6t3ktUJwJ8n_3x0x3cli8commands7upgrade16download_to_file
FNDA:1,_RNvNtNtNtCs6t3ktUJwJ8n_3x0x3cli8commands7upgrade19discover_daemon_api
FNDA:0,_RNvNtNtNtCs6t3ktUJwJ8n_3x0x3cli8commands7upgrade21upgrade_binary_manual
FNDA:0,_RNvNtNtNtCs6t3ktUJwJ8n_3x0x3cli8commands7upgrade22stop_daemon_if_running
FNDA:2,_RNvNtNtNtCs6t3ktUJwJ8n_3x0x3cli8commands7upgrade29print_signature_recovery_hint
FNDA:0,_RNCNCNvNtNtNtCs6t3ktUJwJ8n_3x0x3cli8commands7upgrade14upgrade_binary00Bb_
FNDA:0,_RNCNCNvNtNtNtCs6t3ktUJwJ8n_3x0x3cli8commands7upgrade14upgrade_binary0s_0Bb_
FNDA:0,_RNCNCNvNtNtNtCs6t3ktUJwJ8n_3x0x3cli8commands7upgrade3run00Bb_
FNDA:0,_RNCNvNtNtNtCs6t3ktUJwJ8n_3x0x3cli8commands7upgrade14read_api_token0B9_
FNDA:0,_RNCNvNtNtNtCs6t3ktUJwJ8n_3x0x3cli8commands7upgrade14read_api_tokens_0B9_
FNDA:0,_RNCNvNtNtNtCs6t3ktUJwJ8n_3x0x3cli8commands7upgrade14restart_daemon0B9_
FNDA:0,_RNCNvNtNtNtCs6t3ktUJwJ8n_3x0x3cli8commands7upgrade14upgrade_binary0B9_
FNDA:0,_RNCNvNtNtNtCs6t3ktUJwJ8n_3x0x3cli8commands7upgrade16download_to_file0B9_
FNDA:0,_RNCNvNtNtNtCs6t3ktUJwJ8n_3x0x3cli8commands7upgrade19discover_daemon_api0B9_
FNDA:0,_RNCNvNtNtNtCs6t3ktUJwJ8n_3x0x3cli8commands7upgrade19discover_daemon_apis_0B9_
FNDA:0,_RNCNvNtNtNtCs6t3ktUJwJ8n_3x0x3cli8commands7upgrade21upgrade_binary_manual0B9_
FNDA:0,_RNCNvNtNtNtCs6t3ktUJwJ8n_3x0x3cli8commands7upgrade22stop_daemon_if_running0B9_
FNDA:0,_RNCNvNtNtNtCs6t3ktUJwJ8n_3x0x3cli8commands7upgrade3run0B9_
FNDA:1,_RNvNtNtNtNtCs6t3ktUJwJ8n_3x0x3cli8commands7upgrade5testss_39read_api_token_returns_none_in_test_env
FNDA:1,_RNvNtNtNtNtCs6t3ktUJwJ8n_3x0x3cli8commands7upgrade5testss_44discover_daemon_api_returns_none_in_test_env
FNDA:1,_RNvNtNtNtNtCs6t3ktUJwJ8n_3x0x3cli8commands7upgrade5testss_52print_signature_recovery_hint_skips_for_other_errors
FNDA:1,_RNvNtNtNtNtCs6t3ktUJwJ8n_3x0x3cli8commands7upgrade5testss_56print_signature_recovery_hint_prints_for_signature_error
FNF:26
FNH:7
DA:17,0
DA:18,0
DA:19,0
DA:20,0
DA:22,0
DA:23,0
DA:26,0
DA:27,0
DA:28,0
DA:29,0
DA:30,0
DA:31,0
DA:35,0
DA:36,0
DA:38,0
DA:39,0
DA:41,0
DA:42,0
DA:43,0
DA:48,0
DA:49,0
DA:51,0
DA:52,0
DA:56,0
DA:58,0
DA:59,0
DA:60,0
DA:61,0
DA:62,0
DA:64,0
DA:65,0
DA:66,0
DA:67,0
DA:68,0
DA:71,0
DA:72,0
DA:73,0
DA:74,0
DA:76,0
DA:79,0
DA:82,0
DA:83,0
DA:84,0
DA:85,0
DA:87,0
DA:88,0
DA:89,0
DA:90,0
DA:91,0
DA:93,0
DA:94,0
DA:95,0
DA:98,0
DA:99,0
DA:101,0
DA:103,0
DA:104,0
DA:105,0
DA:106,0
DA:108,0
DA:109,0
DA:112,0
DA:113,0
DA:114,0
DA:115,0
DA:116,0
DA:117,0
DA:118,0
DA:119,0
DA:120,0
DA:122,0
DA:123,0
DA:129,0
DA:130,0
DA:131,0
DA:132,0
DA:133,0
DA:134,0
DA:135,0
DA:136,0
DA:137,0
DA:141,0
DA:142,0
DA:143,0
DA:144,0
DA:145,0
DA:146,0
DA:147,0
DA:148,0
DA:149,0
DA:152,0
DA:153,0
DA:154,0
DA:155,0
DA:156,0
DA:157,0
DA:158,0
DA:164,0
DA:166,0
DA:167,0
DA:168,0
DA:171,0
DA:172,0
DA:174,0
DA:175,0
DA:176,0
DA:177,0
DA:178,0
DA:179,0
DA:181,0
DA:183,0
DA:186,0
DA:187,0
DA:188,0
DA:190,0
DA:192,0
DA:194,0
DA:197,0
DA:198,0
DA:199,0
DA:201,0
DA:202,0
DA:205,0
DA:207,0
DA:210,0
DA:211,0
DA:212,0
DA:213,0
DA:215,0
DA:216,0
DA:218,0
DA:221,0
DA:222,0
DA:224,0
DA:225,0
DA:228,0
DA:229,0
DA:231,0
DA:233,0
DA:234,0
DA:235,0
DA:236,0
DA:237,0
DA:239,0
DA:242,0
DA:243,0
DA:244,0
DA:247,0
DA:249,0
DA:250,0
DA:253,1
DA:254,1
DA:255,1
DA:256,1
DA:257,1
DA:258,1
DA:259,1
DA:260,1
DA:263,0
DA:264,0
DA:265,0
DA:266,0
DA:269,0
DA:270,0
DA:271,0
DA:273,0
DA:274,0
DA:278,0
DA:279,0
DA:280,0
DA:281,0
DA:284,0
DA:287,0
DA:288,0
DA:289,0
DA:290,0
DA:291,0
DA:292,0
DA:295,0
DA:296,0
DA:297,0
DA:298,0
DA:299,0
DA:302,0
DA:303,0
DA:306,1
DA:307,1
DA:308,1
DA:309,1
DA:310,1
DA:311,1
DA:312,1
DA:313,1
DA:316,0
DA:317,0
DA:318,0
DA:319,0
DA:320,0
DA:322,0
DA:323,0
DA:325,0
DA:326,0
DA:327,0
DA:330,0
DA:331,0
DA:332,0
DA:333,0
DA:335,0
DA:336,0
DA:337,0
DA:338,0
DA:339,0
DA:341,0
DA:342,0
DA:343,0
DA:344,0
DA:345,0
DA:346,0
DA:349,0
DA:350,0
DA:351,0
DA:352,0
DA:354,0
DA:355,0
DA:356,0
DA:357,0
DA:358,0
DA:359,0
DA:360,0
DA:361,0
DA:364,0
DA:365,0
DA:368,0
DA:373,0
DA:374,0
DA:375,0
DA:376,0
DA:378,0
DA:379,0
DA:380,0
DA:381,0
DA:382,0
DA:383,0
DA:384,0
DA:386,0
DA:387,0
DA:388,0
DA:393,0
DA:394,0
DA:396,0
DA:397,0
DA:398,0
DA:400,0
DA:401,0
DA:402,0
DA:403,0
DA:404,0
DA:405,0
DA:406,0
DA:411,0
DA:412,0
DA:415,0
DA:416,0
DA:420,2
DA:421,2
DA:422,1
DA:423,1
DA:424,1
DA:425,1
DA:426,1
DA:427,1
DA:428,1
DA:429,1
DA:430,1
DA:431,1
DA:432,1
DA:433,1
DA:434,1
DA:435,1
DA:436,1
DA:437,2
DA:446,1
DA:448,1
DA:449,1
DA:452,1
DA:454,1
DA:455,1
DA:458,1
DA:460,1
DA:461,1
DA:462,1
DA:465,1
DA:467,1
DA:468,1
DA:469,1
BRF:0
BRH:0
LF:308
LH:48
end_of_record
SF:/Users/davidirvine/Desktop/Devel/projects/x0x/src/cli/commands/ws.rs
FN:20,_RNvNtNtNtCsfB8W1BOG4Wp_3x0x3cli8commands2ws6direct
FN:7,_RNvNtNtNtCsfB8W1BOG4Wp_3x0x3cli8commands2ws8sessions
FN:28,_RNCNCNCNvNtNtNtCsfB8W1BOG4Wp_3x0x3cli8commands2ws6direct0s_00Bd_
FN:25,_RNCNCNvNtNtNtCsfB8W1BOG4Wp_3x0x3cli8commands2ws6direct00Bb_
FN:30,_RNCNCNvNtNtNtCsfB8W1BOG4Wp_3x0x3cli8commands2ws6direct0s0_0Bb_
FN:26,_RNCNCNvNtNtNtCsfB8W1BOG4Wp_3x0x3cli8commands2ws6direct0s_0Bb_
FN:20,_RNCNvNtNtNtCsfB8W1BOG4Wp_3x0x3cli8commands2ws6direct0B9_
FN:7,_RNCNvNtNtNtCsfB8W1BOG4Wp_3x0x3cli8commands2ws8sessions0B9_
FN:20,_RNvNtNtNtCs6t3ktUJwJ8n_3x0x3cli8commands2ws6direct
FN:28,_RNCNCNCNvNtNtNtCs6t3ktUJwJ8n_3x0x3cli8commands2ws6direct0s_00Bd_
FN:25,_RNCNCNvNtNtNtCs6t3ktUJwJ8n_3x0x3cli8commands2ws6direct00Bb_
FN:30,_RNCNCNvNtNtNtCs6t3ktUJwJ8n_3x0x3cli8commands2ws6direct0s0_0Bb_
FN:26,_RNCNCNvNtNtNtCs6t3ktUJwJ8n_3x0x3cli8commands2ws6direct0s_0Bb_
FN:20,_RNCNvNtNtNtCs6t3ktUJwJ8n_3x0x3cli8commands2ws6direct0B9_
FN:7,_RNCNvNtNtNtCs6t3ktUJwJ8n_3x0x3cli8commands2ws8sessions0B9_
FN:7,_RNvNtNtNtCs6t3ktUJwJ8n_3x0x3cli8commands2ws8sessions
FN:55,_RNvNtNtNtNtCs6t3ktUJwJ8n_3x0x3cli8commands2ws5tests17start_mock_server
FN:89,_RNvNtNtNtNtCs6t3ktUJwJ8n_3x0x3cli8commands2ws5testss_30sessions_returns_mock_response
FN:61,_RNCNCNCNvNtNtNtNtCs6t3ktUJwJ8n_3x0x3cli8commands2ws5tests17start_mock_server000Bf_
FN:77,_RNCNCNCNvNtNtNtNtCs6t3ktUJwJ8n_3x0x3cli8commands2ws5tests17start_mock_server0s_00Bf_
FN:59,_RNCNCNvNtNtNtNtCs6t3ktUJwJ8n_3x0x3cli8commands2ws5tests17start_mock_server00Bd_
FN:75,_RNCNCNvNtNtNtNtCs6t3ktUJwJ8n_3x0x3cli8commands2ws5tests17start_mock_server0s_0Bd_
FN:55,_RNCNvNtNtNtNtCs6t3ktUJwJ8n_3x0x3cli8commands2ws5tests17start_mock_server0Bb_
FN:89,_RNCNvNtNtNtNtCs6t3ktUJwJ8n_3x0x3cli8commands2ws5testss_30sessions_returns_mock_response0Bb_
FNDA:0,_RNvNtNtNtCsfB8W1BOG4Wp_3x0x3cli8commands2ws6direct
FNDA:0,_RNvNtNtNtCsfB8W1BOG4Wp_3x0x3cli8commands2ws8sessions
FNDA:0,_RNCNCNCNvNtNtNtCsfB8W1BOG4Wp_3x0x3cli8commands2ws6direct0s_00Bd_
FNDA:0,_RNCNCNvNtNtNtCsfB8W1BOG4Wp_3x0x3cli8commands2ws6direct00Bb_
FNDA:0,_RNCNCNvNtNtNtCsfB8W1BOG4Wp_3x0x3cli8commands2ws6direct0s0_0Bb_
FNDA:0,_RNCNCNvNtNtNtCsfB8W1BOG4Wp_3x0x3cli8commands2ws6direct0s_0Bb_
FNDA:0,_RNCNvNtNtNtCsfB8W1BOG4Wp_3x0x3cli8commands2ws6direct0B9_
FNDA:0,_RNCNvNtNtNtCsfB8W1BOG4Wp_3x0x3cli8commands2ws8sessions0B9_
FNDA:0,_RNvNtNtNtCs6t3ktUJwJ8n_3x0x3cli8commands2ws6direct
FNDA:0,_RNCNCNCNvNtNtNtCs6t3ktUJwJ8n_3x0x3cli8commands2ws6direct0s_00Bd_
FNDA:0,_RNCNCNvNtNtNtCs6t3ktUJwJ8n_3x0x3cli8commands2ws6direct00Bb_
FNDA:0,_RNCNCNvNtNtNtCs6t3ktUJwJ8n_3x0x3cli8commands2ws6direct0s0_0Bb_
FNDA:0,_RNCNCNvNtNtNtCs6t3ktUJwJ8n_3x0x3cli8commands2ws6direct0s_0Bb_
FNDA:0,_RNCNvNtNtNtCs6t3ktUJwJ8n_3x0x3cli8commands2ws6direct0B9_
FNDA:1,_RNCNvNtNtNtCs6t3ktUJwJ8n_3x0x3cli8commands2ws8sessions0B9_
FNDA:1,_RNvNtNtNtCs6t3ktUJwJ8n_3x0x3cli8commands2ws8sessions
FNDA:1,_RNvNtNtNtNtCs6t3ktUJwJ8n_3x0x3cli8commands2ws5tests17start_mock_server
FNDA:1,_RNvNtNtNtNtCs6t3ktUJwJ8n_3x0x3cli8commands2ws5testss_30sessions_returns_mock_response
FNDA:2,_RNCNCNCNvNtNtNtNtCs6t3ktUJwJ8n_3x0x3cli8commands2ws5tests17start_mock_server000Bf_
FNDA:1,_RNCNCNCNvNtNtNtNtCs6t3ktUJwJ8n_3x0x3cli8commands2ws5tests17start_mock_server0s_00Bf_
FNDA:2,_RNCNCNvNtNtNtNtCs6t3ktUJwJ8n_3x0x3cli8commands2ws5tests17start_mock_server00Bd_
FNDA:1,_RNCNCNvNtNtNtNtCs6t3ktUJwJ8n_3x0x3cli8commands2ws5tests17start_mock_server0s_0Bd_
FNDA:1,_RNCNvNtNtNtNtCs6t3ktUJwJ8n_3x0x3cli8commands2ws5tests17start_mock_server0Bb_
FNDA:1,_RNCNvNtNtNtNtCs6t3ktUJwJ8n_3x0x3cli8commands2ws5testss_30sessions_returns_mock_response0Bb_
FNF:16
FNH:10
DA:7,1
DA:8,1
DA:9,1
DA:10,1
DA:11,1
DA:12,1
DA:20,0
DA:21,0
DA:22,0
DA:23,0
DA:24,0
DA:25,0
DA:26,0
DA:27,0
DA:28,0
DA:29,0
DA:30,0
DA:31,0
DA:32,0
DA:33,0
DA:34,0
DA:35,0
DA:36,0
DA:37,0
DA:38,0
DA:39,0
DA:40,0
DA:41,0
DA:42,0
DA:44,0
DA:45,0
DA:55,1
DA:58,1
DA:59,2
DA:60,2
DA:61,2
DA:62,2
DA:63,2
DA:64,2
DA:65,2
DA:66,2
DA:67,2
DA:68,2
DA:69,2
DA:71,1
DA:72,1
DA:73,1
DA:75,1
DA:76,1
DA:77,1
DA:78,1
DA:79,0
DA:80,0
DA:82,1
DA:84,1
DA:85,1
DA:89,1
DA:90,1
DA:91,1
DA:92,1
DA:93,1
DA:94,1
DA:95,1
BRF:0
BRH:0
LF:75
LH:43
end_of_record
SF:/Users/davidirvine/Desktop/Devel/projects/x0x/src/cli/mod.rs
FN:234,_RNvMNtCsfB8W1BOG4Wp_3x0x3cliNtB2_12DaemonClient10get_stream
FN:176,_RNvMNtCsfB8W1BOG4Wp_3x0x3cliNtB2_12DaemonClient10post_empty
FN:109,_RNvMNtCsfB8W1BOG4Wp_3x0x3cliNtB2_12DaemonClient12auth_headers
FN:83,_RNvMNtCsfB8W1BOG4Wp_3x0x3cliNtB2_12DaemonClient12discover_api
FN:120,_RNvMNtCsfB8W1BOG4Wp_3x0x3cliNtB2_12DaemonClient14ensure_running
FN:255,_RNvMNtCsfB8W1BOG4Wp_3x0x3cliNtB2_12DaemonClient15handle_response
FN:134,_RNvMNtCsfB8W1BOG4Wp_3x0x3cliNtB2_12DaemonClient3get
FN:34,_RNvMNtCsfB8W1BOG4Wp_3x0x3cliNtB2_12DaemonClient3new
FN:222,_RNvMNtCsfB8W1BOG4Wp_3x0x3cliNtB2_12DaemonClient6delete
FN:276,_RNvMNtCsfB8W1BOG4Wp_3x0x3cliNtB2_12DaemonClient6format
FN:281,_RNvMNtCsfB8W1BOG4Wp_3x0x3cliNtB2_12DaemonClient8base_url
FN:146,_RNvMNtCsfB8W1BOG4Wp_3x0x3cliNtB2_12DaemonClient9get_query
FN:339,_RNvNtCsfB8W1BOG4Wp_3x0x3cli11print_error
FN:287,_RNvNtCsfB8W1BOG4Wp_3x0x3cli11print_value
FN:328,_RNvNtCsfB8W1BOG4Wp_3x0x3cli13format_scalar
FN:300,_RNvNtCsfB8W1BOG4Wp_3x0x3cli16print_value_text
FN:205,_RINvMNtCsfB8W1BOG4Wp_3x0x3cliNtB3_12DaemonClient3putNtNtCsjK8IHVZMVwb_10serde_json5value5ValueEB5_
FN:159,_RINvMNtCsfB8W1BOG4Wp_3x0x3cliNtB3_12DaemonClient4postNtNtCsjK8IHVZMVwb_10serde_json5value5ValueEB5_
FN:159,_RINvMNtCsfB8W1BOG4Wp_3x0x3cliNtB3_12DaemonClient4postNtNtNtB3_8commands4exec11ExecRunBodyEB5_
FN:159,_RINvMNtCsfB8W1BOG4Wp_3x0x3cliNtB3_12DaemonClient4postNtNtNtB3_8commands4exec14ExecCancelBodyEB5_
FN:188,_RINvMNtCsfB8W1BOG4Wp_3x0x3cliNtB3_12DaemonClient5patchINtNtCsjK8IHVZMVwb_10serde_json3map3MapNtNtCs1OjIl8oxbrv_5alloc6string6StringNtNtBV_5value5ValueEEB5_
FN:188,_RINvMNtCsfB8W1BOG4Wp_3x0x3cliNtB3_12DaemonClient5patchNtNtCsjK8IHVZMVwb_10serde_json5value5ValueEB5_
FN:209,_RNCINvMNtCsfB8W1BOG4Wp_3x0x3cliNtB5_12DaemonClient3putNtNtCsjK8IHVZMVwb_10serde_json5value5ValueE0B7_
FN:163,_RNCINvMNtCsfB8W1BOG4Wp_3x0x3cliNtB5_12DaemonClient4postNtNtCsjK8IHVZMVwb_10serde_json5value5ValueE0B7_
FN:163,_RNCINvMNtCsfB8W1BOG4Wp_3x0x3cliNtB5_12DaemonClient4postNtNtNtB5_8commands4exec11ExecRunBodyE0B7_
FN:163,_RNCINvMNtCsfB8W1BOG4Wp_3x0x3cliNtB5_12DaemonClient4postNtNtNtB5_8commands4exec14ExecCancelBodyE0B7_
FN:192,_RNCINvMNtCsfB8W1BOG4Wp_3x0x3cliNtB5_12DaemonClient5patchINtNtCsjK8IHVZMVwb_10serde_json3map3MapNtNtCs1OjIl8oxbrv_5alloc6string6StringNtNtBX_5value5ValueEE0B7_
FN:192,_RNCINvMNtCsfB8W1BOG4Wp_3x0x3cliNtB5_12DaemonClient5patchNtNtCsjK8IHVZMVwb_10serde_json5value5ValueE0B7_
FN:248,_RNCNCNvMNtCsfB8W1BOG4Wp_3x0x3cliNtB6_12DaemonClient10get_stream00B8_
FN:267,_RNCNCNvMNtCsfB8W1BOG4Wp_3x0x3cliNtB6_12DaemonClient15handle_response00B8_
FN:66,_RNCNCNvMNtCsfB8W1BOG4Wp_3x0x3cliNtB6_12DaemonClient3news_00B8_
FN:67,_RNCNCNvMNtCsfB8W1BOG4Wp_3x0x3cliNtB6_12DaemonClient3news_0s_0B8_
FN:234,_RNCNvMNtCsfB8W1BOG4Wp_3x0x3cliNtB4_12DaemonClient10get_stream0B6_
FN:176,_RNCNvMNtCsfB8W1BOG4Wp_3x0x3cliNtB4_12DaemonClient10post_empty0B6_
FN:120,_RNCNvMNtCsfB8W1BOG4Wp_3x0x3cliNtB4_12DaemonClient14ensure_running0B6_
FN:255,_RNCNvMNtCsfB8W1BOG4Wp_3x0x3cliNtB4_12DaemonClient15handle_response0B6_
FN:134,_RNCNvMNtCsfB8W1BOG4Wp_3x0x3cliNtB4_12DaemonClient3get0B6_
FN:61,_RNCNvMNtCsfB8W1BOG4Wp_3x0x3cliNtB4_12DaemonClient3new0B6_
FN:62,_RNCNvMNtCsfB8W1BOG4Wp_3x0x3cliNtB4_12DaemonClient3news_0B6_
FN:222,_RNCNvMNtCsfB8W1BOG4Wp_3x0x3cliNtB4_12DaemonClient6delete0B6_
FN:146,_RNCNvMNtCsfB8W1BOG4Wp_3x0x3cliNtB4_12DaemonClient9get_query0B6_
FN:339,_RNvNtCs6t3ktUJwJ8n_3x0x3cli11print_error
FN:359,_RNvNtNtCs6t3ktUJwJ8n_3x0x3cli5testss_18format_scalar_bool
FN:365,_RNvNtNtCs6t3ktUJwJ8n_3x0x3cli5testss_18format_scalar_null
FN:353,_RNvNtNtCs6t3ktUJwJ8n_3x0x3cli5testss_20format_scalar_number
FN:348,_RNvNtNtCs6t3ktUJwJ8n_3x0x3cli5testss_20format_scalar_string
FN:447,_RNvNtNtCs6t3ktUJwJ8n_3x0x3cli5testss_22print_value_text_array
FN:428,_RNvNtNtCs6t3ktUJwJ8n_3x0x3cli5testss_23print_value_json_output
FN:441,_RNvNtNtCs6t3ktUJwJ8n_3x0x3cli5testss_23print_value_text_nested
FN:435,_RNvNtNtCs6t3ktUJwJ8n_3x0x3cli5testss_23print_value_text_output
FN:377,_RNvNtNtCs6t3ktUJwJ8n_3x0x3cli5testss_30output_format_debug_clone_copy
FN:402,_RNvNtNtCs6t3ktUJwJ8n_3x0x3cli5testss_31daemon_client_uses_api_override
FN:370,_RNvNtNtCs6t3ktUJwJ8n_3x0x3cli5testss_34format_scalar_object_falls_through
FN:453,_RNvNtNtCs6t3ktUJwJ8n_3x0x3cli5testss_35ensure_running_fails_without_daemon
FN:409,_RNvNtNtCs6t3ktUJwJ8n_3x0x3cli5testss_36daemon_client_uses_http_api_override
FN:386,_RNvNtNtCs6t3ktUJwJ8n_3x0x3cli5testss_39daemon_client_new_defaults_to_localhost
FN:415,_RNvNtNtCs6t3ktUJwJ8n_3x0x3cli5testss_41daemon_client_named_instance_no_port_file
FN:455,_RNCNvNtNtCs6t3ktUJwJ8n_3x0x3cli5testss_35ensure_running_fails_without_daemon0B7_
FN:234,_RNvMNtCs6t3ktUJwJ8n_3x0x3cliNtB2_12DaemonClient10get_stream
FN:176,_RNvMNtCs6t3ktUJwJ8n_3x0x3cliNtB2_12DaemonClient10post_empty
FN:109,_RNvMNtCs6t3ktUJwJ8n_3x0x3cliNtB2_12DaemonClient12auth_headers
FN:83,_RNvMNtCs6t3ktUJwJ8n_3x0x3cliNtB2_12DaemonClient12discover_api
FN:120,_RNvMNtCs6t3ktUJwJ8n_3x0x3cliNtB2_12DaemonClient14ensure_running
FN:255,_RNvMNtCs6t3ktUJwJ8n_3x0x3cliNtB2_12DaemonClient15handle_response
FN:134,_RNvMNtCs6t3ktUJwJ8n_3x0x3cliNtB2_12DaemonClient3get
FN:34,_RNvMNtCs6t3ktUJwJ8n_3x0x3cliNtB2_12DaemonClient3new
FN:222,_RNvMNtCs6t3ktUJwJ8n_3x0x3cliNtB2_12DaemonClient6delete
FN:276,_RNvMNtCs6t3ktUJwJ8n_3x0x3cliNtB2_12DaemonClient6format
FN:281,_RNvMNtCs6t3ktUJwJ8n_3x0x3cliNtB2_12DaemonClient8base_url
FN:146,_RNvMNtCs6t3ktUJwJ8n_3x0x3cliNtB2_12DaemonClient9get_query
FN:287,_RNvNtCs6t3ktUJwJ8n_3x0x3cli11print_value
FN:328,_RNvNtCs6t3ktUJwJ8n_3x0x3cli13format_scalar
FN:300,_RNvNtCs6t3ktUJwJ8n_3x0x3cli16print_value_text
FN:205,_RINvMNtCs6t3ktUJwJ8n_3x0x3cliNtB3_12DaemonClient3putNtNtCsjK8IHVZMVwb_10serde_json5value5ValueEB5_
FN:159,_RINvMNtCs6t3ktUJwJ8n_3x0x3cliNtB3_12DaemonClient4postNtNtCsjK8IHVZMVwb_10serde_json5value5ValueEB5_
FN:159,_RINvMNtCs6t3ktUJwJ8n_3x0x3cliNtB3_12DaemonClient4postNtNtNtB3_8commands4exec11ExecRunBodyEB5_
FN:159,_RINvMNtCs6t3ktUJwJ8n_3x0x3cliNtB3_12DaemonClient4postNtNtNtB3_8commands4exec14ExecCancelBodyEB5_
FN:188,_RINvMNtCs6t3ktUJwJ8n_3x0x3cliNtB3_12DaemonClient5patchINtNtCsjK8IHVZMVwb_10serde_json3map3MapNtNtCs1OjIl8oxbrv_5alloc6string6StringNtNtBV_5value5ValueEEB5_
FN:188,_RINvMNtCs6t3ktUJwJ8n_3x0x3cliNtB3_12DaemonClient5patchNtNtCsjK8IHVZMVwb_10serde_json5value5ValueEB5_
FN:209,_RNCINvMNtCs6t3ktUJwJ8n_3x0x3cliNtB5_12DaemonClient3putNtNtCsjK8IHVZMVwb_10serde_json5value5ValueE0B7_
FN:163,_RNCINvMNtCs6t3ktUJwJ8n_3x0x3cliNtB5_12DaemonClient4postNtNtCsjK8IHVZMVwb_10serde_json5value5ValueE0B7_
FN:163,_RNCINvMNtCs6t3ktUJwJ8n_3x0x3cliNtB5_12DaemonClient4postNtNtNtB5_8commands4exec11ExecRunBodyE0B7_
FN:163,_RNCINvMNtCs6t3ktUJwJ8n_3x0x3cliNtB5_12DaemonClient4postNtNtNtB5_8commands4exec14ExecCancelBodyE0B7_
FN:192,_RNCINvMNtCs6t3ktUJwJ8n_3x0x3cliNtB5_12DaemonClient5patchINtNtCsjK8IHVZMVwb_10serde_json3map3MapNtNtCs1OjIl8oxbrv_5alloc6string6StringNtNtBX_5value5ValueEE0B7_
FN:192,_RNCINvMNtCs6t3ktUJwJ8n_3x0x3cliNtB5_12DaemonClient5patchNtNtCsjK8IHVZMVwb_10serde_json5value5ValueE0B7_
FN:248,_RNCNCNvMNtCs6t3ktUJwJ8n_3x0x3cliNtB6_12DaemonClient10get_stream00B8_
FN:267,_RNCNCNvMNtCs6t3ktUJwJ8n_3x0x3cliNtB6_12DaemonClient15handle_response00B8_
FN:66,_RNCNCNvMNtCs6t3ktUJwJ8n_3x0x3cliNtB6_12DaemonClient3news_00B8_
FN:67,_RNCNCNvMNtCs6t3ktUJwJ8n_3x0x3cliNtB6_12DaemonClient3news_0s_0B8_
FN:234,_RNCNvMNtCs6t3ktUJwJ8n_3x0x3cliNtB4_12DaemonClient10get_stream0B6_
FN:176,_RNCNvMNtCs6t3ktUJwJ8n_3x0x3cliNtB4_12DaemonClient10post_empty0B6_
FN:120,_RNCNvMNtCs6t3ktUJwJ8n_3x0x3cliNtB4_12DaemonClient14ensure_running0B6_
FN:255,_RNCNvMNtCs6t3ktUJwJ8n_3x0x3cliNtB4_12DaemonClient15handle_response0B6_
FN:134,_RNCNvMNtCs6t3ktUJwJ8n_3x0x3cliNtB4_12DaemonClient3get0B6_
FN:61,_RNCNvMNtCs6t3ktUJwJ8n_3x0x3cliNtB4_12DaemonClient3new0B6_
FN:62,_RNCNvMNtCs6t3ktUJwJ8n_3x0x3cliNtB4_12DaemonClient3news_0B6_
FN:222,_RNCNvMNtCs6t3ktUJwJ8n_3x0x3cliNtB4_12DaemonClient6delete0B6_
FN:146,_RNCNvMNtCs6t3ktUJwJ8n_3x0x3cliNtB4_12DaemonClient9get_query0B6_
FNDA:0,_RNvMNtCsfB8W1BOG4Wp_3x0x3cliNtB2_12DaemonClient10get_stream
FNDA:0,_RNvMNtCsfB8W1BOG4Wp_3x0x3cliNtB2_12DaemonClient10post_empty
FNDA:0,_RNvMNtCsfB8W1BOG4Wp_3x0x3cliNtB2_12DaemonClient12auth_headers
FNDA:2,_RNvMNtCsfB8W1BOG4Wp_3x0x3cliNtB2_12DaemonClient12discover_api
FNDA:0,_RNvMNtCsfB8W1BOG4Wp_3x0x3cliNtB2_12DaemonClient14ensure_running
FNDA:0,_RNvMNtCsfB8W1BOG4Wp_3x0x3cliNtB2_12DaemonClient15handle_response
FNDA:0,_RNvMNtCsfB8W1BOG4Wp_3x0x3cliNtB2_12DaemonClient3get
FNDA:2,_RNvMNtCsfB8W1BOG4Wp_3x0x3cliNtB2_12DaemonClient3new
FNDA:0,_RNvMNtCsfB8W1BOG4Wp_3x0x3cliNtB2_12DaemonClient6delete
FNDA:0,_RNvMNtCsfB8W1BOG4Wp_3x0x3cliNtB2_12DaemonClient6format
FNDA:0,_RNvMNtCsfB8W1BOG4Wp_3x0x3cliNtB2_12DaemonClient8base_url
FNDA:0,_RNvMNtCsfB8W1BOG4Wp_3x0x3cliNtB2_12DaemonClient9get_query
FNDA:2,_RNvNtCsfB8W1BOG4Wp_3x0x3cli11print_error
FNDA:0,_RNvNtCsfB8W1BOG4Wp_3x0x3cli11print_value
FNDA:0,_RNvNtCsfB8W1BOG4Wp_3x0x3cli13format_scalar
FNDA:0,_RNvNtCsfB8W1BOG4Wp_3x0x3cli16print_value_text
FNDA:0,_RINvMNtCsfB8W1BOG4Wp_3x0x3cliNtB3_12DaemonClient3putNtNtCsjK8IHVZMVwb_10serde_json5value5ValueEB5_
FNDA:0,_RINvMNtCsfB8W1BOG4Wp_3x0x3cliNtB3_12DaemonClient4postNtNtCsjK8IHVZMVwb_10serde_json5value5ValueEB5_
FNDA:0,_RINvMNtCsfB8W1BOG4Wp_3x0x3cliNtB3_12DaemonClient4postNtNtNtB3_8commands4exec11ExecRunBodyEB5_
FNDA:0,_RINvMNtCsfB8W1BOG4Wp_3x0x3cliNtB3_12DaemonClient4postNtNtNtB3_8commands4exec14ExecCancelBodyEB5_
FNDA:0,_RINvMNtCsfB8W1BOG4Wp_3x0x3cliNtB3_12DaemonClient5patchINtNtCsjK8IHVZMVwb_10serde_json3map3MapNtNtCs1OjIl8oxbrv_5alloc6string6StringNtNtBV_5value5ValueEEB5_
FNDA:0,_RINvMNtCsfB8W1BOG4Wp_3x0x3cliNtB3_12DaemonClient5patchNtNtCsjK8IHVZMVwb_10serde_json5value5ValueEB5_
FNDA:0,_RNCINvMNtCsfB8W1BOG4Wp_3x0x3cliNtB5_12DaemonClient3putNtNtCsjK8IHVZMVwb_10serde_json5value5ValueE0B7_
FNDA:0,_RNCINvMNtCsfB8W1BOG4Wp_3x0x3cliNtB5_12DaemonClient4postNtNtCsjK8IHVZMVwb_10serde_json5value5ValueE0B7_
FNDA:0,_RNCINvMNtCsfB8W1BOG4Wp_3x0x3cliNtB5_12DaemonClient4postNtNtNtB5_8commands4exec11ExecRunBodyE0B7_
FNDA:0,_RNCINvMNtCsfB8W1BOG4Wp_3x0x3cliNtB5_12DaemonClient4postNtNtNtB5_8commands4exec14ExecCancelBodyE0B7_
FNDA:0,_RNCINvMNtCsfB8W1BOG4Wp_3x0x3cliNtB5_12DaemonClient5patchINtNtCsjK8IHVZMVwb_10serde_json3map3MapNtNtCs1OjIl8oxbrv_5alloc6string6StringNtNtBX_5value5ValueEE0B7_
FNDA:0,_RNCINvMNtCsfB8W1BOG4Wp_3x0x3cliNtB5_12DaemonClient5patchNtNtCsjK8IHVZMVwb_10serde_json5value5ValueE0B7_
FNDA:0,_RNCNCNvMNtCsfB8W1BOG4Wp_3x0x3cliNtB6_12DaemonClient10get_stream00B8_
FNDA:0,_RNCNCNvMNtCsfB8W1BOG4Wp_3x0x3cliNtB6_12DaemonClient15handle_response00B8_
FNDA:2,_RNCNCNvMNtCsfB8W1BOG4Wp_3x0x3cliNtB6_12DaemonClient3news_00B8_
FNDA:2,_RNCNCNvMNtCsfB8W1BOG4Wp_3x0x3cliNtB6_12DaemonClient3news_0s_0B8_
FNDA:0,_RNCNvMNtCsfB8W1BOG4Wp_3x0x3cliNtB4_12DaemonClient10get_stream0B6_
FNDA:0,_RNCNvMNtCsfB8W1BOG4Wp_3x0x3cliNtB4_12DaemonClient10post_empty0B6_
FNDA:0,_RNCNvMNtCsfB8W1BOG4Wp_3x0x3cliNtB4_12DaemonClient14ensure_running0B6_
FNDA:0,_RNCNvMNtCsfB8W1BOG4Wp_3x0x3cliNtB4_12DaemonClient15handle_response0B6_
FNDA:0,_RNCNvMNtCsfB8W1BOG4Wp_3x0x3cliNtB4_12DaemonClient3get0B6_
FNDA:0,_RNCNvMNtCsfB8W1BOG4Wp_3x0x3cliNtB4_12DaemonClient3new0B6_
FNDA:2,_RNCNvMNtCsfB8W1BOG4Wp_3x0x3cliNtB4_12DaemonClient3news_0B6_
FNDA:0,_RNCNvMNtCsfB8W1BOG4Wp_3x0x3cliNtB4_12DaemonClient6delete0B6_
FNDA:0,_RNCNvMNtCsfB8W1BOG4Wp_3x0x3cliNtB4_12DaemonClient9get_query0B6_
FNDA:0,_RNvNtCs6t3ktUJwJ8n_3x0x3cli11print_error
FNDA:1,_RNvNtNtCs6t3ktUJwJ8n_3x0x3cli5testss_18format_scalar_bool
FNDA:1,_RNvNtNtCs6t3ktUJwJ8n_3x0x3cli5testss_18format_scalar_null
FNDA:1,_RNvNtNtCs6t3ktUJwJ8n_3x0x3cli5testss_20format_scalar_number
FNDA:1,_RNvNtNtCs6t3ktUJwJ8n_3x0x3cli5testss_20format_scalar_string
FNDA:1,_RNvNtNtCs6t3ktUJwJ8n_3x0x3cli5testss_22print_value_text_array
FNDA:1,_RNvNtNtCs6t3ktUJwJ8n_3x0x3cli5testss_23print_value_json_output
FNDA:1,_RNvNtNtCs6t3ktUJwJ8n_3x0x3cli5testss_23print_value_text_nested
FNDA:1,_RNvNtNtCs6t3ktUJwJ8n_3x0x3cli5testss_23print_value_text_output
FNDA:1,_RNvNtNtCs6t3ktUJwJ8n_3x0x3cli5testss_30output_format_debug_clone_copy
FNDA:1,_RNvNtNtCs6t3ktUJwJ8n_3x0x3cli5testss_31daemon_client_uses_api_override
FNDA:1,_RNvNtNtCs6t3ktUJwJ8n_3x0x3cli5testss_34format_scalar_object_falls_through
FNDA:1,_RNvNtNtCs6t3ktUJwJ8n_3x0x3cli5testss_35ensure_running_fails_without_daemon
FNDA:1,_RNvNtNtCs6t3ktUJwJ8n_3x0x3cli5testss_36daemon_client_uses_http_api_override
FNDA:1,_RNvNtNtCs6t3ktUJwJ8n_3x0x3cli5testss_39daemon_client_new_defaults_to_localhost
FNDA:1,_RNvNtNtCs6t3ktUJwJ8n_3x0x3cli5testss_41daemon_client_named_instance_no_port_file
FNDA:1,_RNCNvNtNtCs6t3ktUJwJ8n_3x0x3cli5testss_35ensure_running_fails_without_daemon0B7_
FNDA:2,_RNvMNtCs6t3ktUJwJ8n_3x0x3cliNtB2_12DaemonClient10get_stream
FNDA:9,_RNvMNtCs6t3ktUJwJ8n_3x0x3cliNtB2_12DaemonClient10post_empty
FNDA:91,_RNvMNtCs6t3ktUJwJ8n_3x0x3cliNtB2_12DaemonClient12auth_headers
FNDA:2,_RNvMNtCs6t3ktUJwJ8n_3x0x3cliNtB2_12DaemonClient12discover_api
FNDA:87,_RNvMNtCs6t3ktUJwJ8n_3x0x3cliNtB2_12DaemonClient14ensure_running
FNDA:89,_RNvMNtCs6t3ktUJwJ8n_3x0x3cliNtB2_12DaemonClient15handle_response
FNDA:49,_RNvMNtCs6t3ktUJwJ8n_3x0x3cliNtB2_12DaemonClient3get
FNDA:96,_RNvMNtCs6t3ktUJwJ8n_3x0x3cliNtB2_12DaemonClient3new
FNDA:8,_RNvMNtCs6t3ktUJwJ8n_3x0x3cliNtB2_12DaemonClient6delete
FNDA:83,_RNvMNtCs6t3ktUJwJ8n_3x0x3cliNtB2_12DaemonClient6format
FNDA:3,_RNvMNtCs6t3ktUJwJ8n_3x0x3cliNtB2_12DaemonClient8base_url
FNDA:2,_RNvMNtCs6t3ktUJwJ8n_3x0x3cliNtB2_12DaemonClient9get_query
FNDA:86,_RNvNtCs6t3ktUJwJ8n_3x0x3cli11print_value
FNDA:11,_RNvNtCs6t3ktUJwJ8n_3x0x3cli13format_scalar
FNDA:6,_RNvNtCs6t3ktUJwJ8n_3x0x3cli16print_value_text
FNDA:1,_RINvMNtCs6t3ktUJwJ8n_3x0x3cliNtB3_12DaemonClient3putNtNtCsjK8IHVZMVwb_10serde_json5value5ValueEB5_
FNDA:18,_RINvMNtCs6t3ktUJwJ8n_3x0x3cliNtB3_12DaemonClient4postNtNtCsjK8IHVZMVwb_10serde_json5value5ValueEB5_
FNDA:0,_RINvMNtCs6t3ktUJwJ8n_3x0x3cliNtB3_12DaemonClient4postNtNtNtB3_8commands4exec11ExecRunBodyEB5_
FNDA:1,_RINvMNtCs6t3ktUJwJ8n_3x0x3cliNtB3_12DaemonClient4postNtNtNtB3_8commands4exec14ExecCancelBodyEB5_
FNDA:1,_RINvMNtCs6t3ktUJwJ8n_3x0x3cliNtB3_12DaemonClient5patchINtNtCsjK8IHVZMVwb_10serde_json3map3MapNtNtCs1OjIl8oxbrv_5alloc6string6StringNtNtBV_5value5ValueEEB5_
FNDA:0,_RINvMNtCs6t3ktUJwJ8n_3x0x3cliNtB3_12DaemonClient5patchNtNtCsjK8IHVZMVwb_10serde_json5value5ValueEB5_
FNDA:1,_RNCINvMNtCs6t3ktUJwJ8n_3x0x3cliNtB5_12DaemonClient3putNtNtCsjK8IHVZMVwb_10serde_json5value5ValueE0B7_
FNDA:18,_RNCINvMNtCs6t3ktUJwJ8n_3x0x3cliNtB5_12DaemonClient4postNtNtCsjK8IHVZMVwb_10serde_json5value5ValueE0B7_
FNDA:0,_RNCINvMNtCs6t3ktUJwJ8n_3x0x3cliNtB5_12DaemonClient4postNtNtNtB5_8commands4exec11ExecRunBodyE0B7_
FNDA:1,_RNCINvMNtCs6t3ktUJwJ8n_3x0x3cliNtB5_12DaemonClient4postNtNtNtB5_8commands4exec14ExecCancelBodyE0B7_
FNDA:1,_RNCINvMNtCs6t3ktUJwJ8n_3x0x3cliNtB5_12DaemonClient5patchINtNtCsjK8IHVZMVwb_10serde_json3map3MapNtNtCs1OjIl8oxbrv_5alloc6string6StringNtNtBX_5value5ValueEE0B7_
FNDA:0,_RNCINvMNtCs6t3ktUJwJ8n_3x0x3cliNtB5_12DaemonClient5patchNtNtCsjK8IHVZMVwb_10serde_json5value5ValueE0B7_
FNDA:0,_RNCNCNvMNtCs6t3ktUJwJ8n_3x0x3cliNtB6_12DaemonClient10get_stream00B8_
FNDA:0,_RNCNCNvMNtCs6t3ktUJwJ8n_3x0x3cliNtB6_12DaemonClient15handle_response00B8_
FNDA:95,_RNCNCNvMNtCs6t3ktUJwJ8n_3x0x3cliNtB6_12DaemonClient3news_00B8_
FNDA:95,_RNCNCNvMNtCs6t3ktUJwJ8n_3x0x3cliNtB6_12DaemonClient3news_0s_0B8_
FNDA:2,_RNCNvMNtCs6t3ktUJwJ8n_3x0x3cliNtB4_12DaemonClient10get_stream0B6_
FNDA:9,_RNCNvMNtCs6t3ktUJwJ8n_3x0x3cliNtB4_12DaemonClient10post_empty0B6_
FNDA:87,_RNCNvMNtCs6t3ktUJwJ8n_3x0x3cliNtB4_12DaemonClient14ensure_running0B6_
FNDA:89,_RNCNvMNtCs6t3ktUJwJ8n_3x0x3cliNtB4_12DaemonClient15handle_response0B6_
FNDA:49,_RNCNvMNtCs6t3ktUJwJ8n_3x0x3cliNtB4_12DaemonClient3get0B6_
FNDA:0,_RNCNvMNtCs6t3ktUJwJ8n_3x0x3cliNtB4_12DaemonClient3new0B6_
FNDA:95,_RNCNvMNtCs6t3ktUJwJ8n_3x0x3cliNtB4_12DaemonClient3news_0B6_
FNDA:8,_RNCNvMNtCs6t3ktUJwJ8n_3x0x3cliNtB4_12DaemonClient6delete0B6_
FNDA:2,_RNCNvMNtCs6t3ktUJwJ8n_3x0x3cliNtB4_12DaemonClient9get_query0B6_
FNF:51
FNH:48
DA:34,98
DA:35,98
DA:36,98
DA:37,98
DA:38,98
DA:39,98
DA:40,98
DA:41,1
DA:42,97
DA:45,98
DA:46,94
DA:47,92
DA:49,2
DA:52,4
DA:59,97
DA:60,97
DA:61,97
DA:62,97
DA:63,97
DA:64,97
DA:65,97
DA:66,97
DA:67,97
DA:68,97
DA:70,97
DA:71,97
DA:72,97
DA:73,97
DA:75,97
DA:76,97
DA:77,97
DA:78,97
DA:79,97
DA:80,97
DA:81,98
DA:83,4
DA:84,4
DA:85,4
DA:86,4
DA:87,4
DA:88,4
DA:89,4
DA:90,0
DA:91,0
DA:92,0
DA:93,0
DA:94,0
DA:95,0
DA:96,0
DA:97,4
DA:99,4
DA:100,1
DA:103,3
DA:105,3
DA:106,4
DA:109,91
DA:110,91
DA:111,91
DA:112,91
DA:113,91
DA:114,91
DA:115,0
DA:116,91
DA:117,91
DA:120,87
DA:121,87
DA:122,87
DA:123,87
DA:124,87
DA:125,87
DA:126,87
DA:127,86
DA:128,86
DA:129,1
DA:131,87
DA:134,49
DA:135,49
DA:136,49
DA:137,49
DA:138,49
DA:139,49
DA:140,49
DA:141,49
DA:142,49
DA:143,49
DA:146,2
DA:147,2
DA:148,2
DA:149,2
DA:150,2
DA:151,2
DA:152,2
DA:153,2
DA:154,2
DA:155,2
DA:156,2
DA:159,19
DA:160,19
DA:161,19
DA:162,19
DA:163,19
DA:164,19
DA:165,19
DA:166,19
DA:167,19
DA:168,19
DA:169,19
DA:170,19
DA:171,19
DA:172,19
DA:173,19
DA:176,9
DA:177,9
DA:178,9
DA:179,9
DA:180,9
DA:181,9
DA:182,9
DA:183,9
DA:184,9
DA:185,9
DA:188,1
DA:189,1
DA:190,1
DA:191,1
DA:192,1
DA:193,1
DA:194,1
DA:195,1
DA:196,1
DA:197,1
DA:198,1
DA:199,1
DA:200,1
DA:201,1
DA:202,1
DA:205,1
DA:206,1
DA:207,1
DA:208,1
DA:209,1
DA:210,1
DA:211,1
DA:212,1
DA:213,1
DA:214,1
DA:215,1
DA:216,1
DA:217,1
DA:218,1
DA:219,1
DA:222,8
DA:223,8
DA:224,8
DA:225,8
DA:226,8
DA:227,8
DA:228,8
DA:229,8
DA:230,8
DA:231,8
DA:234,2
DA:235,2
DA:236,2
DA:237,2
DA:238,2
DA:239,2
DA:240,2
DA:241,2
DA:242,2
DA:243,2
DA:244,0
DA:245,0
DA:246,0
DA:247,0
DA:248,0
DA:249,0
DA:250,0
DA:251,2
DA:252,2
DA:253,2
DA:255,89
DA:256,89
DA:257,89
DA:258,89
DA:259,0
DA:261,89
DA:264,89
DA:265,0
DA:266,0
DA:267,0
DA:268,0
DA:269,0
DA:270,89
DA:272,89
DA:273,89
DA:276,83
DA:277,83
DA:278,83
DA:281,3
DA:282,3
DA:283,3
DA:287,86
DA:288,86
DA:290,83
DA:291,83
DA:292,83
DA:294,3
DA:295,3
DA:296,3
DA:298,86
DA:300,6
DA:301,6
DA:302,6
DA:303,5
DA:304,5
DA:305,5
DA:306,1
DA:307,1
DA:308,1
DA:309,1
DA:310,4
DA:311,4
DA:312,4
DA:316,1
DA:317,2
DA:318,2
DA:319,2
DA:320,2
DA:321,2
DA:324,0
DA:326,6
DA:328,11
DA:329,11
DA:330,3
DA:331,4
DA:332,2
DA:333,1
DA:334,1
DA:336,11
DA:339,2
DA:340,2
DA:341,2
DA:348,1
DA:349,1
DA:350,1
DA:353,1
DA:354,1
DA:355,1
DA:356,1
DA:359,1
DA:360,1
DA:361,1
DA:362,1
DA:365,1
DA:366,1
DA:367,1
DA:370,1
DA:371,1
DA:372,1
DA:373,1
DA:374,1
DA:377,1
DA:378,1
DA:379,1
DA:380,1
DA:381,1
DA:382,1
DA:383,1
DA:386,1
DA:388,1
DA:390,1
DA:391,1
DA:392,1
DA:394,0
DA:395,0
DA:396,0
DA:399,1
DA:402,1
DA:403,1
DA:404,1
DA:405,1
DA:406,1
DA:409,1
DA:410,1
DA:411,1
DA:412,1
DA:415,1
DA:417,1
DA:418,1
DA:419,1
DA:420,1
DA:421,1
DA:423,0
DA:425,1
DA:428,1
DA:429,1
DA:431,1
DA:432,1
DA:435,1
DA:436,1
DA:437,1
DA:438,1
DA:441,1
DA:442,1
DA:443,1
DA:444,1
DA:447,1
DA:448,1
DA:449,1
DA:450,1
DA:453,1
DA:454,1
DA:455,1
DA:456,1
DA:457,1
DA:458,1
DA:459,1
DA:460,1
DA:461,1
DA:462,1
BRF:0
BRH:0
LF:338
LH:309
end_of_record
SF:/Users/davidirvine/Desktop/Devel/projects/x0x/src/connectivity.rs
FN:77,_RNvMNtCsfB8W1BOG4Wp_3x0x12connectivityNtB2_16ReachabilityInfo13likely_direct
FN:107,_RNvMNtCsfB8W1BOG4Wp_3x0x12connectivityNtB2_16ReachabilityInfo14is_coordinator
FN:49,_RNvMNtCsfB8W1BOG4Wp_3x0x12connectivityNtB2_16ReachabilityInfo15from_discovered
FN:95,_RNvMNtCsfB8W1BOG4Wp_3x0x12connectivityNtB2_16ReachabilityInfo18needs_coordination
FN:86,_RNvMNtCsfB8W1BOG4Wp_3x0x12connectivityNtB2_16ReachabilityInfo21should_attempt_direct
FN:63,_RNvMNtCsfB8W1BOG4Wp_3x0x12connectivityNtB2_16ReachabilityInfo23from_discovered_machine
FN:101,_RNvMNtCsfB8W1BOG4Wp_3x0x12connectivityNtB2_16ReachabilityInfo8is_relay
FN:131,_RNvXs_NtCsfB8W1BOG4Wp_3x0x12connectivityNtB4_14ConnectOutcomeNtNtCsl8K0bEFm1U0_4core3fmt7Display3fmt
FN:63,_RNvMNtCs6t3ktUJwJ8n_3x0x12connectivityNtB2_16ReachabilityInfo23from_discovered_machine
FN:77,_RNvMNtCs6t3ktUJwJ8n_3x0x12connectivityNtB2_16ReachabilityInfo13likely_direct
FN:107,_RNvMNtCs6t3ktUJwJ8n_3x0x12connectivityNtB2_16ReachabilityInfo14is_coordinator
FN:49,_RNvMNtCs6t3ktUJwJ8n_3x0x12connectivityNtB2_16ReachabilityInfo15from_discovered
FN:95,_RNvMNtCs6t3ktUJwJ8n_3x0x12connectivityNtB2_16ReachabilityInfo18needs_coordination
FN:86,_RNvMNtCs6t3ktUJwJ8n_3x0x12connectivityNtB2_16ReachabilityInfo21should_attempt_direct
FN:101,_RNvMNtCs6t3ktUJwJ8n_3x0x12connectivityNtB2_16ReachabilityInfo8is_relay
FN:131,_RNvXs_NtCs6t3ktUJwJ8n_3x0x12connectivityNtB4_14ConnectOutcomeNtNtCsl8K0bEFm1U0_4core3fmt7Display3fmt
FN:147,_RNvNtNtCs6t3ktUJwJ8n_3x0x12connectivity5tests10discovered
FN:171,_RNvNtNtCs6t3ktUJwJ8n_3x0x12connectivity5tests4addr
FN:259,_RNvNtNtCs6t3ktUJwJ8n_3x0x12connectivity5testss_23connect_outcome_display
FN:274,_RNvNtNtCs6t3ktUJwJ8n_3x0x12connectivity5testss_24connect_outcome_equality
FN:242,_RNvNtNtCs6t3ktUJwJ8n_3x0x12connectivity5testss_33from_discovered_copies_all_fields
FN:198,_RNvNtNtCs6t3ktUJwJ8n_3x0x12connectivity5testss_37likely_direct_false_for_symmetric_nat
FN:206,_RNvNtNtCs6t3ktUJwJ8n_3x0x12connectivity5testss_37likely_direct_false_when_no_addresses
FN:221,_RNvNtNtCs6t3ktUJwJ8n_3x0x12connectivity5testss_41needs_coordination_true_for_symmetric_nat
FN:190,_RNvNtNtCs6t3ktUJwJ8n_3x0x12connectivity5testss_47likely_direct_false_when_only_nat_type_is_known
FN:235,_RNvNtNtCs6t3ktUJwJ8n_3x0x12connectivity5testss_49needs_coordination_false_for_verified_direct_peer
FN:176,_RNvNtNtCs6t3ktUJwJ8n_3x0x12connectivity5testss_50likely_direct_true_when_can_receive_direct_is_true
FN:228,_RNvNtNtCs6t3ktUJwJ8n_3x0x12connectivity5testss_50needs_coordination_true_when_cannot_receive_direct
FN:183,_RNvNtNtCs6t3ktUJwJ8n_3x0x12connectivity5testss_52likely_direct_false_when_can_receive_direct_is_false
FN:213,_RNvNtNtCs6t3ktUJwJ8n_3x0x12connectivity5testss_61likely_direct_false_when_no_reachability_info_but_has_address
FNDA:782,_RNvMNtCsfB8W1BOG4Wp_3x0x12connectivityNtB2_16ReachabilityInfo13likely_direct
FNDA:4,_RNvMNtCsfB8W1BOG4Wp_3x0x12connectivityNtB2_16ReachabilityInfo14is_coordinator
FNDA:17,_RNvMNtCsfB8W1BOG4Wp_3x0x12connectivityNtB2_16ReachabilityInfo15from_discovered
FNDA:523,_RNvMNtCsfB8W1BOG4Wp_3x0x12connectivityNtB2_16ReachabilityInfo18needs_coordination
FNDA:6,_RNvMNtCsfB8W1BOG4Wp_3x0x12connectivityNtB2_16ReachabilityInfo21should_attempt_direct
FNDA:0,_RNvMNtCsfB8W1BOG4Wp_3x0x12connectivityNtB2_16ReachabilityInfo23from_discovered_machine
FNDA:4,_RNvMNtCsfB8W1BOG4Wp_3x0x12connectivityNtB2_16ReachabilityInfo8is_relay
FNDA:1032,_RNvXs_NtCsfB8W1BOG4Wp_3x0x12connectivityNtB4_14ConnectOutcomeNtNtCsl8K0bEFm1U0_4core3fmt7Display3fmt
FNDA:0,_RNvMNtCs6t3ktUJwJ8n_3x0x12connectivityNtB2_16ReachabilityInfo23from_discovered_machine
FNDA:6,_RNvMNtCs6t3ktUJwJ8n_3x0x12connectivityNtB2_16ReachabilityInfo13likely_direct
FNDA:1,_RNvMNtCs6t3ktUJwJ8n_3x0x12connectivityNtB2_16ReachabilityInfo14is_coordinator
FNDA:10,_RNvMNtCs6t3ktUJwJ8n_3x0x12connectivityNtB2_16ReachabilityInfo15from_discovered
FNDA:3,_RNvMNtCs6t3ktUJwJ8n_3x0x12connectivityNtB2_16ReachabilityInfo18needs_coordination
FNDA:3,_RNvMNtCs6t3ktUJwJ8n_3x0x12connectivityNtB2_16ReachabilityInfo21should_attempt_direct
FNDA:1,_RNvMNtCs6t3ktUJwJ8n_3x0x12connectivityNtB2_16ReachabilityInfo8is_relay
FNDA:4,_RNvXs_NtCs6t3ktUJwJ8n_3x0x12connectivityNtB4_14ConnectOutcomeNtNtCsl8K0bEFm1U0_4core3fmt7Display3fmt
FNDA:10,_RNvNtNtCs6t3ktUJwJ8n_3x0x12connectivity5tests10discovered
FNDA:11,_RNvNtNtCs6t3ktUJwJ8n_3x0x12connectivity5tests4addr
FNDA:1,_RNvNtNtCs6t3ktUJwJ8n_3x0x12connectivity5testss_23connect_outcome_display
FNDA:1,_RNvNtNtCs6t3ktUJwJ8n_3x0x12connectivity5testss_24connect_outcome_equality
FNDA:1,_RNvNtNtCs6t3ktUJwJ8n_3x0x12connectivity5testss_33from_discovered_copies_all_fields
FNDA:1,_RNvNtNtCs6t3ktUJwJ8n_3x0x12connectivity5testss_37likely_direct_false_for_symmetric_nat
FNDA:1,_RNvNtNtCs6t3ktUJwJ8n_3x0x12connectivity5testss_37likely_direct_false_when_no_addresses
FNDA:1,_RNvNtNtCs6t3ktUJwJ8n_3x0x12connectivity5testss_41needs_coordination_true_for_symmetric_nat
FNDA:1,_RNvNtNtCs6t3ktUJwJ8n_3x0x12connectivity5testss_47likely_direct_false_when_only_nat_type_is_known
FNDA:1,_RNvNtNtCs6t3ktUJwJ8n_3x0x12connectivity5testss_49needs_coordination_false_for_verified_direct_peer
FNDA:1,_RNvNtNtCs6t3ktUJwJ8n_3x0x12connectivity5testss_50likely_direct_true_when_can_receive_direct_is_true
FNDA:1,_RNvNtNtCs6t3ktUJwJ8n_3x0x12connectivity5testss_50needs_coordination_true_when_cannot_receive_direct
FNDA:1,_RNvNtNtCs6t3ktUJwJ8n_3x0x12connectivity5testss_52likely_direct_false_when_can_receive_direct_is_false
FNDA:1,_RNvNtNtCs6t3ktUJwJ8n_3x0x12connectivity5testss_61likely_direct_false_when_no_reachability_info_but_has_address
FNF:22
FNH:21
DA:49,27
DA:50,27
DA:51,27
DA:52,27
DA:53,27
DA:54,27
DA:55,27
DA:56,27
DA:57,27
DA:58,27
DA:59,27
DA:63,0
DA:64,0
DA:65,0
DA:66,0
DA:67,0
DA:68,0
DA:69,0
DA:70,0
DA:71,0
DA:72,0
DA:73,0
DA:77,788
DA:78,788
DA:79,788
DA:86,9
DA:87,9
DA:88,9
DA:95,526
DA:96,526
DA:97,526
DA:101,5
DA:102,5
DA:103,5
DA:107,5
DA:108,5
DA:109,5
DA:131,1036
DA:132,1036
DA:133,259
DA:134,259
DA:135,0
DA:136,259
DA:137,259
DA:139,1036
DA:147,10
DA:148,10
DA:149,10
DA:150,10
DA:151,10
DA:152,10
DA:153,10
DA:154,10
DA:155,10
DA:156,10
DA:157,10
DA:158,10
DA:159,10
DA:160,10
DA:161,10
DA:162,10
DA:163,10
DA:164,10
DA:165,10
DA:166,10
DA:167,10
DA:168,10
DA:169,10
DA:171,11
DA:172,11
DA:173,11
DA:176,1
DA:177,1
DA:178,1
DA:179,1
DA:180,1
DA:183,1
DA:184,1
DA:185,1
DA:186,1
DA:187,1
DA:190,1
DA:191,1
DA:192,1
DA:193,1
DA:194,1
DA:195,1
DA:198,1
DA:199,1
DA:200,1
DA:201,1
DA:202,1
DA:203,1
DA:206,1
DA:207,1
DA:208,1
DA:209,1
DA:210,1
DA:213,1
DA:214,1
DA:215,1
DA:216,1
DA:217,1
DA:218,1
DA:221,1
DA:222,1
DA:223,1
DA:224,1
DA:225,1
DA:228,1
DA:229,1
DA:230,1
DA:231,1
DA:232,1
DA:235,1
DA:236,1
DA:237,1
DA:238,1
DA:239,1
DA:242,1
DA:243,1
DA:244,1
DA:245,1
DA:246,1
DA:247,1
DA:248,1
DA:250,1
DA:251,1
DA:252,1
DA:253,1
DA:254,1
DA:255,1
DA:256,1
DA:259,1
DA:260,1
DA:261,1
DA:262,1
DA:263,1
DA:265,1
DA:266,1
DA:267,1
DA:269,1
DA:270,1
DA:271,1
DA:274,1
DA:275,1
DA:276,1
DA:277,1
DA:278,1
BRF:0
BRH:0
LF:149
LH:137
end_of_record
SF:/Users/davidirvine/Desktop/Devel/projects/x0x/src/constitution.rs
FN:28,_RNvNtNtCs6t3ktUJwJ8n_3x0x12constitution5testss_14version_is_set
FN:20,_RNvNtNtCs6t3ktUJwJ8n_3x0x12constitution5testss_24constitution_is_embedded
FNDA:1,_RNvNtNtCs6t3ktUJwJ8n_3x0x12constitution5testss_14version_is_set
FNDA:1,_RNvNtNtCs6t3ktUJwJ8n_3x0x12constitution5testss_24constitution_is_embedded
FNF:2
FNH:2
DA:20,1
DA:21,1
DA:22,1
DA:23,1
DA:24,1
DA:25,1
DA:28,1
DA:29,1
DA:30,1
DA:31,1
BRF:0
BRH:0
LF:10
LH:10
end_of_record
SF:/Users/davidirvine/Desktop/Devel/projects/x0x/src/contacts.rs
FN:81,_RNvMs0_NtCsfB8W1BOG4Wp_3x0x8contactsNtB5_10TrustLevel4rank
FN:162,_RNvMs3_NtCsfB8W1BOG4Wp_3x0x8contactsNtB5_13MachineRecord3new
FN:386,_RNvMs4_NtCsfB8W1BOG4Wp_3x0x8contactsNtB5_12ContactStore10is_blocked
FN:353,_RNvMs4_NtCsfB8W1BOG4Wp_3x0x8contactsNtB5_12ContactStore10is_revoked
FN:378,_RNvMs4_NtCsfB8W1BOG4Wp_3x0x8contactsNtB5_12ContactStore10is_trusted
FN:414,_RNvMs4_NtCsfB8W1BOG4Wp_3x0x8contactsNtB5_12ContactStore11add_machine
FN:479,_RNvMs4_NtCsfB8W1BOG4Wp_3x0x8contactsNtB5_12ContactStore11pin_machine
FN:358,_RNvMs4_NtCsfB8W1BOG4Wp_3x0x8contactsNtB5_12ContactStore11revocations
FN:394,_RNvMs4_NtCsfB8W1BOG4Wp_3x0x8contactsNtB5_12ContactStore11trust_level
FN:576,_RNvMs4_NtCsfB8W1BOG4Wp_3x0x8contactsNtB5_12ContactStore12storage_path
FN:500,_RNvMs4_NtCsfB8W1BOG4Wp_3x0x8contactsNtB5_12ContactStore13unpin_machine
FN:452,_RNvMs4_NtCsfB8W1BOG4Wp_3x0x8contactsNtB5_12ContactStore14remove_machine
FN:522,_RNvMs4_NtCsfB8W1BOG4Wp_3x0x8contactsNtB5_12ContactStore17set_identity_type
FN:338,_RNvMs4_NtCsfB8W1BOG4Wp_3x0x8contactsNtB5_12ContactStore19revoke_with_revoker
FN:258,_RNvMs4_NtCsfB8W1BOG4Wp_3x0x8contactsNtB5_12ContactStore3add
FN:363,_RNvMs4_NtCsfB8W1BOG4Wp_3x0x8contactsNtB5_12ContactStore3get
FN:242,_RNvMs4_NtCsfB8W1BOG4Wp_3x0x8contactsNtB5_12ContactStore3new
FN:373,_RNvMs4_NtCsfB8W1BOG4Wp_3x0x8contactsNtB5_12ContactStore4list
FN:558,_RNvMs4_NtCsfB8W1BOG4Wp_3x0x8contactsNtB5_12ContactStore4load
FN:537,_RNvMs4_NtCsfB8W1BOG4Wp_3x0x8contactsNtB5_12ContactStore4save
FN:402,_RNvMs4_NtCsfB8W1BOG4Wp_3x0x8contactsNtB5_12ContactStore5touch
FN:277,_RNvMs4_NtCsfB8W1BOG4Wp_3x0x8contactsNtB5_12ContactStore6remove
FN:320,_RNvMs4_NtCsfB8W1BOG4Wp_3x0x8contactsNtB5_12ContactStore6revoke
FN:368,_RNvMs4_NtCsfB8W1BOG4Wp_3x0x8contactsNtB5_12ContactStore7get_mut
FN:467,_RNvMs4_NtCsfB8W1BOG4Wp_3x0x8contactsNtB5_12ContactStore8machines
FN:289,_RNvMs4_NtCsfB8W1BOG4Wp_3x0x8contactsNtB5_12ContactStore9set_trust
FN:230,_RNvNtCsfB8W1BOG4Wp_3x0x8contacts8now_secs
FN:49,_RNvXNtCsfB8W1BOG4Wp_3x0x8contactsNtB2_10TrustLevelNtNtCsl8K0bEFm1U0_4core3fmt7Display3fmt
FN:116,_RNvXs1_NtCsfB8W1BOG4Wp_3x0x8contactsNtB5_12IdentityTypeNtNtCsl8K0bEFm1U0_4core3fmt7Display3fmt
FN:129,_RNvXs2_NtCsfB8W1BOG4Wp_3x0x8contactsNtB5_12IdentityTypeNtNtNtCsl8K0bEFm1U0_4core3str6traits7FromStr8from_str
FN:62,_RNvXs_NtCsfB8W1BOG4Wp_3x0x8contactsNtB4_10TrustLevelNtNtNtCsl8K0bEFm1U0_4core3str6traits7FromStr8from_str
FN:389,_RNCNvMs4_NtCsfB8W1BOG4Wp_3x0x8contactsNtB7_12ContactStore10is_blocked0B9_
FN:381,_RNCNvMs4_NtCsfB8W1BOG4Wp_3x0x8contactsNtB7_12ContactStore10is_trusted0B9_
FN:416,_RNCNvMs4_NtCsfB8W1BOG4Wp_3x0x8contactsNtB7_12ContactStore11add_machine0B9_
FN:428,_RNCNvMs4_NtCsfB8W1BOG4Wp_3x0x8contactsNtB7_12ContactStore11add_machines_0B9_
FN:484,_RNCNvMs4_NtCsfB8W1BOG4Wp_3x0x8contactsNtB7_12ContactStore11pin_machine0B9_
FN:505,_RNCNvMs4_NtCsfB8W1BOG4Wp_3x0x8contactsNtB7_12ContactStore13unpin_machine0B9_
FN:455,_RNCNvMs4_NtCsfB8W1BOG4Wp_3x0x8contactsNtB7_12ContactStore14remove_machine0B9_
FN:524,_RNCNvMs4_NtCsfB8W1BOG4Wp_3x0x8contactsNtB7_12ContactStore17set_identity_type0B9_
FN:564,_RNCNvMs4_NtCsfB8W1BOG4Wp_3x0x8contactsNtB7_12ContactStore4load0B9_
FN:543,_RNCNvMs4_NtCsfB8W1BOG4Wp_3x0x8contactsNtB7_12ContactStore4save0B9_
FN:470,_RNCNvMs4_NtCsfB8W1BOG4Wp_3x0x8contactsNtB7_12ContactStore8machines0B9_
FN:296,_RNCNvMs4_NtCsfB8W1BOG4Wp_3x0x8contactsNtB7_12ContactStore9set_trust0B9_
FN:233,_RNCNvNtCsfB8W1BOG4Wp_3x0x8contacts8now_secs0B5_
FN:81,_RNvMs0_NtCs6t3ktUJwJ8n_3x0x8contactsNtB5_10TrustLevel4rank
FN:576,_RNvMs4_NtCs6t3ktUJwJ8n_3x0x8contactsNtB5_12ContactStore12storage_path
FN:368,_RNvMs4_NtCs6t3ktUJwJ8n_3x0x8contactsNtB5_12ContactStore7get_mut
FN:586,_RNvNtNtCs6t3ktUJwJ8n_3x0x8contacts5tests13test_agent_id
FN:590,_RNvNtNtCs6t3ktUJwJ8n_3x0x8contacts5tests15test_machine_id
FN:785,_RNvNtNtCs6t3ktUJwJ8n_3x0x8contacts5testss_19test_remove_machine
FN:757,_RNvNtNtCs6t3ktUJwJ8n_3x0x8contacts5testss_20test_add_machine_new
FN:831,_RNvNtNtCs6t3ktUJwJ8n_3x0x8contacts5testss_22test_set_identity_type
FN:738,_RNvNtNtCs6t3ktUJwJ8n_3x0x8contacts5testss_22test_trust_level_serde
FN:686,_RNvNtNtCs6t3ktUJwJ8n_3x0x8contacts5testss_23test_contact_store_list
FN:746,_RNvNtNtCs6t3ktUJwJ8n_3x0x8contacts5testss_23test_machine_record_new
FN:725,_RNvNtNtCs6t3ktUJwJ8n_3x0x8contacts5testss_24test_contact_store_touch
FN:994,_RNvNtNtCs6t3ktUJwJ8n_3x0x8contacts5testss_24test_revoke_with_revoker
FN:635,_RNvNtNtCs6t3ktUJwJ8n_3x0x8contacts5testss_26test_identity_type_default
FN:801,_RNvNtNtCs6t3ktUJwJ8n_3x0x8contacts5testss_26test_pin_and_unpin_machine
FN:665,_RNvNtNtCs6t3ktUJwJ8n_3x0x8contacts5testss_28test_contact_store_set_trust
FN:699,_RNvNtNtCs6t3ktUJwJ8n_3x0x8contacts5testss_30test_contact_store_persistence
FN:611,_RNvNtNtCs6t3ktUJwJ8n_3x0x8contacts5testss_30test_trust_level_parse_invalid
FN:844,_RNvNtNtCs6t3ktUJwJ8n_3x0x8contacts5testss_31test_machine_record_persistence
FN:630,_RNvNtNtCs6t3ktUJwJ8n_3x0x8contacts5testss_32test_identity_type_parse_invalid
FN:640,_RNvNtNtCs6t3ktUJwJ8n_3x0x8contacts5testss_33test_contact_store_add_get_remove
FN:1010,_RNvNtNtCs6t3ktUJwJ8n_3x0x8contacts5testss_33test_duplicate_revocation_ignored
FN:678,_RNvNtNtCs6t3ktUJwJ8n_3x0x8contacts5testss_34test_contact_store_default_unknown
FN:918,_RNvNtNtCs6t3ktUJwJ8n_3x0x8contacts5testss_34test_revoke_blocks_future_messages
FN:597,_RNvNtNtCs6t3ktUJwJ8n_3x0x8contacts5testss_34test_trust_level_display_and_parse
FN:616,_RNvNtNtCs6t3ktUJwJ8n_3x0x8contacts5testss_36test_identity_type_display_and_parse
FN:870,_RNvNtNtCs6t3ktUJwJ8n_3x0x8contacts5testss_38test_backward_compat_no_machines_field
FN:936,_RNvNtNtCs6t3ktUJwJ8n_3x0x8contacts5testss_38test_revocations_persist_across_reload
FN:972,_RNvNtNtCs6t3ktUJwJ8n_3x0x8contacts5testss_40test_revoked_key_stays_blocked_after_add
FN:770,_RNvNtNtCs6t3ktUJwJ8n_3x0x8contacts5testss_44test_add_machine_duplicate_updates_last_seen
FN:955,_RNvNtNtCs6t3ktUJwJ8n_3x0x8contacts5testss_49test_revoked_key_cannot_be_unrevoked_by_set_trust
FN:895,_RNCNvNtNtCs6t3ktUJwJ8n_3x0x8contacts5testss_38test_backward_compat_no_machines_field0B7_
FN:389,_RNCNvMs4_NtCs6t3ktUJwJ8n_3x0x8contactsNtB7_12ContactStore10is_blocked0B9_
FN:381,_RNCNvMs4_NtCs6t3ktUJwJ8n_3x0x8contactsNtB7_12ContactStore10is_trusted0B9_
FN:416,_RNCNvMs4_NtCs6t3ktUJwJ8n_3x0x8contactsNtB7_12ContactStore11add_machine0B9_
FN:428,_RNCNvMs4_NtCs6t3ktUJwJ8n_3x0x8contactsNtB7_12ContactStore11add_machines_0B9_
FN:484,_RNCNvMs4_NtCs6t3ktUJwJ8n_3x0x8contactsNtB7_12ContactStore11pin_machine0B9_
FN:505,_RNCNvMs4_NtCs6t3ktUJwJ8n_3x0x8contactsNtB7_12ContactStore13unpin_machine0B9_
FN:455,_RNCNvMs4_NtCs6t3ktUJwJ8n_3x0x8contactsNtB7_12ContactStore14remove_machine0B9_
FN:524,_RNCNvMs4_NtCs6t3ktUJwJ8n_3x0x8contactsNtB7_12ContactStore17set_identity_type0B9_
FN:564,_RNCNvMs4_NtCs6t3ktUJwJ8n_3x0x8contactsNtB7_12ContactStore4load0B9_
FN:543,_RNCNvMs4_NtCs6t3ktUJwJ8n_3x0x8contactsNtB7_12ContactStore4save0B9_
FN:470,_RNCNvMs4_NtCs6t3ktUJwJ8n_3x0x8contactsNtB7_12ContactStore8machines0B9_
FN:296,_RNCNvMs4_NtCs6t3ktUJwJ8n_3x0x8contactsNtB7_12ContactStore9set_trust0B9_
FN:233,_RNCNvNtCs6t3ktUJwJ8n_3x0x8contacts8now_secs0B5_
FN:162,_RNvMs3_NtCs6t3ktUJwJ8n_3x0x8contactsNtB5_13MachineRecord3new
FN:386,_RNvMs4_NtCs6t3ktUJwJ8n_3x0x8contactsNtB5_12ContactStore10is_blocked
FN:353,_RNvMs4_NtCs6t3ktUJwJ8n_3x0x8contactsNtB5_12ContactStore10is_revoked
FN:378,_RNvMs4_NtCs6t3ktUJwJ8n_3x0x8contactsNtB5_12ContactStore10is_trusted
FN:414,_RNvMs4_NtCs6t3ktUJwJ8n_3x0x8contactsNtB5_12ContactStore11add_machine
FN:479,_RNvMs4_NtCs6t3ktUJwJ8n_3x0x8contactsNtB5_12ContactStore11pin_machine
FN:358,_RNvMs4_NtCs6t3ktUJwJ8n_3x0x8contactsNtB5_12ContactStore11revocations
FN:394,_RNvMs4_NtCs6t3ktUJwJ8n_3x0x8contactsNtB5_12ContactStore11trust_level
FN:500,_RNvMs4_NtCs6t3ktUJwJ8n_3x0x8contactsNtB5_12ContactStore13unpin_machine
FN:452,_RNvMs4_NtCs6t3ktUJwJ8n_3x0x8contactsNtB5_12ContactStore14remove_machine
FN:522,_RNvMs4_NtCs6t3ktUJwJ8n_3x0x8contactsNtB5_12ContactStore17set_identity_type
FN:338,_RNvMs4_NtCs6t3ktUJwJ8n_3x0x8contactsNtB5_12ContactStore19revoke_with_revoker
FN:258,_RNvMs4_NtCs6t3ktUJwJ8n_3x0x8contactsNtB5_12ContactStore3add
FN:363,_RNvMs4_NtCs6t3ktUJwJ8n_3x0x8contactsNtB5_12ContactStore3get
FN:242,_RNvMs4_NtCs6t3ktUJwJ8n_3x0x8contactsNtB5_12ContactStore3new
FN:373,_RNvMs4_NtCs6t3ktUJwJ8n_3x0x8contactsNtB5_12ContactStore4list
FN:558,_RNvMs4_NtCs6t3ktUJwJ8n_3x0x8contactsNtB5_12ContactStore4load
FN:537,_RNvMs4_NtCs6t3ktUJwJ8n_3x0x8contactsNtB5_12ContactStore4save
FN:402,_RNvMs4_NtCs6t3ktUJwJ8n_3x0x8contactsNtB5_12ContactStore5touch
FN:277,_RNvMs4_NtCs6t3ktUJwJ8n_3x0x8contactsNtB5_12ContactStore6remove
FN:320,_RNvMs4_NtCs6t3ktUJwJ8n_3x0x8contactsNtB5_12ContactStore6revoke
FN:467,_RNvMs4_NtCs6t3ktUJwJ8n_3x0x8contactsNtB5_12ContactStore8machines
FN:289,_RNvMs4_NtCs6t3ktUJwJ8n_3x0x8contactsNtB5_12ContactStore9set_trust
FN:230,_RNvNtCs6t3ktUJwJ8n_3x0x8contacts8now_secs
FN:49,_RNvXNtCs6t3ktUJwJ8n_3x0x8contactsNtB2_10TrustLevelNtNtCsl8K0bEFm1U0_4core3fmt7Display3fmt
FN:116,_RNvXs1_NtCs6t3ktUJwJ8n_3x0x8contactsNtB5_12IdentityTypeNtNtCsl8K0bEFm1U0_4core3fmt7Display3fmt
FN:129,_RNvXs2_NtCs6t3ktUJwJ8n_3x0x8contactsNtB5_12IdentityTypeNtNtNtCsl8K0bEFm1U0_4core3str6traits7FromStr8from_str
FN:62,_RNvXs_NtCs6t3ktUJwJ8n_3x0x8contactsNtB4_10TrustLevelNtNtNtCsl8K0bEFm1U0_4core3str6traits7FromStr8from_str
FNDA:0,_RNvMs0_NtCsfB8W1BOG4Wp_3x0x8contactsNtB5_10TrustLevel4rank
FNDA:15,_RNvMs3_NtCsfB8W1BOG4Wp_3x0x8contactsNtB5_13MachineRecord3new
FNDA:0,_RNvMs4_NtCsfB8W1BOG4Wp_3x0x8contactsNtB5_12ContactStore10is_blocked
FNDA:0,_RNvMs4_NtCsfB8W1BOG4Wp_3x0x8contactsNtB5_12ContactStore10is_revoked
FNDA:0,_RNvMs4_NtCsfB8W1BOG4Wp_3x0x8contactsNtB5_12ContactStore10is_trusted
FNDA:15,_RNvMs4_NtCsfB8W1BOG4Wp_3x0x8contactsNtB5_12ContactStore11add_machine
FNDA:6,_RNvMs4_NtCsfB8W1BOG4Wp_3x0x8contactsNtB5_12ContactStore11pin_machine
FNDA:0,_RNvMs4_NtCsfB8W1BOG4Wp_3x0x8contactsNtB5_12ContactStore11revocations
FNDA:0,_RNvMs4_NtCsfB8W1BOG4Wp_3x0x8contactsNtB5_12ContactStore11trust_level
FNDA:0,_RNvMs4_NtCsfB8W1BOG4Wp_3x0x8contactsNtB5_12ContactStore12storage_path
FNDA:1,_RNvMs4_NtCsfB8W1BOG4Wp_3x0x8contactsNtB5_12ContactStore13unpin_machine
FNDA:1,_RNvMs4_NtCsfB8W1BOG4Wp_3x0x8contactsNtB5_12ContactStore14remove_machine
FNDA:0,_RNvMs4_NtCsfB8W1BOG4Wp_3x0x8contactsNtB5_12ContactStore17set_identity_type
FNDA:0,_RNvMs4_NtCsfB8W1BOG4Wp_3x0x8contactsNtB5_12ContactStore19revoke_with_revoker
FNDA:780,_RNvMs4_NtCsfB8W1BOG4Wp_3x0x8contactsNtB5_12ContactStore3add
FNDA:1299,_RNvMs4_NtCsfB8W1BOG4Wp_3x0x8contactsNtB5_12ContactStore3get
FNDA:1136,_RNvMs4_NtCsfB8W1BOG4Wp_3x0x8contactsNtB5_12ContactStore3new
FNDA:0,_RNvMs4_NtCsfB8W1BOG4Wp_3x0x8contactsNtB5_12ContactStore4list
FNDA:1136,_RNvMs4_NtCsfB8W1BOG4Wp_3x0x8contactsNtB5_12ContactStore4load
FNDA:803,_RNvMs4_NtCsfB8W1BOG4Wp_3x0x8contactsNtB5_12ContactStore4save
FNDA:0,_RNvMs4_NtCsfB8W1BOG4Wp_3x0x8contactsNtB5_12ContactStore5touch
FNDA:0,_RNvMs4_NtCsfB8W1BOG4Wp_3x0x8contactsNtB5_12ContactStore6remove
FNDA:0,_RNvMs4_NtCsfB8W1BOG4Wp_3x0x8contactsNtB5_12ContactStore6revoke
FNDA:0,_RNvMs4_NtCsfB8W1BOG4Wp_3x0x8contactsNtB5_12ContactStore7get_mut
FNDA:5,_RNvMs4_NtCsfB8W1BOG4Wp_3x0x8contactsNtB5_12ContactStore8machines
FNDA:2,_RNvMs4_NtCsfB8W1BOG4Wp_3x0x8contactsNtB5_12ContactStore9set_trust
FNDA:19,_RNvNtCsfB8W1BOG4Wp_3x0x8contacts8now_secs
FNDA:0,_RNvXNtCsfB8W1BOG4Wp_3x0x8contactsNtB2_10TrustLevelNtNtCsl8K0bEFm1U0_4core3fmt7Display3fmt
FNDA:0,_RNvXs1_NtCsfB8W1BOG4Wp_3x0x8contactsNtB5_12IdentityTypeNtNtCsl8K0bEFm1U0_4core3fmt7Display3fmt
FNDA:0,_RNvXs2_NtCsfB8W1BOG4Wp_3x0x8contactsNtB5_12IdentityTypeNtNtNtCsl8K0bEFm1U0_4core3str6traits7FromStr8from_str
FNDA:0,_RNvXs_NtCsfB8W1BOG4Wp_3x0x8contactsNtB4_10TrustLevelNtNtNtCsl8K0bEFm1U0_4core3str6traits7FromStr8from_str
FNDA:0,_RNCNvMs4_NtCsfB8W1BOG4Wp_3x0x8contactsNtB7_12ContactStore10is_blocked0B9_
FNDA:0,_RNCNvMs4_NtCsfB8W1BOG4Wp_3x0x8contactsNtB7_12ContactStore10is_trusted0B9_
FNDA:2,_RNCNvMs4_NtCsfB8W1BOG4Wp_3x0x8contactsNtB7_12ContactStore11add_machine0B9_
FNDA:5,_RNCNvMs4_NtCsfB8W1BOG4Wp_3x0x8contactsNtB7_12ContactStore11add_machines_0B9_
FNDA:6,_RNCNvMs4_NtCsfB8W1BOG4Wp_3x0x8contactsNtB7_12ContactStore11pin_machine0B9_
FNDA:1,_RNCNvMs4_NtCsfB8W1BOG4Wp_3x0x8contactsNtB7_12ContactStore13unpin_machine0B9_
FNDA:2,_RNCNvMs4_NtCsfB8W1BOG4Wp_3x0x8contactsNtB7_12ContactStore14remove_machine0B9_
FNDA:0,_RNCNvMs4_NtCsfB8W1BOG4Wp_3x0x8contactsNtB7_12ContactStore17set_identity_type0B9_
FNDA:0,_RNCNvMs4_NtCsfB8W1BOG4Wp_3x0x8contactsNtB7_12ContactStore4load0B9_
FNDA:0,_RNCNvMs4_NtCsfB8W1BOG4Wp_3x0x8contactsNtB7_12ContactStore4save0B9_
FNDA:5,_RNCNvMs4_NtCsfB8W1BOG4Wp_3x0x8contactsNtB7_12ContactStore8machines0B9_
FNDA:0,_RNCNvMs4_NtCsfB8W1BOG4Wp_3x0x8contactsNtB7_12ContactStore9set_trust0B9_
FNDA:19,_RNCNvNtCsfB8W1BOG4Wp_3x0x8contacts8now_secs0B5_
FNDA:0,_RNvMs0_NtCs6t3ktUJwJ8n_3x0x8contactsNtB5_10TrustLevel4rank
FNDA:0,_RNvMs4_NtCs6t3ktUJwJ8n_3x0x8contactsNtB5_12ContactStore12storage_path
FNDA:0,_RNvMs4_NtCs6t3ktUJwJ8n_3x0x8contactsNtB5_12ContactStore7get_mut
FNDA:21,_RNvNtNtCs6t3ktUJwJ8n_3x0x8contacts5tests13test_agent_id
FNDA:7,_RNvNtNtCs6t3ktUJwJ8n_3x0x8contacts5tests15test_machine_id
FNDA:1,_RNvNtNtCs6t3ktUJwJ8n_3x0x8contacts5testss_19test_remove_machine
FNDA:1,_RNvNtNtCs6t3ktUJwJ8n_3x0x8contacts5testss_20test_add_machine_new
FNDA:1,_RNvNtNtCs6t3ktUJwJ8n_3x0x8contacts5testss_22test_set_identity_type
FNDA:1,_RNvNtNtCs6t3ktUJwJ8n_3x0x8contacts5testss_22test_trust_level_serde
FNDA:1,_RNvNtNtCs6t3ktUJwJ8n_3x0x8contacts5testss_23test_contact_store_list
FNDA:1,_RNvNtNtCs6t3ktUJwJ8n_3x0x8contacts5testss_23test_machine_record_new
FNDA:1,_RNvNtNtCs6t3ktUJwJ8n_3x0x8contacts5testss_24test_contact_store_touch
FNDA:1,_RNvNtNtCs6t3ktUJwJ8n_3x0x8contacts5testss_24test_revoke_with_revoker
FNDA:1,_RNvNtNtCs6t3ktUJwJ8n_3x0x8contacts5testss_26test_identity_type_default
FNDA:1,_RNvNtNtCs6t3ktUJwJ8n_3x0x8contacts5testss_26test_pin_and_unpin_machine
FNDA:1,_RNvNtNtCs6t3ktUJwJ8n_3x0x8contacts5testss_28test_contact_store_set_trust
FNDA:1,_RNvNtNtCs6t3ktUJwJ8n_3x0x8contacts5testss_30test_contact_store_persistence
FNDA:1,_RNvNtNtCs6t3ktUJwJ8n_3x0x8contacts5testss_30test_trust_level_parse_invalid
FNDA:1,_RNvNtNtCs6t3ktUJwJ8n_3x0x8contacts5testss_31test_machine_record_persistence
FNDA:1,_RNvNtNtCs6t3ktUJwJ8n_3x0x8contacts5testss_32test_identity_type_parse_invalid
FNDA:1,_RNvNtNtCs6t3ktUJwJ8n_3x0x8contacts5testss_33test_contact_store_add_get_remove
FNDA:1,_RNvNtNtCs6t3ktUJwJ8n_3x0x8contacts5testss_33test_duplicate_revocation_ignored
FNDA:1,_RNvNtNtCs6t3ktUJwJ8n_3x0x8contacts5testss_34test_contact_store_default_unknown
FNDA:1,_RNvNtNtCs6t3ktUJwJ8n_3x0x8contacts5testss_34test_revoke_blocks_future_messages
FNDA:1,_RNvNtNtCs6t3ktUJwJ8n_3x0x8contacts5testss_34test_trust_level_display_and_parse
FNDA:1,_RNvNtNtCs6t3ktUJwJ8n_3x0x8contacts5testss_36test_identity_type_display_and_parse
FNDA:1,_RNvNtNtCs6t3ktUJwJ8n_3x0x8contacts5testss_38test_backward_compat_no_machines_field
FNDA:1,_RNvNtNtCs6t3ktUJwJ8n_3x0x8contacts5testss_38test_revocations_persist_across_reload
FNDA:1,_RNvNtNtCs6t3ktUJwJ8n_3x0x8contacts5testss_40test_revoked_key_stays_blocked_after_add
FNDA:1,_RNvNtNtCs6t3ktUJwJ8n_3x0x8contacts5testss_44test_add_machine_duplicate_updates_last_seen
FNDA:1,_RNvNtNtCs6t3ktUJwJ8n_3x0x8contacts5testss_49test_revoked_key_cannot_be_unrevoked_by_set_trust
FNDA:1,_RNCNvNtNtCs6t3ktUJwJ8n_3x0x8contacts5testss_38test_backward_compat_no_machines_field0B7_
FNDA:6,_RNCNvMs4_NtCs6t3ktUJwJ8n_3x0x8contactsNtB7_12ContactStore10is_blocked0B9_
FNDA:3,_RNCNvMs4_NtCs6t3ktUJwJ8n_3x0x8contactsNtB7_12ContactStore10is_trusted0B9_
FNDA:5,_RNCNvMs4_NtCs6t3ktUJwJ8n_3x0x8contactsNtB7_12ContactStore11add_machine0B9_
FNDA:1,_RNCNvMs4_NtCs6t3ktUJwJ8n_3x0x8contactsNtB7_12ContactStore11add_machines_0B9_
FNDA:7,_RNCNvMs4_NtCs6t3ktUJwJ8n_3x0x8contactsNtB7_12ContactStore11pin_machine0B9_
FNDA:1,_RNCNvMs4_NtCs6t3ktUJwJ8n_3x0x8contactsNtB7_12ContactStore13unpin_machine0B9_
FNDA:1,_RNCNvMs4_NtCs6t3ktUJwJ8n_3x0x8contactsNtB7_12ContactStore14remove_machine0B9_
FNDA:1,_RNCNvMs4_NtCs6t3ktUJwJ8n_3x0x8contactsNtB7_12ContactStore17set_identity_type0B9_
FNDA:0,_RNCNvMs4_NtCs6t3ktUJwJ8n_3x0x8contactsNtB7_12ContactStore4load0B9_
FNDA:0,_RNCNvMs4_NtCs6t3ktUJwJ8n_3x0x8contactsNtB7_12ContactStore4save0B9_
FNDA:7,_RNCNvMs4_NtCs6t3ktUJwJ8n_3x0x8contactsNtB7_12ContactStore8machines0B9_
FNDA:15,_RNCNvMs4_NtCs6t3ktUJwJ8n_3x0x8contactsNtB7_12ContactStore9set_trust0B9_
FNDA:40,_RNCNvNtCs6t3ktUJwJ8n_3x0x8contacts8now_secs0B5_
FNDA:11,_RNvMs3_NtCs6t3ktUJwJ8n_3x0x8contactsNtB5_13MachineRecord3new
FNDA:6,_RNvMs4_NtCs6t3ktUJwJ8n_3x0x8contactsNtB5_12ContactStore10is_blocked
FNDA:6,_RNvMs4_NtCs6t3ktUJwJ8n_3x0x8contactsNtB5_12ContactStore10is_revoked
FNDA:3,_RNvMs4_NtCs6t3ktUJwJ8n_3x0x8contactsNtB5_12ContactStore10is_trusted
FNDA:10,_RNvMs4_NtCs6t3ktUJwJ8n_3x0x8contactsNtB5_12ContactStore11add_machine
FNDA:7,_RNvMs4_NtCs6t3ktUJwJ8n_3x0x8contactsNtB5_12ContactStore11pin_machine
FNDA:5,_RNvMs4_NtCs6t3ktUJwJ8n_3x0x8contactsNtB5_12ContactStore11revocations
FNDA:4,_RNvMs4_NtCs6t3ktUJwJ8n_3x0x8contactsNtB5_12ContactStore11trust_level
FNDA:1,_RNvMs4_NtCs6t3ktUJwJ8n_3x0x8contactsNtB5_12ContactStore13unpin_machine
FNDA:2,_RNvMs4_NtCs6t3ktUJwJ8n_3x0x8contactsNtB5_12ContactStore14remove_machine
FNDA:1,_RNvMs4_NtCs6t3ktUJwJ8n_3x0x8contactsNtB5_12ContactStore17set_identity_type
FNDA:1,_RNvMs4_NtCs6t3ktUJwJ8n_3x0x8contactsNtB5_12ContactStore19revoke_with_revoker
FNDA:11,_RNvMs4_NtCs6t3ktUJwJ8n_3x0x8contactsNtB5_12ContactStore3add
FNDA:29,_RNvMs4_NtCs6t3ktUJwJ8n_3x0x8contactsNtB5_12ContactStore3get
FNDA:60,_RNvMs4_NtCs6t3ktUJwJ8n_3x0x8contactsNtB5_12ContactStore3new
FNDA:1,_RNvMs4_NtCs6t3ktUJwJ8n_3x0x8contactsNtB5_12ContactStore4list
FNDA:60,_RNvMs4_NtCs6t3ktUJwJ8n_3x0x8contactsNtB5_12ContactStore4load
FNDA:53,_RNvMs4_NtCs6t3ktUJwJ8n_3x0x8contactsNtB5_12ContactStore4save
FNDA:1,_RNvMs4_NtCs6t3ktUJwJ8n_3x0x8contactsNtB5_12ContactStore5touch
FNDA:1,_RNvMs4_NtCs6t3ktUJwJ8n_3x0x8contactsNtB5_12ContactStore6remove
FNDA:6,_RNvMs4_NtCs6t3ktUJwJ8n_3x0x8contactsNtB5_12ContactStore6revoke
FNDA:7,_RNvMs4_NtCs6t3ktUJwJ8n_3x0x8contactsNtB5_12ContactStore8machines
FNDA:21,_RNvMs4_NtCs6t3ktUJwJ8n_3x0x8contactsNtB5_12ContactStore9set_trust
FNDA:40,_RNvNtCs6t3ktUJwJ8n_3x0x8contacts8now_secs
FNDA:4,_RNvXNtCs6t3ktUJwJ8n_3x0x8contactsNtB2_10TrustLevelNtNtCsl8K0bEFm1U0_4core3fmt7Display3fmt
FNDA:4,_RNvXs1_NtCs6t3ktUJwJ8n_3x0x8contactsNtB5_12IdentityTypeNtNtCsl8K0bEFm1U0_4core3fmt7Display3fmt
FNDA:5,_RNvXs2_NtCs6t3ktUJwJ8n_3x0x8contactsNtB5_12IdentityTypeNtNtNtCsl8K0bEFm1U0_4core3str6traits7FromStr8from_str
FNDA:5,_RNvXs_NtCs6t3ktUJwJ8n_3x0x8contactsNtB4_10TrustLevelNtNtNtCsl8K0bEFm1U0_4core3str6traits7FromStr8from_str
FNF:73
FNH:68
DA:49,4
DA:50,4
DA:51,1
DA:52,1
DA:53,1
DA:54,1
DA:56,4
DA:62,5
DA:63,5
DA:64,5
DA:65,4
DA:66,3
DA:67,2
DA:68,1
DA:69,1
DA:70,1
DA:72,5
DA:81,0
DA:82,0
DA:83,0
DA:84,0
DA:85,0
DA:86,0
DA:88,0
DA:116,4
DA:117,4
DA:118,1
DA:119,1
DA:120,1
DA:121,1
DA:123,4
DA:129,5
DA:130,5
DA:131,5
DA:132,4
DA:133,3
DA:134,2
DA:135,1
DA:137,5
DA:162,26
DA:163,26
DA:164,26
DA:165,26
DA:166,26
DA:167,26
DA:168,26
DA:169,26
DA:170,26
DA:171,26
DA:230,59
DA:231,59
DA:232,59
DA:233,59
DA:234,59
DA:235,59
DA:242,1196
DA:243,1196
DA:244,1196
DA:245,1196
DA:246,1196
DA:247,1196
DA:248,1196
DA:250,1196
DA:251,1196
DA:252,1196
DA:258,791
DA:259,791
DA:260,1
DA:261,790
DA:264,791
DA:265,400
DA:266,396
DA:267,396
DA:268,396
DA:269,791
DA:270,791
DA:271,791
DA:277,1
DA:278,1
DA:279,1
DA:280,1
DA:281,1
DA:282,1
DA:283,1
DA:289,23
DA:290,23
DA:291,7
DA:293,16
DA:295,23
DA:296,15
DA:297,15
DA:298,15
DA:299,15
DA:300,15
DA:301,15
DA:302,15
DA:303,15
DA:304,23
DA:307,23
DA:308,12
DA:309,12
DA:310,12
DA:311,12
DA:312,23
DA:313,23
DA:320,6
DA:321,6
DA:322,1
DA:323,5
DA:324,5
DA:325,5
DA:326,5
DA:327,5
DA:328,5
DA:329,5
DA:330,5
DA:331,5
DA:332,6
DA:338,1
DA:339,1
DA:340,0
DA:341,1
DA:342,1
DA:343,1
DA:344,1
DA:345,1
DA:346,1
DA:347,1
DA:348,1
DA:349,1
DA:350,1
DA:353,6
DA:354,6
DA:355,6
DA:358,5
DA:359,5
DA:360,5
DA:363,1328
DA:364,1328
DA:365,1328
DA:368,0
DA:369,0
DA:370,0
DA:373,1
DA:374,1
DA:375,1
DA:378,3
DA:379,3
DA:380,3
DA:381,3
DA:382,3
DA:383,3
DA:386,6
DA:387,6
DA:388,6
DA:389,6
DA:390,6
DA:391,6
DA:394,4
DA:395,4
DA:396,4
DA:397,4
DA:398,4
DA:399,4
DA:402,1
DA:403,1
DA:404,1
DA:405,1
DA:406,1
DA:407,1
DA:414,25
DA:415,25
DA:416,7
DA:417,7
DA:418,7
DA:419,7
DA:420,7
DA:421,7
DA:422,7
DA:423,7
DA:425,25
DA:426,25
DA:427,25
DA:428,25
DA:430,3
DA:431,3
DA:432,3
DA:433,1
DA:434,1
DA:435,1
DA:436,1
DA:437,2
DA:438,3
DA:439,1
DA:440,2
DA:441,3
DA:443,22
DA:444,22
DA:445,22
DA:447,25
DA:452,3
DA:453,3
DA:454,3
DA:455,3
DA:456,3
DA:457,3
DA:458,2
DA:459,2
DA:460,3
DA:462,0
DA:464,3
DA:467,12
DA:468,12
DA:469,12
DA:470,12
DA:471,12
DA:472,12
DA:479,13
DA:480,13
DA:481,13
DA:482,13
DA:483,13
DA:484,13
DA:486,12
DA:487,12
DA:488,12
DA:489,12
DA:490,1
DA:491,0
DA:492,1
DA:493,13
DA:500,2
DA:501,2
DA:502,2
DA:503,2
DA:504,2
DA:505,2
DA:507,2
DA:509,2
DA:510,2
DA:511,2
DA:512,2
DA:513,2
DA:514,0
DA:515,0
DA:516,0
DA:517,2
DA:522,1
DA:523,1
DA:524,1
DA:525,1
DA:526,1
DA:527,1
DA:528,1
DA:529,1
DA:530,1
DA:531,1
DA:532,1
DA:533,1
DA:534,1
DA:537,856
DA:538,856
DA:539,856
DA:540,856
DA:541,856
DA:542,856
DA:543,856
DA:546,856
DA:547,856
DA:548,0
DA:551,856
DA:552,856
DA:553,856
DA:554,850
DA:555,856
DA:558,1196
DA:559,1196
DA:560,69
DA:561,1127
DA:562,1127
DA:563,1127
DA:564,1127
DA:565,2797386
DA:566,2797386
DA:567,2797386
DA:568,1127
DA:569,1
DA:570,1
DA:571,1127
DA:572,1127
DA:573,1196
DA:576,0
DA:577,0
DA:578,0
DA:586,21
DA:587,21
DA:588,21
DA:590,7
DA:592,7
DA:593,7
DA:594,7
DA:597,1
DA:598,4
DA:599,1
DA:600,1
DA:601,1
DA:602,1
DA:603,1
DA:604,4
DA:605,4
DA:606,4
DA:608,1
DA:611,1
DA:612,1
DA:613,1
DA:616,1
DA:617,4
DA:618,1
DA:619,1
DA:620,1
DA:621,1
DA:622,1
DA:623,4
DA:624,4
DA:625,4
DA:627,1
DA:630,1
DA:631,1
DA:632,1
DA:635,1
DA:636,1
DA:637,1
DA:640,1
DA:641,1
DA:642,1
DA:644,1
DA:645,1
DA:646,1
DA:647,1
DA:648,1
DA:649,1
DA:650,1
DA:651,1
DA:652,1
DA:653,1
DA:655,1
DA:656,1
DA:657,1
DA:659,1
DA:660,1
DA:661,1
DA:662,1
DA:665,1
DA:666,1
DA:667,1
DA:669,1
DA:670,1
DA:671,1
DA:673,1
DA:674,1
DA:675,1
DA:678,1
DA:679,1
DA:680,1
DA:681,1
DA:682,1
DA:683,1
DA:686,1
DA:687,1
DA:688,1
DA:690,1
DA:691,1
DA:692,1
DA:693,1
DA:695,1
DA:696,1
DA:699,1
DA:700,1
DA:701,1
DA:703,1
DA:704,1
DA:705,1
DA:706,1
DA:707,1
DA:708,1
DA:709,1
DA:710,1
DA:711,1
DA:712,1
DA:713,1
DA:714,1
DA:715,1
DA:718,1
DA:719,1
DA:720,1
DA:721,1
DA:722,1
DA:725,1
DA:726,1
DA:727,1
DA:729,1
DA:730,1
DA:731,1
DA:733,1
DA:734,1
DA:735,1
DA:738,1
DA:739,1
DA:740,1
DA:741,1
DA:742,1
DA:743,1
DA:746,1
DA:747,1
DA:748,1
DA:749,1
DA:750,1
DA:751,1
DA:752,1
DA:753,1
DA:754,1
DA:757,1
DA:758,1
DA:759,1
DA:761,1
DA:762,1
DA:763,1
DA:764,1
DA:765,1
DA:766,1
DA:767,1
DA:770,1
DA:771,1
DA:772,1
DA:774,1
DA:775,1
DA:777,1
DA:778,1
DA:779,1
DA:780,1
DA:781,1
DA:782,1
DA:785,1
DA:786,1
DA:787,1
DA:789,1
DA:790,1
DA:792,1
DA:793,1
DA:794,1
DA:797,1
DA:798,1
DA:801,1
DA:802,1
DA:803,1
DA:805,1
DA:806,1
DA:808,1
DA:809,1
DA:810,1
DA:811,1
DA:814,1
DA:817,1
DA:818,1
DA:821,1
DA:822,1
DA:824,1
DA:825,1
DA:828,1
DA:831,1
DA:832,1
DA:833,1
DA:835,1
DA:836,1
DA:837,1
DA:838,1
DA:841,1
DA:844,1
DA:845,1
DA:846,1
DA:848,1
DA:849,1
DA:851,1
DA:852,1
DA:853,1
DA:854,1
DA:855,1
DA:857,1
DA:858,1
DA:859,1
DA:860,1
DA:861,1
DA:862,1
DA:863,1
DA:864,1
DA:867,1
DA:870,1
DA:873,1
DA:874,1
DA:876,1
DA:877,1
DA:878,1
DA:879,1
DA:880,1
DA:881,1
DA:882,1
DA:883,1
DA:884,1
DA:885,1
DA:886,1
DA:887,1
DA:888,1
DA:889,1
DA:892,1
DA:893,1
DA:894,1
DA:895,1
DA:896,1
DA:897,1
DA:898,1
DA:899,1
DA:900,1
DA:902,0
DA:903,1
DA:904,1
DA:906,1
DA:907,1
DA:908,1
DA:909,1
DA:910,1
DA:911,1
DA:918,1
DA:919,1
DA:920,1
DA:922,1
DA:923,1
DA:924,1
DA:925,1
DA:927,1
DA:929,1
DA:930,1
DA:931,1
DA:932,1
DA:933,1
DA:936,1
DA:937,1
DA:938,1
DA:940,1
DA:941,1
DA:942,1
DA:943,1
DA:944,1
DA:945,1
DA:947,1
DA:948,1
DA:949,1
DA:950,1
DA:951,1
DA:952,1
DA:955,1
DA:956,1
DA:957,1
DA:959,1
DA:960,1
DA:961,1
DA:964,1
DA:966,1
DA:967,1
DA:968,1
DA:969,1
DA:972,1
DA:973,1
DA:974,1
DA:976,1
DA:977,1
DA:979,1
DA:980,1
DA:981,1
DA:982,1
DA:983,1
DA:984,1
DA:985,1
DA:986,1
DA:987,1
DA:989,1
DA:990,1
DA:991,1
DA:994,1
DA:995,1
DA:996,1
DA:998,1
DA:999,1
DA:1001,1
DA:1003,1
DA:1004,1
DA:1005,1
DA:1006,1
DA:1007,1
DA:1010,1
DA:1011,1
DA:1012,1
DA:1014,1
DA:1015,1
DA:1016,1
DA:1018,1
DA:1019,1
DA:1020,1
BRF:0
BRH:0
LF:618
LH:594
end_of_record
SF:/Users/davidirvine/Desktop/Devel/projects/x0x/src/crdt/checkbox.rs
FN:164,_RNvMs_NtNtCsfB8W1BOG4Wp_3x0x4crdt8checkboxNtB4_13CheckboxState10claimed_by
FN:149,_RNvMs_NtNtCsfB8W1BOG4Wp_3x0x4crdt8checkboxNtB4_13CheckboxState10is_claimed
FN:219,_RNvMs_NtNtCsfB8W1BOG4Wp_3x0x4crdt8checkboxNtB4_13CheckboxState18transition_to_done
FN:194,_RNvMs_NtNtCsfB8W1BOG4Wp_3x0x4crdt8checkboxNtB4_13CheckboxState21transition_to_claimed
FN:108,_RNvMs_NtNtCsfB8W1BOG4Wp_3x0x4crdt8checkboxNtB4_13CheckboxState5claim
FN:155,_RNvMs_NtNtCsfB8W1BOG4Wp_3x0x4crdt8checkboxNtB4_13CheckboxState7is_done
FN:134,_RNvMs_NtNtCsfB8W1BOG4Wp_3x0x4crdt8checkboxNtB4_13CheckboxState8complete
FN:143,_RNvMs_NtNtCsfB8W1BOG4Wp_3x0x4crdt8checkboxNtB4_13CheckboxState8is_empty
FN:176,_RNvMs_NtNtCsfB8W1BOG4Wp_3x0x4crdt8checkboxNtB4_13CheckboxState9timestamp
FN:75,_RNvXNtNtCsfB8W1BOG4Wp_3x0x4crdt8checkboxNtB2_13CheckboxStateNtNtCsl8K0bEFm1U0_4core3fmt7Display3fmt
FN:238,_RNvXs0_NtNtCsfB8W1BOG4Wp_3x0x4crdt8checkboxNtB5_13CheckboxStateNtNtCsl8K0bEFm1U0_4core3cmp3Ord3cmp
FN:279,_RNvXs1_NtNtCsfB8W1BOG4Wp_3x0x4crdt8checkboxNtB5_13CheckboxStateNtNtCsl8K0bEFm1U0_4core3cmp10PartialOrd11partial_cmp
FN:75,_RNvXNtNtCs6t3ktUJwJ8n_3x0x4crdt8checkboxNtB2_13CheckboxStateNtNtCsl8K0bEFm1U0_4core3fmt7Display3fmt
FN:288,_RNvNtNtNtCs6t3ktUJwJ8n_3x0x4crdt8checkbox5tests5agent
FN:441,_RNvNtNtNtCs6t3ktUJwJ8n_3x0x4crdt8checkbox5testss_22test_checkbox_equality
FN:397,_RNvNtNtNtCs6t3ktUJwJ8n_3x0x4crdt8checkbox5testss_28test_checkbox_ord_by_variant
FN:473,_RNvNtNtNtCs6t3ktUJwJ8n_3x0x4crdt8checkbox5testss_28test_serialization_roundtrip
FN:409,_RNvNtNtNtCs6t3ktUJwJ8n_3x0x4crdt8checkbox5testss_30test_checkbox_ord_by_timestamp
FN:309,_RNvNtNtNtCs6t3ktUJwJ8n_3x0x4crdt8checkbox5testss_30test_checkbox_state_predicates
FN:293,_RNvNtNtNtCs6t3ktUJwJ8n_3x0x4crdt8checkbox5testss_32test_checkbox_state_constructors
FN:455,_RNvNtNtNtCs6t3ktUJwJ8n_3x0x4crdt8checkbox5testss_33test_concurrent_claims_resolution
FN:380,_RNvNtNtNtCs6t3ktUJwJ8n_3x0x4crdt8checkbox5testss_33test_invalid_transition_from_done
FN:359,_RNvNtNtNtCs6t3ktUJwJ8n_3x0x4crdt8checkbox5testss_37test_invalid_transition_empty_to_done
FN:342,_RNvNtNtNtCs6t3ktUJwJ8n_3x0x4crdt8checkbox5testss_37test_valid_transition_claimed_to_done
FN:423,_RNvNtNtNtCs6t3ktUJwJ8n_3x0x4crdt8checkbox5testss_38test_checkbox_ord_by_agent_id_tiebreak
FN:331,_RNvNtNtNtCs6t3ktUJwJ8n_3x0x4crdt8checkbox5testss_38test_valid_transition_empty_to_claimed
FN:369,_RNvNtNtNtCs6t3ktUJwJ8n_3x0x4crdt8checkbox5testss_42test_invalid_transition_claimed_to_claimed
FN:164,_RNvMs_NtNtCs6t3ktUJwJ8n_3x0x4crdt8checkboxNtB4_13CheckboxState10claimed_by
FN:149,_RNvMs_NtNtCs6t3ktUJwJ8n_3x0x4crdt8checkboxNtB4_13CheckboxState10is_claimed
FN:219,_RNvMs_NtNtCs6t3ktUJwJ8n_3x0x4crdt8checkboxNtB4_13CheckboxState18transition_to_done
FN:194,_RNvMs_NtNtCs6t3ktUJwJ8n_3x0x4crdt8checkboxNtB4_13CheckboxState21transition_to_claimed
FN:108,_RNvMs_NtNtCs6t3ktUJwJ8n_3x0x4crdt8checkboxNtB4_13CheckboxState5claim
FN:155,_RNvMs_NtNtCs6t3ktUJwJ8n_3x0x4crdt8checkboxNtB4_13CheckboxState7is_done
FN:134,_RNvMs_NtNtCs6t3ktUJwJ8n_3x0x4crdt8checkboxNtB4_13CheckboxState8complete
FN:143,_RNvMs_NtNtCs6t3ktUJwJ8n_3x0x4crdt8checkboxNtB4_13CheckboxState8is_empty
FN:176,_RNvMs_NtNtCs6t3ktUJwJ8n_3x0x4crdt8checkboxNtB4_13CheckboxState9timestamp
FN:238,_RNvXs0_NtNtCs6t3ktUJwJ8n_3x0x4crdt8checkboxNtB5_13CheckboxStateNtNtCsl8K0bEFm1U0_4core3cmp3Ord3cmp
FN:279,_RNvXs1_NtNtCs6t3ktUJwJ8n_3x0x4crdt8checkboxNtB5_13CheckboxStateNtNtCsl8K0bEFm1U0_4core3cmp10PartialOrd11partial_cmp
FNDA:4,_RNvMs_NtNtCsfB8W1BOG4Wp_3x0x4crdt8checkboxNtB4_13CheckboxState10claimed_by
FNDA:1075,_RNvMs_NtNtCsfB8W1BOG4Wp_3x0x4crdt8checkboxNtB4_13CheckboxState10is_claimed
FNDA:0,_RNvMs_NtNtCsfB8W1BOG4Wp_3x0x4crdt8checkboxNtB4_13CheckboxState18transition_to_done
FNDA:0,_RNvMs_NtNtCsfB8W1BOG4Wp_3x0x4crdt8checkboxNtB4_13CheckboxState21transition_to_claimed
FNDA:256,_RNvMs_NtNtCsfB8W1BOG4Wp_3x0x4crdt8checkboxNtB4_13CheckboxState5claim
FNDA:2669,_RNvMs_NtNtCsfB8W1BOG4Wp_3x0x4crdt8checkboxNtB4_13CheckboxState7is_done
FNDA:256,_RNvMs_NtNtCsfB8W1BOG4Wp_3x0x4crdt8checkboxNtB4_13CheckboxState8complete
FNDA:272,_RNvMs_NtNtCsfB8W1BOG4Wp_3x0x4crdt8checkboxNtB4_13CheckboxState8is_empty
FNDA:0,_RNvMs_NtNtCsfB8W1BOG4Wp_3x0x4crdt8checkboxNtB4_13CheckboxState9timestamp
FNDA:0,_RNvXNtNtCsfB8W1BOG4Wp_3x0x4crdt8checkboxNtB2_13CheckboxStateNtNtCsl8K0bEFm1U0_4core3fmt7Display3fmt
FNDA:11,_RNvXs0_NtNtCsfB8W1BOG4Wp_3x0x4crdt8checkboxNtB5_13CheckboxStateNtNtCsl8K0bEFm1U0_4core3cmp3Ord3cmp
FNDA:0,_RNvXs1_NtNtCsfB8W1BOG4Wp_3x0x4crdt8checkboxNtB5_13CheckboxStateNtNtCsl8K0bEFm1U0_4core3cmp10PartialOrd11partial_cmp
FNDA:0,_RNvXNtNtCs6t3ktUJwJ8n_3x0x4crdt8checkboxNtB2_13CheckboxStateNtNtCsl8K0bEFm1U0_4core3fmt7Display3fmt
FNDA:19,_RNvNtNtNtCs6t3ktUJwJ8n_3x0x4crdt8checkbox5tests5agent
FNDA:1,_RNvNtNtNtCs6t3ktUJwJ8n_3x0x4crdt8checkbox5testss_22test_checkbox_equality
FNDA:1,_RNvNtNtNtCs6t3ktUJwJ8n_3x0x4crdt8checkbox5testss_28test_checkbox_ord_by_variant
FNDA:1,_RNvNtNtNtCs6t3ktUJwJ8n_3x0x4crdt8checkbox5testss_28test_serialization_roundtrip
FNDA:1,_RNvNtNtNtCs6t3ktUJwJ8n_3x0x4crdt8checkbox5testss_30test_checkbox_ord_by_timestamp
FNDA:1,_RNvNtNtNtCs6t3ktUJwJ8n_3x0x4crdt8checkbox5testss_30test_checkbox_state_predicates
FNDA:1,_RNvNtNtNtCs6t3ktUJwJ8n_3x0x4crdt8checkbox5testss_32test_checkbox_state_constructors
FNDA:1,_RNvNtNtNtCs6t3ktUJwJ8n_3x0x4crdt8checkbox5testss_33test_concurrent_claims_resolution
FNDA:1,_RNvNtNtNtCs6t3ktUJwJ8n_3x0x4crdt8checkbox5testss_33test_invalid_transition_from_done
FNDA:1,_RNvNtNtNtCs6t3ktUJwJ8n_3x0x4crdt8checkbox5testss_37test_invalid_transition_empty_to_done
FNDA:1,_RNvNtNtNtCs6t3ktUJwJ8n_3x0x4crdt8checkbox5testss_37test_valid_transition_claimed_to_done
FNDA:1,_RNvNtNtNtCs6t3ktUJwJ8n_3x0x4crdt8checkbox5testss_38test_checkbox_ord_by_agent_id_tiebreak
FNDA:1,_RNvNtNtNtCs6t3ktUJwJ8n_3x0x4crdt8checkbox5testss_38test_valid_transition_empty_to_claimed
FNDA:1,_RNvNtNtNtCs6t3ktUJwJ8n_3x0x4crdt8checkbox5testss_42test_invalid_transition_claimed_to_claimed
FNDA:9,_RNvMs_NtNtCs6t3ktUJwJ8n_3x0x4crdt8checkboxNtB4_13CheckboxState10claimed_by
FNDA:27,_RNvMs_NtNtCs6t3ktUJwJ8n_3x0x4crdt8checkboxNtB4_13CheckboxState10is_claimed
FNDA:4,_RNvMs_NtNtCs6t3ktUJwJ8n_3x0x4crdt8checkboxNtB4_13CheckboxState18transition_to_done
FNDA:3,_RNvMs_NtNtCs6t3ktUJwJ8n_3x0x4crdt8checkboxNtB4_13CheckboxState21transition_to_claimed
FNDA:16,_RNvMs_NtNtCs6t3ktUJwJ8n_3x0x4crdt8checkboxNtB4_13CheckboxState5claim
FNDA:60,_RNvMs_NtNtCs6t3ktUJwJ8n_3x0x4crdt8checkboxNtB4_13CheckboxState7is_done
FNDA:11,_RNvMs_NtNtCs6t3ktUJwJ8n_3x0x4crdt8checkboxNtB4_13CheckboxState8complete
FNDA:12,_RNvMs_NtNtCs6t3ktUJwJ8n_3x0x4crdt8checkboxNtB4_13CheckboxState8is_empty
FNDA:5,_RNvMs_NtNtCs6t3ktUJwJ8n_3x0x4crdt8checkboxNtB4_13CheckboxState9timestamp
FNDA:11,_RNvXs0_NtNtCs6t3ktUJwJ8n_3x0x4crdt8checkboxNtB5_13CheckboxStateNtNtCsl8K0bEFm1U0_4core3cmp3Ord3cmp
FNDA:9,_RNvXs1_NtNtCs6t3ktUJwJ8n_3x0x4crdt8checkboxNtB5_13CheckboxStateNtNtCsl8K0bEFm1U0_4core3cmp10PartialOrd11partial_cmp
FNF:26
FNH:25
DA:75,0
DA:76,0
DA:77,0
DA:78,0
DA:79,0
DA:81,0
DA:82,0
DA:85,0
DA:108,272
DA:109,272
DA:110,272
DA:111,272
DA:112,272
DA:113,272
DA:134,267
DA:135,267
DA:136,267
DA:137,267
DA:138,267
DA:139,267
DA:143,284
DA:144,284
DA:145,284
DA:149,1102
DA:150,1102
DA:151,1102
DA:155,2729
DA:156,2729
DA:157,2729
DA:164,13
DA:165,13
DA:166,1
DA:167,12
DA:169,13
DA:176,5
DA:177,5
DA:178,1
DA:179,4
DA:181,5
DA:194,3
DA:195,3
DA:196,1
DA:197,1
DA:198,1
DA:199,1
DA:201,1
DA:203,1
DA:204,1
DA:206,3
DA:219,4
DA:220,4
DA:221,1
DA:222,2
DA:223,2
DA:224,2
DA:225,2
DA:226,1
DA:228,4
DA:238,22
DA:239,22
DA:240,0
DA:241,2
DA:242,0
DA:246,14
DA:247,14
DA:250,14
DA:251,14
DA:253,14
DA:254,11
DA:255,3
DA:258,1
DA:259,0
DA:263,5
DA:264,5
DA:267,5
DA:268,5
DA:270,5
DA:271,4
DA:272,1
DA:275,22
DA:279,9
DA:280,9
DA:281,9
DA:288,19
DA:289,19
DA:290,19
DA:293,1
DA:294,1
DA:295,1
DA:297,1
DA:298,1
DA:299,1
DA:300,1
DA:302,1
DA:303,1
DA:304,1
DA:305,1
DA:306,1
DA:309,1
DA:310,1
DA:312,1
DA:313,1
DA:314,1
DA:315,1
DA:316,1
DA:317,1
DA:319,1
DA:320,1
DA:321,1
DA:322,1
DA:324,1
DA:325,1
DA:326,1
DA:327,1
DA:328,1
DA:331,1
DA:332,1
DA:333,1
DA:334,1
DA:336,1
DA:337,1
DA:338,1
DA:339,1
DA:342,1
DA:343,1
DA:344,1
DA:345,1
DA:348,1
DA:349,1
DA:350,1
DA:353,1
DA:354,1
DA:355,1
DA:356,1
DA:359,1
DA:360,1
DA:361,1
DA:363,1
DA:364,1
DA:365,1
DA:366,1
DA:369,1
DA:370,1
DA:371,1
DA:372,1
DA:374,1
DA:375,1
DA:376,1
DA:377,1
DA:380,1
DA:381,1
DA:382,1
DA:383,1
DA:386,1
DA:387,1
DA:388,1
DA:391,1
DA:392,1
DA:393,1
DA:394,1
DA:397,1
DA:398,1
DA:399,1
DA:400,1
DA:403,1
DA:404,1
DA:405,1
DA:406,1
DA:409,1
DA:410,1
DA:411,1
DA:412,1
DA:414,1
DA:416,1
DA:417,1
DA:419,1
DA:420,1
DA:423,1
DA:424,1
DA:425,1
DA:426,1
DA:428,1
DA:429,1
DA:432,1
DA:434,1
DA:435,1
DA:437,1
DA:438,1
DA:441,1
DA:442,1
DA:443,1
DA:445,1
DA:446,1
DA:447,1
DA:449,1
DA:450,1
DA:451,1
DA:452,1
DA:455,1
DA:457,1
DA:458,1
DA:460,1
DA:461,1
DA:464,1
DA:467,1
DA:468,1
DA:469,1
DA:470,1
DA:473,1
DA:474,1
DA:475,1
DA:477,1
DA:478,1
DA:479,1
DA:480,1
DA:483,3
DA:484,3
DA:485,3
DA:486,3
DA:488,1
BRF:0
BRH:0
LF:220
LH:209
end_of_record
SF:/Users/davidirvine/Desktop/Devel/projects/x0x/src/crdt/delta.rs
FN:189,_RNvMs_NtNtCsfB8W1BOG4Wp_3x0x4crdt5deltaNtNtB6_9task_list8TaskList11merge_delta
FN:140,_RNvMs_NtNtCsfB8W1BOG4Wp_3x0x4crdt5deltaNtNtB6_9task_list8TaskList5delta
FN:121,_RNvMs_NtNtCsfB8W1BOG4Wp_3x0x4crdt5deltaNtNtB6_9task_list8TaskList7version
FN:264,_RNvXs0_NtNtCsfB8W1BOG4Wp_3x0x4crdt5deltaNtNtB7_9task_list8TaskListNtCseYif0trzCXx_23saorsa_gossip_crdt_sync9DeltaCrdt5delta
FN:256,_RNvXs0_NtNtCsfB8W1BOG4Wp_3x0x4crdt5deltaNtNtB7_9task_list8TaskListNtCseYif0trzCXx_23saorsa_gossip_crdt_sync9DeltaCrdt5merge
FN:268,_RNvXs0_NtNtCsfB8W1BOG4Wp_3x0x4crdt5deltaNtNtB7_9task_list8TaskListNtCseYif0trzCXx_23saorsa_gossip_crdt_sync9DeltaCrdt7version
FN:91,_RNvMNtNtCsfB8W1BOG4Wp_3x0x4crdt5deltaNtB2_13TaskListDelta11for_reorder
FN:83,_RNvMNtNtCsfB8W1BOG4Wp_3x0x4crdt5deltaNtB2_13TaskListDelta16for_state_change
FN:59,_RNvMNtNtCsfB8W1BOG4Wp_3x0x4crdt5deltaNtB2_13TaskListDelta3new
FN:72,_RNvMNtNtCsfB8W1BOG4Wp_3x0x4crdt5deltaNtB2_13TaskListDelta7for_add
FN:99,_RNvMNtNtCsfB8W1BOG4Wp_3x0x4crdt5deltaNtB2_13TaskListDelta8is_empty
FN:231,_RNCNvMs_NtNtCsfB8W1BOG4Wp_3x0x4crdt5deltaNtNtB8_9task_list8TaskList11merge_delta0Ba_
FN:161,_RNCNvMs_NtNtCsfB8W1BOG4Wp_3x0x4crdt5deltaNtNtB8_9task_list8TaskList5delta0Ba_
FN:261,_RNCNvXs0_NtNtCsfB8W1BOG4Wp_3x0x4crdt5deltaNtNtB9_9task_list8TaskListNtCseYif0trzCXx_23saorsa_gossip_crdt_sync9DeltaCrdt5merge0Bb_
FN:91,_RNvMNtNtCs6t3ktUJwJ8n_3x0x4crdt5deltaNtB2_13TaskListDelta11for_reorder
FN:83,_RNvMNtNtCs6t3ktUJwJ8n_3x0x4crdt5deltaNtB2_13TaskListDelta16for_state_change
FN:72,_RNvMNtNtCs6t3ktUJwJ8n_3x0x4crdt5deltaNtB2_13TaskListDelta7for_add
FN:231,_RNCNvMs_NtNtCs6t3ktUJwJ8n_3x0x4crdt5deltaNtNtB8_9task_list8TaskList11merge_delta0Ba_
FN:161,_RNCNvMs_NtNtCs6t3ktUJwJ8n_3x0x4crdt5deltaNtNtB8_9task_list8TaskList5delta0Ba_
FN:261,_RNCNvXs0_NtNtCs6t3ktUJwJ8n_3x0x4crdt5deltaNtNtB9_9task_list8TaskListNtCseYif0trzCXx_23saorsa_gossip_crdt_sync9DeltaCrdt5merge0Bb_
FN:189,_RNvMs_NtNtCs6t3ktUJwJ8n_3x0x4crdt5deltaNtNtB6_9task_list8TaskList11merge_delta
FN:140,_RNvMs_NtNtCs6t3ktUJwJ8n_3x0x4crdt5deltaNtNtB6_9task_list8TaskList5delta
FN:121,_RNvMs_NtNtCs6t3ktUJwJ8n_3x0x4crdt5deltaNtNtB6_9task_list8TaskList7version
FN:264,_RNvXs0_NtNtCs6t3ktUJwJ8n_3x0x4crdt5deltaNtNtB7_9task_list8TaskListNtCseYif0trzCXx_23saorsa_gossip_crdt_sync9DeltaCrdt5delta
FN:256,_RNvXs0_NtNtCs6t3ktUJwJ8n_3x0x4crdt5deltaNtNtB7_9task_list8TaskListNtCseYif0trzCXx_23saorsa_gossip_crdt_sync9DeltaCrdt5merge
FN:268,_RNvXs0_NtNtCs6t3ktUJwJ8n_3x0x4crdt5deltaNtNtB7_9task_list8TaskListNtCseYif0trzCXx_23saorsa_gossip_crdt_sync9DeltaCrdt7version
FN:283,_RNvNtNtNtCs6t3ktUJwJ8n_3x0x4crdt5delta5tests4peer
FN:279,_RNvNtNtNtCs6t3ktUJwJ8n_3x0x4crdt5delta5tests5agent
FN:287,_RNvNtNtNtCs6t3ktUJwJ8n_3x0x4crdt5delta5tests7list_id
FN:291,_RNvNtNtNtCs6t3ktUJwJ8n_3x0x4crdt5delta5tests9make_task
FN:305,_RNvNtNtNtCs6t3ktUJwJ8n_3x0x4crdt5delta5testss_16test_empty_delta
FN:342,_RNvNtNtNtCs6t3ktUJwJ8n_3x0x4crdt5delta5testss_21test_delta_generation
FN:361,_RNvNtNtNtCs6t3ktUJwJ8n_3x0x4crdt5delta5testss_21test_delta_no_changes
FN:326,_RNvNtNtNtCs6t3ktUJwJ8n_3x0x4crdt5delta5testss_22test_task_list_version
FN:424,_RNvNtNtNtCs6t3ktUJwJ8n_3x0x4crdt5delta5testss_24test_delta_serialization
FN:312,_RNvNtNtNtCs6t3ktUJwJ8n_3x0x4crdt5delta5testss_26test_delta_with_added_task
FN:398,_RNvNtNtNtCs6t3ktUJwJ8n_3x0x4crdt5delta5testss_27test_delta_crdt_trait_merge
FN:374,_RNvNtNtNtCs6t3ktUJwJ8n_3x0x4crdt5delta5testss_30test_merge_delta_with_new_task
FN:463,_RNvNtNtNtCs6t3ktUJwJ8n_3x0x4crdt5delta5testss_33test_merge_delta_with_name_update
FN:435,_RNvNtNtNtCs6t3ktUJwJ8n_3x0x4crdt5delta5testss_37test_merge_delta_with_ordering_update
FN:59,_RNvMNtNtCs6t3ktUJwJ8n_3x0x4crdt5deltaNtB2_13TaskListDelta3new
FN:99,_RNvMNtNtCs6t3ktUJwJ8n_3x0x4crdt5deltaNtB2_13TaskListDelta8is_empty
FNDA:0,_RNvMs_NtNtCsfB8W1BOG4Wp_3x0x4crdt5deltaNtNtB6_9task_list8TaskList11merge_delta
FNDA:1,_RNvMs_NtNtCsfB8W1BOG4Wp_3x0x4crdt5deltaNtNtB6_9task_list8TaskList5delta
FNDA:517,_RNvMs_NtNtCsfB8W1BOG4Wp_3x0x4crdt5deltaNtNtB6_9task_list8TaskList7version
FNDA:0,_RNvXs0_NtNtCsfB8W1BOG4Wp_3x0x4crdt5deltaNtNtB7_9task_list8TaskListNtCseYif0trzCXx_23saorsa_gossip_crdt_sync9DeltaCrdt5delta
FNDA:0,_RNvXs0_NtNtCsfB8W1BOG4Wp_3x0x4crdt5deltaNtNtB7_9task_list8TaskListNtCseYif0trzCXx_23saorsa_gossip_crdt_sync9DeltaCrdt5merge
FNDA:0,_RNvXs0_NtNtCsfB8W1BOG4Wp_3x0x4crdt5deltaNtNtB7_9task_list8TaskListNtCseYif0trzCXx_23saorsa_gossip_crdt_sync9DeltaCrdt7version
FNDA:0,_RNvMNtNtCsfB8W1BOG4Wp_3x0x4crdt5deltaNtB2_13TaskListDelta11for_reorder
FNDA:0,_RNvMNtNtCsfB8W1BOG4Wp_3x0x4crdt5deltaNtB2_13TaskListDelta16for_state_change
FNDA:6,_RNvMNtNtCsfB8W1BOG4Wp_3x0x4crdt5deltaNtB2_13TaskListDelta3new
FNDA:0,_RNvMNtNtCsfB8W1BOG4Wp_3x0x4crdt5deltaNtB2_13TaskListDelta7for_add
FNDA:0,_RNvMNtNtCsfB8W1BOG4Wp_3x0x4crdt5deltaNtB2_13TaskListDelta8is_empty
FNDA:0,_RNCNvMs_NtNtCsfB8W1BOG4Wp_3x0x4crdt5deltaNtNtB8_9task_list8TaskList11merge_delta0Ba_
FNDA:1,_RNCNvMs_NtNtCsfB8W1BOG4Wp_3x0x4crdt5deltaNtNtB8_9task_list8TaskList5delta0Ba_
FNDA:0,_RNCNvXs0_NtNtCsfB8W1BOG4Wp_3x0x4crdt5deltaNtNtB9_9task_list8TaskListNtCseYif0trzCXx_23saorsa_gossip_crdt_sync9DeltaCrdt5merge0Bb_
FNDA:0,_RNvMNtNtCs6t3ktUJwJ8n_3x0x4crdt5deltaNtB2_13TaskListDelta11for_reorder
FNDA:0,_RNvMNtNtCs6t3ktUJwJ8n_3x0x4crdt5deltaNtB2_13TaskListDelta16for_state_change
FNDA:0,_RNvMNtNtCs6t3ktUJwJ8n_3x0x4crdt5deltaNtB2_13TaskListDelta7for_add
FNDA:4,_RNCNvMs_NtNtCs6t3ktUJwJ8n_3x0x4crdt5deltaNtNtB8_9task_list8TaskList11merge_delta0Ba_
FNDA:3,_RNCNvMs_NtNtCs6t3ktUJwJ8n_3x0x4crdt5deltaNtNtB8_9task_list8TaskList5delta0Ba_
FNDA:0,_RNCNvXs0_NtNtCs6t3ktUJwJ8n_3x0x4crdt5deltaNtNtB9_9task_list8TaskListNtCseYif0trzCXx_23saorsa_gossip_crdt_sync9DeltaCrdt5merge0Bb_
FNDA:5,_RNvMs_NtNtCs6t3ktUJwJ8n_3x0x4crdt5deltaNtNtB6_9task_list8TaskList11merge_delta
FNDA:4,_RNvMs_NtNtCs6t3ktUJwJ8n_3x0x4crdt5deltaNtNtB6_9task_list8TaskList5delta
FNDA:8,_RNvMs_NtNtCs6t3ktUJwJ8n_3x0x4crdt5deltaNtNtB6_9task_list8TaskList7version
FNDA:1,_RNvXs0_NtNtCs6t3ktUJwJ8n_3x0x4crdt5deltaNtNtB7_9task_list8TaskListNtCseYif0trzCXx_23saorsa_gossip_crdt_sync9DeltaCrdt5delta
FNDA:1,_RNvXs0_NtNtCs6t3ktUJwJ8n_3x0x4crdt5deltaNtNtB7_9task_list8TaskListNtCseYif0trzCXx_23saorsa_gossip_crdt_sync9DeltaCrdt5merge
FNDA:1,_RNvXs0_NtNtCs6t3ktUJwJ8n_3x0x4crdt5deltaNtNtB7_9task_list8TaskListNtCseYif0trzCXx_23saorsa_gossip_crdt_sync9DeltaCrdt7version
FNDA:10,_RNvNtNtNtCs6t3ktUJwJ8n_3x0x4crdt5delta5tests4peer
FNDA:7,_RNvNtNtNtCs6t3ktUJwJ8n_3x0x4crdt5delta5tests5agent
FNDA:7,_RNvNtNtNtCs6t3ktUJwJ8n_3x0x4crdt5delta5tests7list_id
FNDA:7,_RNvNtNtNtCs6t3ktUJwJ8n_3x0x4crdt5delta5tests9make_task
FNDA:1,_RNvNtNtNtCs6t3ktUJwJ8n_3x0x4crdt5delta5testss_16test_empty_delta
FNDA:1,_RNvNtNtNtCs6t3ktUJwJ8n_3x0x4crdt5delta5testss_21test_delta_generation
FNDA:1,_RNvNtNtNtCs6t3ktUJwJ8n_3x0x4crdt5delta5testss_21test_delta_no_changes
FNDA:1,_RNvNtNtNtCs6t3ktUJwJ8n_3x0x4crdt5delta5testss_22test_task_list_version
FNDA:1,_RNvNtNtNtCs6t3ktUJwJ8n_3x0x4crdt5delta5testss_24test_delta_serialization
FNDA:1,_RNvNtNtNtCs6t3ktUJwJ8n_3x0x4crdt5delta5testss_26test_delta_with_added_task
FNDA:1,_RNvNtNtNtCs6t3ktUJwJ8n_3x0x4crdt5delta5testss_27test_delta_crdt_trait_merge
FNDA:1,_RNvNtNtNtCs6t3ktUJwJ8n_3x0x4crdt5delta5testss_30test_merge_delta_with_new_task
FNDA:1,_RNvNtNtNtCs6t3ktUJwJ8n_3x0x4crdt5delta5testss_33test_merge_delta_with_name_update
FNDA:1,_RNvNtNtNtCs6t3ktUJwJ8n_3x0x4crdt5delta5testss_37test_merge_delta_with_ordering_update
FNDA:19,_RNvMNtNtCs6t3ktUJwJ8n_3x0x4crdt5deltaNtB2_13TaskListDelta3new
FNDA:5,_RNvMNtNtCs6t3ktUJwJ8n_3x0x4crdt5deltaNtB2_13TaskListDelta8is_empty
FNF:28
FNH:24
DA:59,25
DA:60,25
DA:61,25
DA:62,25
DA:63,25
DA:64,25
DA:65,25
DA:66,25
DA:67,25
DA:68,25
DA:72,0
DA:73,0
DA:74,0
DA:75,0
DA:76,0
DA:83,0
DA:84,0
DA:85,0
DA:86,0
DA:87,0
DA:91,0
DA:92,0
DA:93,0
DA:94,0
DA:95,0
DA:99,5
DA:100,5
DA:101,3
DA:102,3
DA:103,3
DA:104,3
DA:105,5
DA:121,525
DA:122,525
DA:123,525
DA:140,5
DA:141,5
DA:144,5
DA:145,1
DA:146,4
DA:150,4
DA:154,4
DA:155,4
DA:156,4
DA:157,4
DA:158,4
DA:161,4
DA:164,4
DA:166,4
DA:167,5
DA:189,5
DA:191,5
DA:193,3
DA:194,3
DA:197,0
DA:198,0
DA:199,0
DA:204,5
DA:205,0
DA:206,0
DA:207,0
DA:214,5
DA:215,0
DA:216,0
DA:222,0
DA:227,5
DA:229,3
DA:230,3
DA:231,4
DA:232,3
DA:233,3
DA:235,3
DA:236,3
DA:237,3
DA:238,2
DA:241,5
DA:242,3
DA:243,3
DA:245,5
DA:246,5
DA:256,1
DA:259,1
DA:260,1
DA:261,1
DA:262,1
DA:264,1
DA:265,1
DA:266,1
DA:268,1
DA:269,1
DA:270,1
DA:279,7
DA:280,7
DA:281,7
DA:283,10
DA:284,10
DA:285,10
DA:287,7
DA:288,7
DA:289,7
DA:291,7
DA:292,7
DA:293,7
DA:294,7
DA:295,7
DA:296,7
DA:298,7
DA:301,7
DA:302,7
DA:305,1
DA:306,1
DA:307,1
DA:308,1
DA:309,1
DA:312,1
DA:313,1
DA:314,1
DA:315,1
DA:316,1
DA:317,1
DA:319,1
DA:321,1
DA:322,1
DA:323,1
DA:326,1
DA:327,1
DA:328,1
DA:329,1
DA:331,1
DA:334,1
DA:335,1
DA:337,1
DA:338,1
DA:339,1
DA:342,1
DA:343,1
DA:344,1
DA:345,1
DA:348,1
DA:349,1
DA:352,1
DA:353,1
DA:355,1
DA:356,1
DA:357,1
DA:358,1
DA:361,1
DA:362,1
DA:363,1
DA:364,1
DA:366,1
DA:369,1
DA:370,1
DA:371,1
DA:374,1
DA:375,1
DA:376,1
DA:377,1
DA:379,1
DA:380,1
DA:383,1
DA:384,1
DA:387,1
DA:390,1
DA:391,1
DA:394,1
DA:395,1
DA:398,1
DA:399,1
DA:400,1
DA:401,1
DA:403,1
DA:404,1
DA:407,1
DA:408,1
DA:411,1
DA:412,1
DA:413,1
DA:416,1
DA:417,1
DA:420,1
DA:421,1
DA:424,1
DA:425,1
DA:427,1
DA:428,1
DA:430,1
DA:431,1
DA:432,1
DA:435,1
DA:436,1
DA:437,1
DA:438,1
DA:441,1
DA:442,1
DA:443,1
DA:444,1
DA:446,1
DA:447,1
DA:450,1
DA:451,1
DA:454,1
DA:457,1
DA:458,1
DA:459,1
DA:460,1
DA:463,1
DA:464,1
DA:465,1
DA:466,1
DA:469,1
DA:470,1
DA:473,1
DA:476,1
DA:477,1
BRF:0
BRH:0
LF:218
LH:193
end_of_record
SF:/Users/davidirvine/Desktop/Devel/projects/x0x/src/crdt/encrypted.rs
FN:104,_RNCNvMNtNtCsfB8W1BOG4Wp_3x0x4crdt9encryptedNtB4_22EncryptedTaskListDelta7decrypt0B8_
FN:58,_RNCNvMNtNtCsfB8W1BOG4Wp_3x0x4crdt9encryptedNtB4_22EncryptedTaskListDelta7encrypt0B8_
FN:188,_RNvMNtNtCsfB8W1BOG4Wp_3x0x4crdt9encryptedNtB2_22EncryptedTaskListDelta10ciphertext
FN:146,_RNvMNtNtCsfB8W1BOG4Wp_3x0x4crdt9encryptedNtB2_22EncryptedTaskListDelta18decrypt_with_group
FN:121,_RNvMNtNtCsfB8W1BOG4Wp_3x0x4crdt9encryptedNtB2_22EncryptedTaskListDelta18encrypt_with_group
FN:194,_RNvMNtNtCsfB8W1BOG4Wp_3x0x4crdt9encryptedNtB2_22EncryptedTaskListDelta3aad
FN:182,_RNvMNtNtCsfB8W1BOG4Wp_3x0x4crdt9encryptedNtB2_22EncryptedTaskListDelta5epoch
FN:98,_RNvMNtNtCsfB8W1BOG4Wp_3x0x4crdt9encryptedNtB2_22EncryptedTaskListDelta7decrypt
FN:51,_RNvMNtNtCsfB8W1BOG4Wp_3x0x4crdt9encryptedNtB2_22EncryptedTaskListDelta7encrypt
FN:176,_RNvMNtNtCsfB8W1BOG4Wp_3x0x4crdt9encryptedNtB2_22EncryptedTaskListDelta8group_id
FN:207,_RNCNvNtNtNtCs6t3ktUJwJ8n_3x0x4crdt9encrypted5tests17create_test_group0B9_
FN:373,_RNCNvNtNtNtCs6t3ktUJwJ8n_3x0x4crdt9encrypted5testss_27test_empty_delta_encryption0B9_
FN:389,_RNCNvNtNtNtCs6t3ktUJwJ8n_3x0x4crdt9encrypted5testss_27test_large_delta_encryption0B9_
FN:245,_RNCNvNtNtNtCs6t3ktUJwJ8n_3x0x4crdt9encrypted5testss_30test_encrypt_decrypt_roundtrip0B9_
FN:445,_RNCNvNtNtNtCs6t3ktUJwJ8n_3x0x4crdt9encrypted5testss_33test_aad_includes_group_and_epoch0B9_
FN:427,_RNCNvNtNtNtCs6t3ktUJwJ8n_3x0x4crdt9encrypted5testss_34test_encrypted_delta_serialization0B9_
FN:334,_RNCNvNtNtNtCs6t3ktUJwJ8n_3x0x4crdt9encrypted5testss_38test_authentication_prevents_tampering0B9_
FN:280,_RNCNvNtNtNtCs6t3ktUJwJ8n_3x0x4crdt9encrypted5testss_38test_decryption_fails_with_wrong_epoch0B9_
FN:302,_RNCNvNtNtNtCs6t3ktUJwJ8n_3x0x4crdt9encrypted5testss_38test_decryption_fails_with_wrong_group0B9_
FN:268,_RNCNvNtNtNtCs6t3ktUJwJ8n_3x0x4crdt9encrypted5testss_44test_encrypted_delta_includes_group_metadata0B9_
FN:351,_RNCNvNtNtNtCs6t3ktUJwJ8n_3x0x4crdt9encrypted5testss_51test_different_epochs_produce_different_ciphertexts0B9_
FN:188,_RNvMNtNtCs6t3ktUJwJ8n_3x0x4crdt9encryptedNtB2_22EncryptedTaskListDelta10ciphertext
FN:146,_RNvMNtNtCs6t3ktUJwJ8n_3x0x4crdt9encryptedNtB2_22EncryptedTaskListDelta18decrypt_with_group
FN:121,_RNvMNtNtCs6t3ktUJwJ8n_3x0x4crdt9encryptedNtB2_22EncryptedTaskListDelta18encrypt_with_group
FN:194,_RNvMNtNtCs6t3ktUJwJ8n_3x0x4crdt9encryptedNtB2_22EncryptedTaskListDelta3aad
FN:182,_RNvMNtNtCs6t3ktUJwJ8n_3x0x4crdt9encryptedNtB2_22EncryptedTaskListDelta5epoch
FN:98,_RNvMNtNtCs6t3ktUJwJ8n_3x0x4crdt9encryptedNtB2_22EncryptedTaskListDelta7decrypt
FN:51,_RNvMNtNtCs6t3ktUJwJ8n_3x0x4crdt9encryptedNtB2_22EncryptedTaskListDelta7encrypt
FN:176,_RNvMNtNtCs6t3ktUJwJ8n_3x0x4crdt9encryptedNtB2_22EncryptedTaskListDelta8group_id
FN:217,_RNvNtNtNtCs6t3ktUJwJ8n_3x0x4crdt9encrypted5tests17create_test_delta
FN:207,_RNvNtNtNtCs6t3ktUJwJ8n_3x0x4crdt9encrypted5tests17create_test_group
FN:373,_RNvNtNtNtCs6t3ktUJwJ8n_3x0x4crdt9encrypted5testss_27test_empty_delta_encryption
FN:389,_RNvNtNtNtCs6t3ktUJwJ8n_3x0x4crdt9encrypted5testss_27test_large_delta_encryption
FN:245,_RNvNtNtNtCs6t3ktUJwJ8n_3x0x4crdt9encrypted5testss_30test_encrypt_decrypt_roundtrip
FN:445,_RNvNtNtNtCs6t3ktUJwJ8n_3x0x4crdt9encrypted5testss_33test_aad_includes_group_and_epoch
FN:427,_RNvNtNtNtCs6t3ktUJwJ8n_3x0x4crdt9encrypted5testss_34test_encrypted_delta_serialization
FN:334,_RNvNtNtNtCs6t3ktUJwJ8n_3x0x4crdt9encrypted5testss_38test_authentication_prevents_tampering
FN:280,_RNvNtNtNtCs6t3ktUJwJ8n_3x0x4crdt9encrypted5testss_38test_decryption_fails_with_wrong_epoch
FN:302,_RNvNtNtNtCs6t3ktUJwJ8n_3x0x4crdt9encrypted5testss_38test_decryption_fails_with_wrong_group
FN:268,_RNvNtNtNtCs6t3ktUJwJ8n_3x0x4crdt9encrypted5testss_44test_encrypted_delta_includes_group_metadata
FN:351,_RNvNtNtNtCs6t3ktUJwJ8n_3x0x4crdt9encrypted5testss_51test_different_epochs_produce_different_ciphertexts
FN:104,_RNCNvMNtNtCs6t3ktUJwJ8n_3x0x4crdt9encryptedNtB4_22EncryptedTaskListDelta7decrypt0B8_
FN:58,_RNCNvMNtNtCs6t3ktUJwJ8n_3x0x4crdt9encryptedNtB4_22EncryptedTaskListDelta7encrypt0B8_
FNDA:0,_RNCNvMNtNtCsfB8W1BOG4Wp_3x0x4crdt9encryptedNtB4_22EncryptedTaskListDelta7decrypt0B8_
FNDA:0,_RNCNvMNtNtCsfB8W1BOG4Wp_3x0x4crdt9encryptedNtB4_22EncryptedTaskListDelta7encrypt0B8_
FNDA:1,_RNvMNtNtCsfB8W1BOG4Wp_3x0x4crdt9encryptedNtB2_22EncryptedTaskListDelta10ciphertext
FNDA:6,_RNvMNtNtCsfB8W1BOG4Wp_3x0x4crdt9encryptedNtB2_22EncryptedTaskListDelta18decrypt_with_group
FNDA:6,_RNvMNtNtCsfB8W1BOG4Wp_3x0x4crdt9encryptedNtB2_22EncryptedTaskListDelta18encrypt_with_group
FNDA:0,_RNvMNtNtCsfB8W1BOG4Wp_3x0x4crdt9encryptedNtB2_22EncryptedTaskListDelta3aad
FNDA:1,_RNvMNtNtCsfB8W1BOG4Wp_3x0x4crdt9encryptedNtB2_22EncryptedTaskListDelta5epoch
FNDA:4,_RNvMNtNtCsfB8W1BOG4Wp_3x0x4crdt9encryptedNtB2_22EncryptedTaskListDelta7decrypt
FNDA:6,_RNvMNtNtCsfB8W1BOG4Wp_3x0x4crdt9encryptedNtB2_22EncryptedTaskListDelta7encrypt
FNDA:1,_RNvMNtNtCsfB8W1BOG4Wp_3x0x4crdt9encryptedNtB2_22EncryptedTaskListDelta8group_id
FNDA:9,_RNCNvNtNtNtCs6t3ktUJwJ8n_3x0x4crdt9encrypted5tests17create_test_group0B9_
FNDA:1,_RNCNvNtNtNtCs6t3ktUJwJ8n_3x0x4crdt9encrypted5testss_27test_empty_delta_encryption0B9_
FNDA:1,_RNCNvNtNtNtCs6t3ktUJwJ8n_3x0x4crdt9encrypted5testss_27test_large_delta_encryption0B9_
FNDA:1,_RNCNvNtNtNtCs6t3ktUJwJ8n_3x0x4crdt9encrypted5testss_30test_encrypt_decrypt_roundtrip0B9_
FNDA:1,_RNCNvNtNtNtCs6t3ktUJwJ8n_3x0x4crdt9encrypted5testss_33test_aad_includes_group_and_epoch0B9_
FNDA:1,_RNCNvNtNtNtCs6t3ktUJwJ8n_3x0x4crdt9encrypted5testss_34test_encrypted_delta_serialization0B9_
FNDA:1,_RNCNvNtNtNtCs6t3ktUJwJ8n_3x0x4crdt9encrypted5testss_38test_authentication_prevents_tampering0B9_
FNDA:1,_RNCNvNtNtNtCs6t3ktUJwJ8n_3x0x4crdt9encrypted5testss_38test_decryption_fails_with_wrong_epoch0B9_
FNDA:1,_RNCNvNtNtNtCs6t3ktUJwJ8n_3x0x4crdt9encrypted5testss_38test_decryption_fails_with_wrong_group0B9_
FNDA:1,_RNCNvNtNtNtCs6t3ktUJwJ8n_3x0x4crdt9encrypted5testss_44test_encrypted_delta_includes_group_metadata0B9_
FNDA:1,_RNCNvNtNtNtCs6t3ktUJwJ8n_3x0x4crdt9encrypted5testss_51test_different_epochs_produce_different_ciphertexts0B9_
FNDA:5,_RNvMNtNtCs6t3ktUJwJ8n_3x0x4crdt9encryptedNtB2_22EncryptedTaskListDelta10ciphertext
FNDA:6,_RNvMNtNtCs6t3ktUJwJ8n_3x0x4crdt9encryptedNtB2_22EncryptedTaskListDelta18decrypt_with_group
FNDA:11,_RNvMNtNtCs6t3ktUJwJ8n_3x0x4crdt9encryptedNtB2_22EncryptedTaskListDelta18encrypt_with_group
FNDA:1,_RNvMNtNtCs6t3ktUJwJ8n_3x0x4crdt9encryptedNtB2_22EncryptedTaskListDelta3aad
FNDA:6,_RNvMNtNtCs6t3ktUJwJ8n_3x0x4crdt9encryptedNtB2_22EncryptedTaskListDelta5epoch
FNDA:4,_RNvMNtNtCs6t3ktUJwJ8n_3x0x4crdt9encryptedNtB2_22EncryptedTaskListDelta7decrypt
FNDA:11,_RNvMNtNtCs6t3ktUJwJ8n_3x0x4crdt9encryptedNtB2_22EncryptedTaskListDelta7encrypt
FNDA:4,_RNvMNtNtCs6t3ktUJwJ8n_3x0x4crdt9encryptedNtB2_22EncryptedTaskListDelta8group_id
FNDA:8,_RNvNtNtNtCs6t3ktUJwJ8n_3x0x4crdt9encrypted5tests17create_test_delta
FNDA:9,_RNvNtNtNtCs6t3ktUJwJ8n_3x0x4crdt9encrypted5tests17create_test_group
FNDA:1,_RNvNtNtNtCs6t3ktUJwJ8n_3x0x4crdt9encrypted5testss_27test_empty_delta_encryption
FNDA:1,_RNvNtNtNtCs6t3ktUJwJ8n_3x0x4crdt9encrypted5testss_27test_large_delta_encryption
FNDA:1,_RNvNtNtNtCs6t3ktUJwJ8n_3x0x4crdt9encrypted5testss_30test_encrypt_decrypt_roundtrip
FNDA:1,_RNvNtNtNtCs6t3ktUJwJ8n_3x0x4crdt9encrypted5testss_33test_aad_includes_group_and_epoch
FNDA:1,_RNvNtNtNtCs6t3ktUJwJ8n_3x0x4crdt9encrypted5testss_34test_encrypted_delta_serialization
FNDA:1,_RNvNtNtNtCs6t3ktUJwJ8n_3x0x4crdt9encrypted5testss_38test_authentication_prevents_tampering
FNDA:1,_RNvNtNtNtCs6t3ktUJwJ8n_3x0x4crdt9encrypted5testss_38test_decryption_fails_with_wrong_epoch
FNDA:1,_RNvNtNtNtCs6t3ktUJwJ8n_3x0x4crdt9encrypted5testss_38test_decryption_fails_with_wrong_group
FNDA:1,_RNvNtNtNtCs6t3ktUJwJ8n_3x0x4crdt9encrypted5testss_44test_encrypted_delta_includes_group_metadata
FNDA:1,_RNvNtNtNtCs6t3ktUJwJ8n_3x0x4crdt9encrypted5testss_51test_different_epochs_produce_different_ciphertexts
FNDA:0,_RNCNvMNtNtCs6t3ktUJwJ8n_3x0x4crdt9encryptedNtB4_22EncryptedTaskListDelta7decrypt0B8_
FNDA:0,_RNCNvMNtNtCs6t3ktUJwJ8n_3x0x4crdt9encryptedNtB4_22EncryptedTaskListDelta7encrypt0B8_
FNF:33
FNH:31
DA:51,17
DA:52,17
DA:53,17
DA:54,17
DA:57,17
DA:58,17
DA:61,17
DA:62,17
DA:63,17
DA:64,17
DA:67,17
DA:69,17
DA:70,17
DA:71,17
DA:72,17
DA:73,17
DA:74,17
DA:75,17
DA:98,8
DA:100,8
DA:103,7
DA:104,7
DA:105,8
DA:121,17
DA:122,17
DA:123,17
DA:124,17
DA:125,17
DA:127,17
DA:128,17
DA:146,12
DA:147,12
DA:150,12
DA:151,3
DA:152,3
DA:153,3
DA:154,3
DA:155,9
DA:158,9
DA:159,1
DA:160,1
DA:161,1
DA:162,1
DA:163,1
DA:164,8
DA:166,8
DA:167,8
DA:168,8
DA:169,8
DA:171,8
DA:172,12
DA:176,5
DA:177,5
DA:178,5
DA:182,7
DA:183,7
DA:184,7
DA:188,6
DA:189,6
DA:190,6
DA:194,1
DA:195,1
DA:196,1
DA:207,9
DA:208,9
DA:209,9
DA:210,9
DA:211,9
DA:212,9
DA:213,9
DA:214,9
DA:215,9
DA:217,8
DA:218,8
DA:221,8
DA:222,8
DA:223,8
DA:224,8
DA:226,8
DA:227,8
DA:228,8
DA:229,8
DA:230,8
DA:231,8
DA:232,8
DA:233,8
DA:234,8
DA:236,8
DA:237,8
DA:238,8
DA:239,8
DA:241,8
DA:242,8
DA:245,1
DA:246,1
DA:247,1
DA:250,1
DA:251,1
DA:253,1
DA:254,1
DA:255,1
DA:258,1
DA:259,1
DA:260,1
DA:263,1
DA:264,1
DA:265,1
DA:268,1
DA:269,1
DA:270,1
DA:272,1
DA:273,1
DA:275,1
DA:276,1
DA:277,1
DA:280,1
DA:281,1
DA:282,1
DA:285,1
DA:286,1
DA:289,1
DA:290,1
DA:293,1
DA:294,1
DA:295,1
DA:296,1
DA:297,1
DA:298,1
DA:299,1
DA:302,1
DA:303,1
DA:304,1
DA:305,1
DA:306,1
DA:307,1
DA:308,1
DA:310,1
DA:311,1
DA:312,1
DA:313,1
DA:314,1
DA:315,1
DA:317,1
DA:320,1
DA:321,1
DA:324,1
DA:325,1
DA:327,1
DA:328,1
DA:329,1
DA:330,1
DA:331,1
DA:334,1
DA:335,1
DA:336,1
DA:338,1
DA:339,1
DA:342,1
DA:345,1
DA:346,1
DA:347,1
DA:348,1
DA:351,1
DA:352,1
DA:353,1
DA:356,1
DA:357,1
DA:360,1
DA:361,1
DA:364,1
DA:365,1
DA:368,1
DA:369,1
DA:370,1
DA:373,1
DA:374,1
DA:375,1
DA:377,1
DA:378,1
DA:380,1
DA:381,1
DA:382,1
DA:384,1
DA:385,1
DA:386,1
DA:389,1
DA:390,1
DA:391,1
DA:393,1
DA:394,1
DA:395,1
DA:398,100
DA:399,100
DA:400,100
DA:401,100
DA:402,100
DA:403,100
DA:404,100
DA:405,100
DA:406,100
DA:407,100
DA:408,100
DA:409,100
DA:410,100
DA:411,100
DA:412,100
DA:413,100
DA:414,100
DA:416,1
DA:417,1
DA:419,1
DA:420,1
DA:421,1
DA:423,1
DA:424,1
DA:427,1
DA:428,1
DA:429,1
DA:431,1
DA:432,1
DA:435,1
DA:436,1
DA:437,1
DA:439,1
DA:440,1
DA:441,1
DA:442,1
DA:445,1
DA:446,1
DA:447,1
DA:449,1
DA:450,1
DA:452,1
DA:455,1
DA:458,1
DA:459,1
BRF:0
BRH:0
LF:262
LH:259
end_of_record
SF:/Users/davidirvine/Desktop/Devel/projects/x0x/src/crdt/error.rs
FN:143,_RNvNvNtNtNtCs6t3ktUJwJ8n_3x0x4crdt5error5testss_23test_error_from_bincode17__assert_from_impl
FN:58,_RNvNtNtNtCs6t3ktUJwJ8n_3x0x4crdt5error5tests12mock_task_id
FN:54,_RNvNtNtNtCs6t3ktUJwJ8n_3x0x4crdt5error5tests13mock_agent_id
FN:151,_RNvNtNtNtCs6t3ktUJwJ8n_3x0x4crdt5error5testss_18test_error_from_io
FN:140,_RNvNtNtNtCs6t3ktUJwJ8n_3x0x4crdt5error5testss_23test_error_from_bincode
FN:124,_RNvNtNtNtCs6t3ktUJwJ8n_3x0x4crdt5error5testss_24test_error_display_merge
FN:132,_RNvNtNtNtCs6t3ktUJwJ8n_3x0x4crdt5error5testss_25test_error_display_gossip
FN:63,_RNvNtNtNtCs6t3ktUJwJ8n_3x0x4crdt5error5testss_28test_checkbox_state_equality
FN:92,_RNvNtNtNtCs6t3ktUJwJ8n_3x0x4crdt5error5testss_33test_error_display_task_not_found
FN:116,_RNvNtNtNtCs6t3ktUJwJ8n_3x0x4crdt5error5testss_34test_error_display_already_claimed
FN:100,_RNvNtNtNtCs6t3ktUJwJ8n_3x0x4crdt5error5testss_37test_error_display_invalid_transition
FNDA:0,_RNvNvNtNtNtCs6t3ktUJwJ8n_3x0x4crdt5error5testss_23test_error_from_bincode17__assert_from_impl
FNDA:1,_RNvNtNtNtCs6t3ktUJwJ8n_3x0x4crdt5error5tests12mock_task_id
FNDA:3,_RNvNtNtNtCs6t3ktUJwJ8n_3x0x4crdt5error5tests13mock_agent_id
FNDA:1,_RNvNtNtNtCs6t3ktUJwJ8n_3x0x4crdt5error5testss_18test_error_from_io
FNDA:1,_RNvNtNtNtCs6t3ktUJwJ8n_3x0x4crdt5error5testss_23test_error_from_bincode
FNDA:1,_RNvNtNtNtCs6t3ktUJwJ8n_3x0x4crdt5error5testss_24test_error_display_merge
FNDA:1,_RNvNtNtNtCs6t3ktUJwJ8n_3x0x4crdt5error5testss_25test_error_display_gossip
FNDA:1,_RNvNtNtNtCs6t3ktUJwJ8n_3x0x4crdt5error5testss_28test_checkbox_state_equality
FNDA:1,_RNvNtNtNtCs6t3ktUJwJ8n_3x0x4crdt5error5testss_33test_error_display_task_not_found
FNDA:1,_RNvNtNtNtCs6t3ktUJwJ8n_3x0x4crdt5error5testss_34test_error_display_already_claimed
FNDA:1,_RNvNtNtNtCs6t3ktUJwJ8n_3x0x4crdt5error5testss_37test_error_display_invalid_transition
FNF:11
FNH:10
DA:54,3
DA:55,3
DA:56,3
DA:58,1
DA:59,1
DA:60,1
DA:63,1
DA:64,1
DA:66,1
DA:67,1
DA:68,1
DA:70,1
DA:71,1
DA:72,1
DA:73,1
DA:74,1
DA:75,1
DA:76,1
DA:77,1
DA:78,1
DA:80,1
DA:81,1
DA:82,1
DA:83,1
DA:84,1
DA:85,1
DA:86,1
DA:87,1
DA:88,1
DA:89,1
DA:92,1
DA:93,1
DA:94,1
DA:95,1
DA:96,1
DA:97,1
DA:100,1
DA:101,1
DA:102,1
DA:103,1
DA:104,1
DA:105,1
DA:106,1
DA:107,1
DA:108,1
DA:109,1
DA:110,1
DA:111,1
DA:112,1
DA:113,1
DA:116,1
DA:117,1
DA:118,1
DA:119,1
DA:120,1
DA:121,1
DA:124,1
DA:125,1
DA:126,1
DA:127,1
DA:128,1
DA:129,1
DA:132,1
DA:133,1
DA:134,1
DA:135,1
DA:136,1
DA:137,1
DA:140,1
DA:143,0
DA:144,0
DA:145,0
DA:146,0
DA:147,0
DA:148,1
DA:151,1
DA:152,1
DA:153,1
DA:154,1
DA:155,1
DA:156,1
DA:157,1
BRF:0
BRH:0
LF:82
LH:77
end_of_record
SF:/Users/davidirvine/Desktop/Devel/projects/x0x/src/crdt/persistence.rs
FN:128,_RNCNCNvMNtNtCsfB8W1BOG4Wp_3x0x4crdt11persistenceNtB6_15TaskListStorage15list_task_lists00Ba_
FN:133,_RNCNCNvMNtNtCsfB8W1BOG4Wp_3x0x4crdt11persistenceNtB6_15TaskListStorage15list_task_lists0s_0Ba_
FN:98,_RNCNvMNtNtCsfB8W1BOG4Wp_3x0x4crdt11persistenceNtB4_15TaskListStorage14load_task_list0B8_
FN:61,_RNCNvMNtNtCsfB8W1BOG4Wp_3x0x4crdt11persistenceNtB4_15TaskListStorage14save_task_list0B8_
FN:114,_RNCNvMNtNtCsfB8W1BOG4Wp_3x0x4crdt11persistenceNtB4_15TaskListStorage15list_task_lists0B8_
FN:154,_RNCNvMNtNtCsfB8W1BOG4Wp_3x0x4crdt11persistenceNtB4_15TaskListStorage16delete_task_list0B8_
FN:163,_RNvMNtNtCsfB8W1BOG4Wp_3x0x4crdt11persistenceNtB2_15TaskListStorage14list_file_path
FN:95,_RNvMNtNtCsfB8W1BOG4Wp_3x0x4crdt11persistenceNtB2_15TaskListStorage14load_task_list
FN:57,_RNvMNtNtCsfB8W1BOG4Wp_3x0x4crdt11persistenceNtB2_15TaskListStorage14save_task_list
FN:114,_RNvMNtNtCsfB8W1BOG4Wp_3x0x4crdt11persistenceNtB2_15TaskListStorage15list_task_lists
FN:154,_RNvMNtNtCsfB8W1BOG4Wp_3x0x4crdt11persistenceNtB2_15TaskListStorage16delete_task_list
FN:37,_RNvMNtNtCsfB8W1BOG4Wp_3x0x4crdt11persistenceNtB2_15TaskListStorage3new
FN:163,_RNvMNtNtCs6t3ktUJwJ8n_3x0x4crdt11persistenceNtB2_15TaskListStorage14list_file_path
FN:95,_RNvMNtNtCs6t3ktUJwJ8n_3x0x4crdt11persistenceNtB2_15TaskListStorage14load_task_list
FN:57,_RNvMNtNtCs6t3ktUJwJ8n_3x0x4crdt11persistenceNtB2_15TaskListStorage14save_task_list
FN:114,_RNvMNtNtCs6t3ktUJwJ8n_3x0x4crdt11persistenceNtB2_15TaskListStorage15list_task_lists
FN:154,_RNvMNtNtCs6t3ktUJwJ8n_3x0x4crdt11persistenceNtB2_15TaskListStorage16delete_task_list
FN:37,_RNvMNtNtCs6t3ktUJwJ8n_3x0x4crdt11persistenceNtB2_15TaskListStorage3new
FN:180,_RNvNtNtNtCs6t3ktUJwJ8n_3x0x4crdt11persistence5tests12test_list_id
FN:176,_RNvNtNtNtCs6t3ktUJwJ8n_3x0x4crdt11persistence5tests12test_peer_id
FN:184,_RNvNtNtNtCs6t3ktUJwJ8n_3x0x4crdt11persistence5tests16create_test_list
FN:263,_RNvNtNtNtCs6t3ktUJwJ8n_3x0x4crdt11persistence5testss_20list_skips_tmp_files
FN:189,_RNvNtNtNtCs6t3ktUJwJ8n_3x0x4crdt11persistence5testss_23save_and_load_roundtrip
FN:213,_RNvNtNtNtCs6t3ktUJwJ8n_3x0x4crdt11persistence5testss_25list_task_lists_empty_dir
FN:222,_RNvNtNtNtCs6t3ktUJwJ8n_3x0x4crdt11persistence5testss_26list_task_lists_after_save
FN:280,_RNvNtNtNtCs6t3ktUJwJ8n_3x0x4crdt11persistence5testss_26multiple_lists_independent
FN:236,_RNvNtNtNtCs6t3ktUJwJ8n_3x0x4crdt11persistence5testss_29delete_task_list_removes_file
FN:203,_RNvNtNtNtCs6t3ktUJwJ8n_3x0x4crdt11persistence5testss_30load_nonexistent_returns_error
FN:250,_RNvNtNtNtCs6t3ktUJwJ8n_3x0x4crdt11persistence5testss_36save_creates_directory_automatically
FN:263,_RNCNvNtNtNtCs6t3ktUJwJ8n_3x0x4crdt11persistence5testss_20list_skips_tmp_files0B9_
FN:189,_RNCNvNtNtNtCs6t3ktUJwJ8n_3x0x4crdt11persistence5testss_23save_and_load_roundtrip0B9_
FN:213,_RNCNvNtNtNtCs6t3ktUJwJ8n_3x0x4crdt11persistence5testss_25list_task_lists_empty_dir0B9_
FN:222,_RNCNvNtNtNtCs6t3ktUJwJ8n_3x0x4crdt11persistence5testss_26list_task_lists_after_save0B9_
FN:280,_RNCNvNtNtNtCs6t3ktUJwJ8n_3x0x4crdt11persistence5testss_26multiple_lists_independent0B9_
FN:236,_RNCNvNtNtNtCs6t3ktUJwJ8n_3x0x4crdt11persistence5testss_29delete_task_list_removes_file0B9_
FN:203,_RNCNvNtNtNtCs6t3ktUJwJ8n_3x0x4crdt11persistence5testss_30load_nonexistent_returns_error0B9_
FN:250,_RNCNvNtNtNtCs6t3ktUJwJ8n_3x0x4crdt11persistence5testss_36save_creates_directory_automatically0B9_
FN:128,_RNCNCNvMNtNtCs6t3ktUJwJ8n_3x0x4crdt11persistenceNtB6_15TaskListStorage15list_task_lists00Ba_
FN:133,_RNCNCNvMNtNtCs6t3ktUJwJ8n_3x0x4crdt11persistenceNtB6_15TaskListStorage15list_task_lists0s_0Ba_
FN:98,_RNCNvMNtNtCs6t3ktUJwJ8n_3x0x4crdt11persistenceNtB4_15TaskListStorage14load_task_list0B8_
FN:61,_RNCNvMNtNtCs6t3ktUJwJ8n_3x0x4crdt11persistenceNtB4_15TaskListStorage14save_task_list0B8_
FN:114,_RNCNvMNtNtCs6t3ktUJwJ8n_3x0x4crdt11persistenceNtB4_15TaskListStorage15list_task_lists0B8_
FN:154,_RNCNvMNtNtCs6t3ktUJwJ8n_3x0x4crdt11persistenceNtB4_15TaskListStorage16delete_task_list0B8_
FNDA:0,_RNCNCNvMNtNtCsfB8W1BOG4Wp_3x0x4crdt11persistenceNtB6_15TaskListStorage15list_task_lists00Ba_
FNDA:0,_RNCNCNvMNtNtCsfB8W1BOG4Wp_3x0x4crdt11persistenceNtB6_15TaskListStorage15list_task_lists0s_0Ba_
FNDA:0,_RNCNvMNtNtCsfB8W1BOG4Wp_3x0x4crdt11persistenceNtB4_15TaskListStorage14load_task_list0B8_
FNDA:0,_RNCNvMNtNtCsfB8W1BOG4Wp_3x0x4crdt11persistenceNtB4_15TaskListStorage14save_task_list0B8_
FNDA:0,_RNCNvMNtNtCsfB8W1BOG4Wp_3x0x4crdt11persistenceNtB4_15TaskListStorage15list_task_lists0B8_
FNDA:0,_RNCNvMNtNtCsfB8W1BOG4Wp_3x0x4crdt11persistenceNtB4_15TaskListStorage16delete_task_list0B8_
FNDA:0,_RNvMNtNtCsfB8W1BOG4Wp_3x0x4crdt11persistenceNtB2_15TaskListStorage14list_file_path
FNDA:0,_RNvMNtNtCsfB8W1BOG4Wp_3x0x4crdt11persistenceNtB2_15TaskListStorage14load_task_list
FNDA:0,_RNvMNtNtCsfB8W1BOG4Wp_3x0x4crdt11persistenceNtB2_15TaskListStorage14save_task_list
FNDA:0,_RNvMNtNtCsfB8W1BOG4Wp_3x0x4crdt11persistenceNtB2_15TaskListStorage15list_task_lists
FNDA:0,_RNvMNtNtCsfB8W1BOG4Wp_3x0x4crdt11persistenceNtB2_15TaskListStorage16delete_task_list
FNDA:0,_RNvMNtNtCsfB8W1BOG4Wp_3x0x4crdt11persistenceNtB2_15TaskListStorage3new
FNDA:14,_RNvMNtNtCs6t3ktUJwJ8n_3x0x4crdt11persistenceNtB2_15TaskListStorage14list_file_path
FNDA:6,_RNvMNtNtCs6t3ktUJwJ8n_3x0x4crdt11persistenceNtB2_15TaskListStorage14load_task_list
FNDA:7,_RNvMNtNtCs6t3ktUJwJ8n_3x0x4crdt11persistenceNtB2_15TaskListStorage14save_task_list
FNDA:4,_RNvMNtNtCs6t3ktUJwJ8n_3x0x4crdt11persistenceNtB2_15TaskListStorage15list_task_lists
FNDA:1,_RNvMNtNtCs6t3ktUJwJ8n_3x0x4crdt11persistenceNtB2_15TaskListStorage16delete_task_list
FNDA:8,_RNvMNtNtCs6t3ktUJwJ8n_3x0x4crdt11persistenceNtB2_15TaskListStorage3new
FNDA:8,_RNvNtNtNtCs6t3ktUJwJ8n_3x0x4crdt11persistence5tests12test_list_id
FNDA:7,_RNvNtNtNtCs6t3ktUJwJ8n_3x0x4crdt11persistence5tests12test_peer_id
FNDA:7,_RNvNtNtNtCs6t3ktUJwJ8n_3x0x4crdt11persistence5tests16create_test_list
FNDA:1,_RNvNtNtNtCs6t3ktUJwJ8n_3x0x4crdt11persistence5testss_20list_skips_tmp_files
FNDA:1,_RNvNtNtNtCs6t3ktUJwJ8n_3x0x4crdt11persistence5testss_23save_and_load_roundtrip
FNDA:1,_RNvNtNtNtCs6t3ktUJwJ8n_3x0x4crdt11persistence5testss_25list_task_lists_empty_dir
FNDA:1,_RNvNtNtNtCs6t3ktUJwJ8n_3x0x4crdt11persistence5testss_26list_task_lists_after_save
FNDA:1,_RNvNtNtNtCs6t3ktUJwJ8n_3x0x4crdt11persistence5testss_26multiple_lists_independent
FNDA:1,_RNvNtNtNtCs6t3ktUJwJ8n_3x0x4crdt11persistence5testss_29delete_task_list_removes_file
FNDA:1,_RNvNtNtNtCs6t3ktUJwJ8n_3x0x4crdt11persistence5testss_30load_nonexistent_returns_error
FNDA:1,_RNvNtNtNtCs6t3ktUJwJ8n_3x0x4crdt11persistence5testss_36save_creates_directory_automatically
FNDA:1,_RNCNvNtNtNtCs6t3ktUJwJ8n_3x0x4crdt11persistence5testss_20list_skips_tmp_files0B9_
FNDA:1,_RNCNvNtNtNtCs6t3ktUJwJ8n_3x0x4crdt11persistence5testss_23save_and_load_roundtrip0B9_
FNDA:1,_RNCNvNtNtNtCs6t3ktUJwJ8n_3x0x4crdt11persistence5testss_25list_task_lists_empty_dir0B9_
FNDA:1,_RNCNvNtNtNtCs6t3ktUJwJ8n_3x0x4crdt11persistence5testss_26list_task_lists_after_save0B9_
FNDA:1,_RNCNvNtNtNtCs6t3ktUJwJ8n_3x0x4crdt11persistence5testss_26multiple_lists_independent0B9_
FNDA:1,_RNCNvNtNtNtCs6t3ktUJwJ8n_3x0x4crdt11persistence5testss_29delete_task_list_removes_file0B9_
